 spispring

 Timestamp is 3ff837a3 (Sun Jan 04 16:56:19 2004)

 Preferred load address is 00400000

 Start         Length     Name                   Class
 0001:00000000 0006915bH .text                   CODE
 0001:00069160 00003f8cH .text$x                 CODE
 0002:00000000 0000039cH .idata$5                DATA
 0002:000003a0 00002620H .rdata                  DATA
 0002:000029c0 00001bb4H .rdata$r                DATA
 0002:00004578 00004d98H .xdata$x                DATA
 0002:00009310 00000078H .idata$2                DATA
 0002:00009388 00000014H .idata$3                DATA
 0002:0000939c 0000039cH .idata$4                DATA
 0002:00009738 00000edcH .idata$6                DATA
 0002:0000a614 00000000H .edata                  DATA
 0003:00000000 00000004H .CRT$XCA                DATA
 0003:00000004 00000150H .CRT$XCU                DATA
 0003:00000154 00000004H .CRT$XCZ                DATA
 0003:00000158 00000004H .CRT$XIA                DATA
 0003:0000015c 00000010H .CRT$XIC                DATA
 0003:0000016c 00000004H .CRT$XIY                DATA
 0003:00000170 00000004H .CRT$XIZ                DATA
 0003:00000174 00000004H .CRT$XPA                DATA
 0003:00000178 00000008H .CRT$XPX                DATA
 0003:00000180 00000004H .CRT$XPZ                DATA
 0003:00000184 00000004H .CRT$XTA                DATA
 0003:00000188 00000004H .CRT$XTB                DATA
 0003:0000018c 00000004H .CRT$XTZ                DATA
 0003:00000190 00008421H .data                   DATA
 0003:000085b8 0003a140H .bss                    DATA

  Address         Publics by Value              Rva+Base     Lib:Object

 0001:00000000       ??0C3DOParser@@QAE@XZ      00401000 f   3DOParser.obj
 0001:000000a0       ??_GC3DOParser@@UAEPAXI@Z  004010a0 f i 3DOParser.obj
 0001:000000a0       ??_EC3DOParser@@UAEPAXI@Z  004010a0 f i 3DOParser.obj
 0001:000000c0       ??1C3DOParser@@UAE@XZ      004010c0 f   3DOParser.obj
 0001:00000250       ??1?$map@V?$basic_string@DU?$char_traits@D@std@@V?$allocator@D@2@@std@@PAUS3DO@@U?$less@V?$basic_string@DU?$char_traits@D@std@@V?$allocator@D@2@@std@@@2@V?$allocator@PAUS3DO@@@2@@std@@QAE@XZ 00401250 f i 3DOParser.obj
 0001:00000310       ?DeleteS3DO@C3DOParser@@QAEHPAUS3DO@@@Z 00401310 f   3DOParser.obj
 0001:00000350       ?Load3DO@C3DOParser@@QAEPAUS3DO@@PBDMH@Z 00401350 f   3DOParser.obj
 0001:00000800       ?GetVertexes@C3DOParser@@AAEHPAU_3DObject@1@PAUS3DO@@@Z 00401800 f   3DOParser.obj
 0001:00000920       ??1SVertex@@QAE@XZ         00401920 f i 3DOParser.obj
 0001:00000950       ?GetPrimitives@C3DOParser@@AAEHPAUS3DO@@HHPAV?$vector@Vfloat3@@V?$allocator@Vfloat3@@@std@@@std@@HH@Z 00401950 f   3DOParser.obj
 0001:00001140       ??1?$map@HHU?$less@H@std@@V?$allocator@H@2@@std@@QAE@XZ 00402140 f i 3DOParser.obj
 0001:00001200       ??1SPrimitive@@QAE@XZ      00402200 f i 3DOParser.obj
 0001:00001230       ?CalcNormals@C3DOParser@@QAEXPAUS3DO@@@Z 00402230 f   3DOParser.obj
 0001:00001330       ?GetText@C3DOParser@@AAE?AV?$basic_string@DU?$char_traits@D@std@@V?$allocator@D@2@@std@@H@Z 00402330 f   3DOParser.obj
 0001:00001440       ?ReadChild@C3DOParser@@AAE_NHPAUS3DO@@H@Z 00402440 f   3DOParser.obj
 0001:00001740       ??1S3DO@@QAE@XZ            00402740 f i 3DOParser.obj
 0001:00001820       ?DrawSub@C3DOParser@@AAEHPAUS3DO@@@Z 00402820 f   3DOParser.obj
 0001:00001c70       ?CreateLists@C3DOParser@@QAEHPAUS3DO@@@Z 00402c70 f   3DOParser.obj
 0001:00001ce0       ?SimStreamRead@C3DOParser@@AAEXPAXH@Z 00402ce0 f   3DOParser.obj
 0001:00001d20       ?FindSize@C3DOParser@@QAEMPAUS3DO@@Vfloat3@@@Z 00402d20 f   3DOParser.obj
 0001:00001e30       ??0?$basic_string@DU?$char_traits@D@std@@V?$allocator@D@2@@std@@QAE@ABV01@@Z 00402e30 f i 3DOParser.obj
 0001:00001f50       ??0?$basic_string@DU?$char_traits@D@std@@V?$allocator@D@2@@std@@QAE@PBDABV?$allocator@D@1@@Z 00402f50 f i 3DOParser.obj
 0001:00002010       ??1?$basic_string@DU?$char_traits@D@std@@V?$allocator@D@2@@std@@QAE@XZ 00403010 f i 3DOParser.obj
 0001:00002050       ??0?$vector@HV?$allocator@H@std@@@std@@QAE@ABV?$allocator@H@1@@Z 00403050 f i 3DOParser.obj
 0001:00002070       ??1?$vector@HV?$allocator@H@std@@@std@@QAE@XZ 00403070 f i 3DOParser.obj
 0001:000020a0       ??4?$vector@HV?$allocator@H@std@@@std@@QAEAAV01@ABV01@@Z 004030a0 f i 3DOParser.obj
 0001:00002230       ??1?$vector@US3DO@@V?$allocator@US3DO@@@std@@@std@@QAE@XZ 00403230 f i 3DOParser.obj
 0001:00002270       ??0?$vector@USPrimitive@@V?$allocator@USPrimitive@@@std@@@std@@QAE@ABV?$allocator@USPrimitive@@@1@@Z 00403270 f i 3DOParser.obj
 0001:00002290       ??1?$vector@USPrimitive@@V?$allocator@USPrimitive@@@std@@@std@@QAE@XZ 00403290 f i 3DOParser.obj
 0001:000022d0       ??0?$vector@USVertex@@V?$allocator@USVertex@@@std@@@std@@QAE@ABV?$allocator@USVertex@@@1@@Z 004032d0 f i 3DOParser.obj
 0001:000022f0       ??1?$vector@Vfloat3@@V?$allocator@Vfloat3@@@std@@@std@@QAE@XZ 004032f0 f i 3DOParser.obj
 0001:00002320       ??1?$_Tree@HU?$pair@$$CBHH@std@@U_Kfn@?$map@HHU?$less@H@std@@V?$allocator@H@2@@2@U?$less@H@2@V?$allocator@H@2@@std@@QAE@XZ 00403320 f i 3DOParser.obj
 0001:000023d0       ??0?$list@HV?$allocator@H@std@@@std@@QAE@ABV?$allocator@H@1@@Z 004033d0 f i 3DOParser.obj
 0001:00002400       ??1?$list@HV?$allocator@H@std@@@std@@QAE@XZ 00403400 f i 3DOParser.obj
 0001:00002450       ?begin@?$list@HV?$allocator@H@std@@@std@@QAE?AViterator@12@XZ 00403450 f i 3DOParser.obj
 0001:00002460       ??1?$pair@$$CBV?$basic_string@DU?$char_traits@D@std@@V?$allocator@D@2@@std@@PAUS3DO@@@std@@QAE@XZ 00403460 f i 3DOParser.obj
 0001:000024a0       ??_F?$list@HV?$allocator@H@std@@@std@@QAEXXZ 004034a0 f i 3DOParser.obj
 0001:000024d0       ?append@?$basic_string@DU?$char_traits@D@std@@V?$allocator@D@2@@std@@QAEAAV12@ID@Z 004034d0 f i 3DOParser.obj
 0001:000025a0       ?assign@?$basic_string@DU?$char_traits@D@std@@V?$allocator@D@2@@std@@QAEAAV12@ABV12@II@Z 004035a0 f i 3DOParser.obj
 0001:000027a0       ?find@?$basic_string@DU?$char_traits@D@std@@V?$allocator@D@2@@std@@QBEIPBDII@Z 004037a0 f i 3DOParser.obj
 0001:00002830       ?_Tidy@?$basic_string@DU?$char_traits@D@std@@V?$allocator@D@2@@std@@AAEX_N@Z 00403830 f i 3DOParser.obj
 0001:00002880       ??1float3@@QAE@XZ          00403880 f i 3DOParser.obj
 0001:00002890       ??Hfloat3@@QBE?AV0@ABV0@@Z 00403890 f i 3DOParser.obj
 0001:000028c0       ??Yfloat3@@QAEXABV0@@Z     004038c0 f i 3DOParser.obj
 0001:000028e0       ??Gfloat3@@QBE?AV0@ABV0@@Z 004038e0 f i 3DOParser.obj
 0001:00002910       ??Gfloat3@@QBE?AV0@XZ      00403910 f i 3DOParser.obj
 0001:00002940       ?cross@float3@@QBE?AV1@ABV1@@Z 00403940 f i 3DOParser.obj
 0001:000029b0       ?insert@?$vector@HV?$allocator@H@std@@@std@@QAEPAHPAHABH@Z 004039b0 f i 3DOParser.obj
 0001:00002b50       ?size@?$vector@HV?$allocator@H@std@@@std@@QBEIXZ 00403b50 f i 3DOParser.obj
 0001:00002b70       ?_Destroy@?$vector@HV?$allocator@H@std@@@std@@IAEXPAH0@Z 00403b70 f i 3DOParser.obj
 0001:00002b80       ?_Ucopy@?$vector@HV?$allocator@H@std@@@std@@IAEPAHPBH0PAH@Z 00403b80 f i 3DOParser.obj
 0001:00002bb0       ?Normalize@float3@@QAEXXZ  00403bb0 f i 3DOParser.obj
 0001:00002c00       ?_Destroy@?$vector@US3DO@@V?$allocator@US3DO@@@std@@@std@@IAEXPAUS3DO@@0@Z 00403c00 f i 3DOParser.obj
 0001:00002c30       ?insert@?$vector@USPrimitive@@V?$allocator@USPrimitive@@@std@@@std@@QAEPAUSPrimitive@@PAU3@ABU3@@Z 00403c30 f i 3DOParser.obj
 0001:00002e30       ?size@?$vector@USPrimitive@@V?$allocator@USPrimitive@@@std@@@std@@QBEIXZ 00403e30 f i 3DOParser.obj
 0001:00002e60       ?_Destroy@?$vector@USPrimitive@@V?$allocator@USPrimitive@@@std@@@std@@IAEXPAUSPrimitive@@0@Z 00403e60 f i 3DOParser.obj
 0001:00002ef0       ?_Destroy@?$vector@USVertex@@V?$allocator@USVertex@@@std@@@std@@IAEXPAUSVertex@@0@Z 00403ef0 f i 3DOParser.obj
 0001:00002f20       ?insert@?$map@V?$basic_string@DU?$char_traits@D@std@@V?$allocator@D@2@@std@@PAUS3DO@@U?$less@V?$basic_string@DU?$char_traits@D@std@@V?$allocator@D@2@@std@@@2@V?$allocator@PAUS3DO@@@2@@std@@QAE?AU?$pair@Viterator@?$_Tree@V?$basic_string@DU?$char_traits@D@std@@V?$allocator@D@2@@std@@U?$pair@$$CBV?$basic_string@DU?$char_traits@D@std@@V?$allocator@D@2@@std@@PAUS3DO@@@2@U_Kfn@?$map@V?$basic_string@DU?$char_traits@D@std@@V?$allocator@D@2@@std@@PAUS3DO@@U?$less@V?$basic_string@DU?$char_traits@D@std@@V?$allocator@D@2@@std@@@2@V?$allocator@PAUS3DO@@@2@@2@U?$less@V?$basic_string@DU?$char_traits@D@std@@V?$allocator@D@2@@std@@@2@V?$allocator@PAUS3DO@@@2@@std@@_N@2@ABU?$pair@$$CBV?$basic_string@DU?$char_traits@D@std@@V?$allocator@D@2@@std@@PAUS3DO@@@2@@Z 00403f20 f i 3DOParser.obj
 0001:00003020       ?begin@?$_Tree@V?$basic_string@DU?$char_traits@D@std@@V?$allocator@D@2@@std@@U?$pair@$$CBV?$basic_string@DU?$char_traits@D@std@@V?$allocator@D@2@@std@@PAUS3DO@@@2@U_Kfn@?$map@V?$basic_string@DU?$char_traits@D@std@@V?$allocator@D@2@@std@@PAUS3DO@@U?$less@V?$basic_string@DU?$char_traits@D@std@@V?$allocator@D@2@@std@@@2@V?$allocator@PAUS3DO@@@2@@2@U?$less@V?$basic_string@DU?$char_traits@D@std@@V?$allocator@D@2@@std@@@2@V?$allocator@PAUS3DO@@@2@@std@@QAE?AViterator@12@XZ 00404020 f i 3DOParser.obj
 0001:00003030       ?erase@?$_Tree@V?$basic_string@DU?$char_traits@D@std@@V?$allocator@D@2@@std@@U?$pair@$$CBV?$basic_string@DU?$char_traits@D@std@@V?$allocator@D@2@@std@@PAUS3DO@@@2@U_Kfn@?$map@V?$basic_string@DU?$char_traits@D@std@@V?$allocator@D@2@@std@@PAUS3DO@@U?$less@V?$basic_string@DU?$char_traits@D@std@@V?$allocator@D@2@@std@@@2@V?$allocator@PAUS3DO@@@2@@2@U?$less@V?$basic_string@DU?$char_traits@D@std@@V?$allocator@D@2@@std@@@2@V?$allocator@PAUS3DO@@@2@@std@@QAE?AViterator@12@V312@0@Z 00404030 f i 3DOParser.obj
 0001:00003110       ?find@?$_Tree@V?$basic_string@DU?$char_traits@D@std@@V?$allocator@D@2@@std@@U?$pair@$$CBV?$basic_string@DU?$char_traits@D@std@@V?$allocator@D@2@@std@@PAUS3DO@@@2@U_Kfn@?$map@V?$basic_string@DU?$char_traits@D@std@@V?$allocator@D@2@@std@@PAUS3DO@@U?$less@V?$basic_string@DU?$char_traits@D@std@@V?$allocator@D@2@@std@@@2@V?$allocator@PAUS3DO@@@2@@2@U?$less@V?$basic_string@DU?$char_traits@D@std@@V?$allocator@D@2@@std@@@2@V?$allocator@PAUS3DO@@@2@@std@@QAE?AViterator@12@ABV?$basic_string@DU?$char_traits@D@std@@V?$allocator@D@2@@2@@Z 00404110 f i 3DOParser.obj
 0001:000031c0       ?_Inc@const_iterator@?$_Tree@V?$basic_string@DU?$char_traits@D@std@@V?$allocator@D@2@@std@@U?$pair@$$CBV?$basic_string@DU?$char_traits@D@std@@V?$allocator@D@2@@std@@PAUS3DO@@@2@U_Kfn@?$map@V?$basic_string@DU?$char_traits@D@std@@V?$allocator@D@2@@std@@PAUS3DO@@U?$less@V?$basic_string@DU?$char_traits@D@std@@V?$allocator@D@2@@std@@@2@V?$allocator@PAUS3DO@@@2@@2@U?$less@V?$basic_string@DU?$char_traits@D@std@@V?$allocator@D@2@@std@@@2@V?$allocator@PAUS3DO@@@2@@std@@QAEXXZ 004041c0 f i 3DOParser.obj
 0001:00003210       ?insert@?$map@HHU?$less@H@std@@V?$allocator@H@2@@std@@QAE?AU?$pair@Viterator@?$_Tree@HU?$pair@$$CBHH@std@@U_Kfn@?$map@HHU?$less@H@std@@V?$allocator@H@2@@2@U?$less@H@2@V?$allocator@H@2@@std@@_N@2@ABU?$pair@$$CBHH@2@@Z 00404210 f i 3DOParser.obj
 0001:00003300       ??0?$_Tree@HU?$pair@$$CBHH@std@@U_Kfn@?$map@HHU?$less@H@std@@V?$allocator@H@2@@2@U?$less@H@2@V?$allocator@H@2@@std@@QAE@ABU?$less@H@1@_NABV?$allocator@H@1@@Z 00404300 f i 3DOParser.obj
 0001:00003330       ?begin@?$_Tree@HU?$pair@$$CBHH@std@@U_Kfn@?$map@HHU?$less@H@std@@V?$allocator@H@2@@2@U?$less@H@2@V?$allocator@H@2@@std@@QAE?AViterator@12@XZ 00404330 f i 3DOParser.obj
 0001:00003340       ?find@?$_Tree@HU?$pair@$$CBHH@std@@U_Kfn@?$map@HHU?$less@H@std@@V?$allocator@H@2@@2@U?$less@H@2@V?$allocator@H@2@@std@@QAE?AViterator@12@ABH@Z 00404340 f i 3DOParser.obj
 0001:000033b0       ??0?$pair@$$CBHH@std@@QAE@ABH0@Z 004043b0 f i 3DOParser.obj
 0001:000033d0       ?insert@?$list@HV?$allocator@H@std@@@std@@QAE?AViterator@12@V312@ABH@Z 004043d0 f i 3DOParser.obj
 0001:00003430       ?erase@?$list@HV?$allocator@H@std@@@std@@QAE?AViterator@12@V312@0@Z 00404430 f i 3DOParser.obj
 0001:00003480       ?swap@?$list@HV?$allocator@H@std@@@std@@QAEXAAV12@@Z 00404480 f i 3DOParser.obj
 0001:000034b0       ?splice@?$list@HV?$allocator@H@std@@@std@@QAEXViterator@12@AAV12@0@Z 004044b0 f i 3DOParser.obj
 0001:00003510       ?merge@?$list@HV?$allocator@H@std@@@std@@QAEXAAV12@@Z 00404510 f i 3DOParser.obj
 0001:000035e0       ?_Buynode@?$list@HV?$allocator@H@std@@@std@@IAEPAU_Node@12@PAU312@0@Z 004045e0 f i 3DOParser.obj
 0001:00003610       ?assign@?$basic_string@DU?$char_traits@D@std@@V?$allocator@D@2@@std@@QAEAAV12@PBDI@Z 00404610 f i 3DOParser.obj
 0001:000036b0       ?_Eos@?$basic_string@DU?$char_traits@D@std@@V?$allocator@D@2@@std@@AAEXI@Z 004046b0 f i 3DOParser.obj
 0001:000036d0       ?_Grow@?$basic_string@DU?$char_traits@D@std@@V?$allocator@D@2@@std@@AAE_NI_N@Z 004046d0 f i 3DOParser.obj
 0001:000037f0       ?insert@?$vector@US3DO@@V?$allocator@US3DO@@@std@@@std@@QAEXPAUS3DO@@IABU3@@Z 004047f0 f i 3DOParser.obj
 0001:00003b30       ?insert@?$vector@USVertex@@V?$allocator@USVertex@@@std@@@std@@QAEXPAUSVertex@@IABU3@@Z 00404b30 f i 3DOParser.obj
 0001:00003ec0       ?erase@?$_Tree@V?$basic_string@DU?$char_traits@D@std@@V?$allocator@D@2@@std@@U?$pair@$$CBV?$basic_string@DU?$char_traits@D@std@@V?$allocator@D@2@@std@@PAUS3DO@@@2@U_Kfn@?$map@V?$basic_string@DU?$char_traits@D@std@@V?$allocator@D@2@@std@@PAUS3DO@@U?$less@V?$basic_string@DU?$char_traits@D@std@@V?$allocator@D@2@@std@@@2@V?$allocator@PAUS3DO@@@2@@2@U?$less@V?$basic_string@DU?$char_traits@D@std@@V?$allocator@D@2@@std@@@2@V?$allocator@PAUS3DO@@@2@@std@@QAE?AViterator@12@V312@@Z 00404ec0 f i 3DOParser.obj
 0001:000042c0       ?_Erase@?$_Tree@V?$basic_string@DU?$char_traits@D@std@@V?$allocator@D@2@@std@@U?$pair@$$CBV?$basic_string@DU?$char_traits@D@std@@V?$allocator@D@2@@std@@PAUS3DO@@@2@U_Kfn@?$map@V?$basic_string@DU?$char_traits@D@std@@V?$allocator@D@2@@std@@PAUS3DO@@U?$less@V?$basic_string@DU?$char_traits@D@std@@V?$allocator@D@2@@std@@@2@V?$allocator@PAUS3DO@@@2@@2@U?$less@V?$basic_string@DU?$char_traits@D@std@@V?$allocator@D@2@@std@@@2@V?$allocator@PAUS3DO@@@2@@std@@IAEXPAU_Node@12@@Z 004052c0 f i 3DOParser.obj
 0001:00004310       ?_Min@?$_Tree@V?$basic_string@DU?$char_traits@D@std@@V?$allocator@D@2@@std@@U?$pair@$$CBV?$basic_string@DU?$char_traits@D@std@@V?$allocator@D@2@@std@@PAUS3DO@@@2@U_Kfn@?$map@V?$basic_string@DU?$char_traits@D@std@@V?$allocator@D@2@@std@@PAUS3DO@@U?$less@V?$basic_string@DU?$char_traits@D@std@@V?$allocator@D@2@@std@@@2@V?$allocator@PAUS3DO@@@2@@2@U?$less@V?$basic_string@DU?$char_traits@D@std@@V?$allocator@D@2@@std@@@2@V?$allocator@PAUS3DO@@@2@@std@@KAPAU_Node@12@PAU312@@Z 00405310 f i 3DOParser.obj
 0001:00004330       ?erase@?$_Tree@HU?$pair@$$CBHH@std@@U_Kfn@?$map@HHU?$less@H@std@@V?$allocator@H@2@@2@U?$less@H@2@V?$allocator@H@2@@std@@QAE?AViterator@12@V312@@Z 00405330 f i 3DOParser.obj
 0001:00004700       ?_Erase@?$_Tree@HU?$pair@$$CBHH@std@@U_Kfn@?$map@HHU?$less@H@std@@V?$allocator@H@2@@2@U?$less@H@2@V?$allocator@H@2@@std@@IAEXPAU_Node@12@@Z 00405700 f i 3DOParser.obj
 0001:00004740       ?_Init@?$_Tree@HU?$pair@$$CBHH@std@@U_Kfn@?$map@HHU?$less@H@std@@V?$allocator@H@2@@2@U?$less@H@2@V?$allocator@H@2@@std@@IAEXXZ 00405740 f i 3DOParser.obj
 0001:000047c0       ?max_size@?$basic_string@DU?$char_traits@D@std@@V?$allocator@D@2@@std@@QBEIXZ 004057c0 f i 3DOParser.obj
 0001:000047d0       ?_Copy@?$basic_string@DU?$char_traits@D@std@@V?$allocator@D@2@@std@@AAEXI@Z 004057d0 f i 3DOParser.obj
 0001:000048e0       ?_Split@?$basic_string@DU?$char_traits@D@std@@V?$allocator@D@2@@std@@AAEXXZ 004058e0 f i 3DOParser.obj
 0001:000049b0       ?_Ufill@?$vector@HV?$allocator@H@std@@@std@@IAEXPAHIABH@Z 004059b0 f i 3DOParser.obj
 0001:000049e0       ?_Ucopy@?$vector@USPrimitive@@V?$allocator@USPrimitive@@@std@@@std@@IAEPAUSPrimitive@@PBU3@0PAU3@@Z 004059e0 f i 3DOParser.obj
 0001:00004a20       ?_Ufill@?$vector@USPrimitive@@V?$allocator@USPrimitive@@@std@@@std@@IAEXPAUSPrimitive@@IABU3@@Z 00405a20 f i 3DOParser.obj
 0001:00004a50       ?_Insert@?$_Tree@V?$basic_string@DU?$char_traits@D@std@@V?$allocator@D@2@@std@@U?$pair@$$CBV?$basic_string@DU?$char_traits@D@std@@V?$allocator@D@2@@std@@PAUS3DO@@@2@U_Kfn@?$map@V?$basic_string@DU?$char_traits@D@std@@V?$allocator@D@2@@std@@PAUS3DO@@U?$less@V?$basic_string@DU?$char_traits@D@std@@V?$allocator@D@2@@std@@@2@V?$allocator@PAUS3DO@@@2@@2@U?$less@V?$basic_string@DU?$char_traits@D@std@@V?$allocator@D@2@@std@@@2@V?$allocator@PAUS3DO@@@2@@std@@IAE?AViterator@12@PAU_Node@12@0ABU?$pair@$$CBV?$basic_string@DU?$char_traits@D@std@@V?$allocator@D@2@@std@@PAUS3DO@@@2@@Z 00405a50 f i 3DOParser.obj
 0001:00004cc0       ?_Insert@?$_Tree@HU?$pair@$$CBHH@std@@U_Kfn@?$map@HHU?$less@H@std@@V?$allocator@H@2@@2@U?$less@H@2@V?$allocator@H@2@@std@@IAE?AViterator@12@PAU_Node@12@0ABU?$pair@$$CBHH@2@@Z 00405cc0 f i 3DOParser.obj
 0001:00004f30       ?_Dec@const_iterator@?$_Tree@V?$basic_string@DU?$char_traits@D@std@@V?$allocator@D@2@@std@@U?$pair@$$CBV?$basic_string@DU?$char_traits@D@std@@V?$allocator@D@2@@std@@PAUS3DO@@@2@U_Kfn@?$map@V?$basic_string@DU?$char_traits@D@std@@V?$allocator@D@2@@std@@PAUS3DO@@U?$less@V?$basic_string@DU?$char_traits@D@std@@V?$allocator@D@2@@std@@@2@V?$allocator@PAUS3DO@@@2@@2@U?$less@V?$basic_string@DU?$char_traits@D@std@@V?$allocator@D@2@@std@@@2@V?$allocator@PAUS3DO@@@2@@std@@QAEXXZ 00405f30 f i 3DOParser.obj
 0001:00004f90       ?_Dec@const_iterator@?$_Tree@HU?$pair@$$CBHH@std@@U_Kfn@?$map@HHU?$less@H@std@@V?$allocator@H@2@@2@U?$less@H@2@V?$allocator@H@2@@std@@QAEXXZ 00405f90 f i 3DOParser.obj
 0001:00004ff0       ?_Inc@const_iterator@?$_Tree@HU?$pair@$$CBHH@std@@U_Kfn@?$map@HHU?$less@H@std@@V?$allocator@H@2@@2@U?$less@H@2@V?$allocator@H@2@@std@@QAEXXZ 00405ff0 f i 3DOParser.obj
 0001:00005040       ?_Construct@std@@YAXPAHABH@Z 00406040 f i 3DOParser.obj
 0001:00005060       ?fill@std@@YAXPAUSPrimitive@@0ABU2@@Z 00406060 f i 3DOParser.obj
 0001:00005240       ?copy_backward@std@@YAPAUSPrimitive@@PAU2@00@Z 00406240 f i 3DOParser.obj
 0001:00005400       ?_Construct@std@@YAXPAUS3DO@@ABU2@@Z 00406400 f i 3DOParser.obj
 0001:00005600       ??3@YAXPAX0@Z              00406600 f i 3DOParser.obj
 0001:00005610       ?_Construct@std@@YAXPAUSPrimitive@@ABU2@@Z 00406610 f i 3DOParser.obj
 0001:000056f0       ?_Construct@std@@YAXPAUSVertex@@ABU2@@Z 004066f0 f i 3DOParser.obj
 0001:000057c0       ?_Construct@std@@YAXPAU?$pair@$$CBV?$basic_string@DU?$char_traits@D@std@@V?$allocator@D@2@@std@@PAUS3DO@@@1@ABU21@@Z 004067c0 f i 3DOParser.obj
 0001:00005910       ?_Construct@std@@YAXPAU?$pair@$$CBHH@1@ABU21@@Z 00406910 f i 3DOParser.obj
 0001:00005930       ??4S3DO@@QAEAAU0@ABU0@@Z   00406930 f i 3DOParser.obj
 0001:00005bf0       ??_GS3DO@@QAEPAXI@Z        00406bf0 f i 3DOParser.obj
 0001:00005c10       ?size@?$vector@US3DO@@V?$allocator@US3DO@@@std@@@std@@QBEIXZ 00406c10 f i 3DOParser.obj
 0001:00005c40       ?_Ucopy@?$vector@US3DO@@V?$allocator@US3DO@@@std@@@std@@IAEPAUS3DO@@PBU3@0PAU3@@Z 00406c40 f i 3DOParser.obj
 0001:00005c80       ??_GSVertex@@QAEPAXI@Z     00406c80 f i 3DOParser.obj
 0001:00005ca0       ??_Gfloat3@@QAEPAXI@Z      00406ca0 f i 3DOParser.obj
 0001:00005cc0       ??0SPrimitive@@QAE@ABU0@@Z 00406cc0 f i 3DOParser.obj
 0001:00005d70       ??0SVertex@@QAE@ABU0@@Z    00406d70 f i 3DOParser.obj
 0001:00005e30       ?compare@?$basic_string@DU?$char_traits@D@std@@V?$allocator@D@2@@std@@QBEHABV12@@Z 00406e30 f i 3DOParser.obj
 0001:00005e80       ??4?$vector@US3DO@@V?$allocator@US3DO@@@std@@@std@@QAEAAV01@ABV01@@Z 00406e80 f i 3DOParser.obj
 0001:000060f0       ??4?$vector@USPrimitive@@V?$allocator@USPrimitive@@@std@@@std@@QAEAAV01@ABV01@@Z 004070f0 f i 3DOParser.obj
 0001:00006360       ??4SPrimitive@@QAEAAU0@ABU0@@Z 00407360 f i 3DOParser.obj
 0001:00006500       ??_GSPrimitive@@QAEPAXI@Z  00407500 f i 3DOParser.obj
 0001:00006520       ??4?$vector@USVertex@@V?$allocator@USVertex@@@std@@@std@@QAEAAV01@ABV01@@Z 00407520 f i 3DOParser.obj
 0001:000067a0       ??4SVertex@@QAEAAU0@ABU0@@Z 004077a0 f i 3DOParser.obj
 0001:00006960       ?capacity@?$vector@US3DO@@V?$allocator@US3DO@@@std@@@std@@QBEIXZ 00407960 f i 3DOParser.obj
 0001:00006990       ?capacity@?$vector@USPrimitive@@V?$allocator@USPrimitive@@@std@@@std@@QBEIXZ 00407990 f i 3DOParser.obj
 0001:000069c0       ?copy@std@@YAPAUS3DO@@PBU2@0PAU2@@Z 004079c0 f i 3DOParser.obj
 0001:00006b90       ?copy@std@@YAPAUSPrimitive@@PBU2@0PAU2@@Z 00407b90 f i 3DOParser.obj
 0001:00006d70       ?id@?$ctype@G@std@@$E      00407d70 f i 3DOParser.obj
 0001:00006d80       ??0CBitmap@@QAE@XZ         00407d80 f   Bitmap.obj
 0001:00006db0       ??_ECBitmap@@UAEPAXI@Z     00407db0 f i Bitmap.obj
 0001:00006db0       ??_GCBitmap@@UAEPAXI@Z     00407db0 f i Bitmap.obj
 0001:00006de0       ??1CBitmap@@UAE@XZ         00407de0 f   Bitmap.obj
 0001:00006e00       ??0CBitmap@@QAE@PAEHH@Z    00407e00 f   Bitmap.obj
 0001:00006e50       ??0CBitmap@@QAE@V?$basic_string@DU?$char_traits@D@std@@V?$allocator@D@2@@std@@@Z 00407e50 f   Bitmap.obj
 0001:00006fa0       ?Load@CBitmap@@QAEXV?$basic_string@DU?$char_traits@D@std@@V?$allocator@D@2@@std@@@Z 00407fa0 f   Bitmap.obj
 0001:00007110       ?Save@CBitmap@@QAEXV?$basic_string@DU?$char_traits@D@std@@V?$allocator@D@2@@std@@@Z 00408110 f   Bitmap.obj
 0001:00007420       ??_D?$basic_ofstream@DU?$char_traits@D@std@@@std@@QAEXXZ 00408420 f i Bitmap.obj
 0001:00007440       ?LoadBMP@CBitmap@@QAEXV?$basic_string@DU?$char_traits@D@std@@V?$allocator@D@2@@std@@@Z 00408440 f   Bitmap.obj
 0001:00007560       ?LoadJPG@CBitmap@@QAEXV?$basic_string@DU?$char_traits@D@std@@V?$allocator@D@2@@std@@@Z 00408560 f   Bitmap.obj
 0001:00007790       ??1?$basic_ostream@DU?$char_traits@D@std@@@std@@UAE@XZ 00408790 f i Bitmap.obj
 0001:000077a0       ?write@?$basic_ostream@DU?$char_traits@D@std@@@std@@QAEAAV12@PBDH@Z 004087a0 f i Bitmap.obj
 0001:00007900       ?flush@?$basic_ostream@DU?$char_traits@D@std@@@std@@QAEAAV12@XZ 00408900 f i Bitmap.obj
 0001:00007960       ??1?$basic_ios@DU?$char_traits@D@std@@@std@@UAE@XZ 00408960 f i Bitmap.obj
 0001:00007970       ?setstate@?$basic_ios@DU?$char_traits@D@std@@@std@@QAEXH_N@Z 00408970 f i Bitmap.obj
 0001:000079a0       ??1?$basic_streambuf@DU?$char_traits@D@std@@@std@@UAE@XZ 004089a0 f i Bitmap.obj
 0001:000079e0       ?overflow@?$basic_streambuf@DU?$char_traits@D@std@@@std@@MAEHH@Z 004089e0 f i Bitmap.obj
 0001:000079f0       ?pbackfail@?$basic_streambuf@DU?$char_traits@D@std@@@std@@MAEHH@Z 004089f0 f i Bitmap.obj
 0001:00007a00       ?showmanyc@?$basic_streambuf@DU?$char_traits@D@std@@@std@@MAEHXZ 00408a00 f i Bitmap.obj
 0001:00007a10       ?underflow@?$basic_streambuf@DU?$char_traits@D@std@@@std@@MAEHXZ 00408a10 f i Bitmap.obj
 0001:00007a20       ?uflow@?$basic_streambuf@DU?$char_traits@D@std@@@std@@MAEHXZ 00408a20 f i Bitmap.obj
 0001:00007a50       ?xsgetn@?$basic_streambuf@DU?$char_traits@D@std@@@std@@MAEHPADH@Z 00408a50 f i Bitmap.obj
 0001:00007af0       ?xsputn@?$basic_streambuf@DU?$char_traits@D@std@@@std@@MAEHPBDH@Z 00408af0 f i Bitmap.obj
 0001:00007b90       ?seekoff@?$basic_streambuf@DU?$char_traits@D@std@@@std@@MAE?AV?$fpos@H@2@JW4seekdir@ios_base@2@H@Z 00408b90 f i Bitmap.obj
 0001:00007bc0       ?seekpos@?$basic_streambuf@DU?$char_traits@D@std@@@std@@MAE?AV?$fpos@H@2@V32@H@Z 00408bc0 f i Bitmap.obj
 0001:00007bf0       ?setbuf@?$basic_streambuf@DU?$char_traits@D@std@@@std@@MAEPAV12@PADH@Z 00408bf0 f i Bitmap.obj
 0001:00007c00       ?sync@?$basic_streambuf@DU?$char_traits@D@std@@@std@@MAEHXZ 00408c00 f i Bitmap.obj
 0001:00007c10       ?imbue@?$basic_streambuf@DU?$char_traits@D@std@@@std@@MAEXABVlocale@2@@Z 00408c10 f i Bitmap.obj
 0001:00007c20       ??1locale@std@@QAE@XZ      00408c20 f i Bitmap.obj
 0001:00007c40       ?_Decref@facet@locale@std@@QAEPAV123@XZ 00408c40 f i Bitmap.obj
 0001:00007c60       ??1?$basic_ofstream@DU?$char_traits@D@std@@@std@@UAE@XZ 00408c60 f i Bitmap.obj
 0001:00007d60       ??1?$basic_filebuf@DU?$char_traits@D@std@@@std@@UAE@XZ 00408d60 f i Bitmap.obj
 0001:00007e90       ?overflow@?$basic_filebuf@DU?$char_traits@D@std@@@std@@MAEHH@Z 00408e90 f i Bitmap.obj
 0001:00008070       ?pbackfail@?$basic_filebuf@DU?$char_traits@D@std@@@std@@MAEHH@Z 00409070 f i Bitmap.obj
 0001:00008210       ?underflow@?$basic_filebuf@DU?$char_traits@D@std@@@std@@MAEHXZ 00409210 f i Bitmap.obj
 0001:00008240       ?uflow@?$basic_filebuf@DU?$char_traits@D@std@@@std@@MAEHXZ 00409240 f i Bitmap.obj
 0001:00008430       ?seekoff@?$basic_filebuf@DU?$char_traits@D@std@@@std@@MAE?AV?$fpos@H@2@JW4seekdir@ios_base@2@H@Z 00409430 f i Bitmap.obj
 0001:000084c0       ?seekpos@?$basic_filebuf@DU?$char_traits@D@std@@@std@@MAE?AV?$fpos@H@2@V32@H@Z 004094c0 f i Bitmap.obj
 0001:00008650       ?setbuf@?$basic_filebuf@DU?$char_traits@D@std@@@std@@MAEPAV?$basic_streambuf@DU?$char_traits@D@std@@@2@PADH@Z 00409650 f i Bitmap.obj
 0001:00008680       ?sync@?$basic_filebuf@DU?$char_traits@D@std@@@std@@MAEHXZ 00409680 f i Bitmap.obj
 0001:000086a0       ??_G?$basic_ostream@DU?$char_traits@D@std@@@std@@UAEPAXI@Z 004096a0 f i Bitmap.obj
 0001:000086a0       ??_E?$basic_ostream@DU?$char_traits@D@std@@@std@@UAEPAXI@Z 004096a0 f i Bitmap.obj
 0001:000086d0       ??_E?$basic_ios@DU?$char_traits@D@std@@@std@@UAEPAXI@Z 004096d0 f i Bitmap.obj
 0001:000086d0       ??_G?$basic_ios@DU?$char_traits@D@std@@@std@@UAEPAXI@Z 004096d0 f i Bitmap.obj
 0001:000086f0       ??_E?$basic_streambuf@DU?$char_traits@D@std@@@std@@UAEPAXI@Z 004096f0 f i Bitmap.obj
 0001:000086f0       ??_G?$basic_streambuf@DU?$char_traits@D@std@@@std@@UAEPAXI@Z 004096f0 f i Bitmap.obj
 0001:00008710       ??_G?$basic_ofstream@DU?$char_traits@D@std@@@std@@UAEPAXI@Z 00409710 f i Bitmap.obj
 0001:00008710       ??_E?$basic_ofstream@DU?$char_traits@D@std@@@std@@UAEPAXI@Z 00409710 f i Bitmap.obj
 0001:00008740       ??_E?$basic_filebuf@DU?$char_traits@D@std@@@std@@UAEPAXI@Z 00409740 f i Bitmap.obj
 0001:00008740       ??_G?$basic_filebuf@DU?$char_traits@D@std@@@std@@UAEPAXI@Z 00409740 f i Bitmap.obj
 0001:00008760       ??_G?$basic_string@DU?$char_traits@D@std@@V?$allocator@D@2@@std@@QAEPAXI@Z 00409760 f i Bitmap.obj
 0001:000087c0       ?erase@?$basic_string@DU?$char_traits@D@std@@V?$allocator@D@2@@std@@QAEAAV12@II@Z 004097c0 f i Bitmap.obj
 0001:000088e0       ??0?$basic_ostream@DU?$char_traits@D@std@@@std@@QAE@PAV?$basic_streambuf@DU?$char_traits@D@std@@@1@_N1@Z 004098e0 f i Bitmap.obj
 0001:000089a0       ??1sentry@?$basic_ostream@DU?$char_traits@D@std@@@std@@QAE@XZ 004099a0 f i Bitmap.obj
 0001:00008a10       ??0ios_base@std@@IAE@XZ    00409a10 f i Bitmap.obj
 0001:00008a20       ??_Eios_base@std@@UAEPAXI@Z 00409a20 f i Bitmap.obj
 0001:00008a20       ??_Gios_base@std@@UAEPAXI@Z 00409a20 f i Bitmap.obj
 0001:00008a40       ??0?$basic_filebuf@DU?$char_traits@D@std@@@std@@QAE@PAU_iobuf@@@Z 00409a40 f i Bitmap.obj
 0001:00008bd0       ?close@?$basic_filebuf@DU?$char_traits@D@std@@@std@@QAEPAV12@XZ 00409bd0 f i Bitmap.obj
 0001:00008c70       ?_Freeze@?$basic_string@DU?$char_traits@D@std@@V?$allocator@D@2@@std@@AAEXXZ 00409c70 f i Bitmap.obj
 0001:00008cf0       ?_Init@?$basic_filebuf@DU?$char_traits@D@std@@@std@@IAEXPAU_iobuf@@W4_Initfl@12@@Z 00409cf0 f i Bitmap.obj
 0001:00008dd0       ??0locale@std@@QAE@XZ      00409dd0 f i Bitmap.obj
 0001:00008df0       ?_Initcvt@?$basic_filebuf@DU?$char_traits@D@std@@@std@@IAEXXZ 00409df0 f i Bitmap.obj
 0001:00008fc0       ??1_Lockit@std@@QAE@XZ     00409fc0 f i Bitmap.obj
 0001:00008fd0       ??0bad_cast@std@@QAE@PBD@Z 00409fd0 f i Bitmap.obj
 0001:00008ff0       ??1bad_cast@std@@UAE@XZ    00409ff0 f i Bitmap.obj
 0001:00009000       ?_Doraise@bad_cast@std@@MBEXXZ 0040a000 f i Bitmap.obj
 0001:00009020       ??_Ebad_cast@std@@UAEPAXI@Z 0040a020 f i Bitmap.obj
 0001:00009020       ??_Gbad_cast@std@@UAEPAXI@Z 0040a020 f i Bitmap.obj
 0001:00009040       ??0bad_cast@std@@QAE@ABV01@@Z 0040a040 f i Bitmap.obj
 0001:00009060       ?_Incref@facet@locale@std@@QAEXXZ 0040a060 f i Bitmap.obj
 0001:00009070       ??0locale@std@@QAE@ABV01@@Z 0040a070 f i Bitmap.obj
 0001:00009090       ?getloc@?$basic_streambuf@DU?$char_traits@D@std@@@std@@QAE?AVlocale@2@XZ 0040a090 f i Bitmap.obj
 0001:000090c0       ?_Init@?$basic_streambuf@DU?$char_traits@D@std@@@std@@IAEXXZ 0040a0c0 f i Bitmap.obj
 0001:00009120       ?_Init@?$basic_streambuf@DU?$char_traits@D@std@@@std@@IAEXPAPAD0PAH001@Z 0040a120 f i Bitmap.obj
 0001:00009150       ?setg@?$basic_streambuf@DU?$char_traits@D@std@@@std@@IAEXPAD00@Z 0040a150 f i Bitmap.obj
 0001:00009170       ?setp@?$basic_streambuf@DU?$char_traits@D@std@@@std@@IAEXPAD0@Z 0040a170 f i Bitmap.obj
 0001:00009190       ?_Addfac@std@@YA?AVlocale@1@V21@PAV?$codecvt@DDH@1@@Z 0040a190 f i Bitmap.obj
 0001:00009250       ??0?$codecvt@DDH@std@@QAE@I@Z 0040a250 f i Bitmap.obj
 0001:000092c0       ?do_always_noconv@codecvt_base@std@@MBE_NXZ 0040a2c0 f i Bitmap.obj
 0001:000092d0       ?do_max_length@codecvt_base@std@@MBEHXZ 0040a2d0 f i Bitmap.obj
 0001:000092e0       ?do_encoding@codecvt_base@std@@MBEHXZ 0040a2e0 f i Bitmap.obj
 0001:000092f0       ??1codecvt_base@std@@UAE@XZ 0040a2f0 f i Bitmap.obj
 0001:00009300       ??_Efacet@locale@std@@UAEPAXI@Z 0040a300 f i Bitmap.obj
 0001:00009300       ??_Gfacet@locale@std@@UAEPAXI@Z 0040a300 f i Bitmap.obj
 0001:00009320       ?do_in@?$codecvt@DDH@std@@MBEHAAHPBD1AAPBDPAD3AAPAD@Z 0040a320 f i Bitmap.obj
 0001:00009340       ?do_out@?$codecvt@DDH@std@@MBEHAAHPBD1AAPBDPAD3AAPAD@Z 0040a340 f i Bitmap.obj
 0001:00009360       ?do_length@?$codecvt@DDH@std@@MBEHAAHPBD1I@Z 0040a360 f i Bitmap.obj
 0001:00009380       ??_E?$codecvt@DDH@std@@UAEPAXI@Z 0040a380 f i Bitmap.obj
 0001:00009380       ??_G?$codecvt@DDH@std@@UAEPAXI@Z 0040a380 f i Bitmap.obj
 0001:000093a0       ??1?$codecvt@DDH@std@@UAE@XZ 0040a3a0 f i Bitmap.obj
 0001:000093b0       ?_Save@?$_Tidyfac@V?$codecvt@DDH@std@@@std@@SAPAV?$codecvt@DDH@2@PAV32@@Z 0040a3b0 f i Bitmap.obj
 0001:000093e0       ?_Tidy@?$_Tidyfac@V?$codecvt@DDH@std@@@std@@SAXXZ 0040a3e0 f i Bitmap.obj
 0001:00009480       ?id@?$codecvt@DDH@std@@$E  0040a480 f i Bitmap.obj
 0001:000094f0       ??0CCamera@@QAE@XZ         0040a4f0 f   Camera.obj
 0001:000095b0       ??_ECCamera@@UAEPAXI@Z     0040a5b0 f i Camera.obj
 0001:000095b0       ??_GCCamera@@UAEPAXI@Z     0040a5b0 f i Camera.obj
 0001:000095d0       ??1CCamera@@UAE@XZ         0040a5d0 f   Camera.obj
 0001:000095e0       ?Update@CCamera@@QAEH_N@Z  0040a5e0 f   Camera.obj
 0001:00009b50       ?InView@CCamera@@QAE_NABVfloat3@@M@Z 0040ab50 f   Camera.obj
 0001:00009c70       ?UpdateForward@CCamera@@QAEXXZ 0040ac70 f   Camera.obj
 0001:00009ce0       ?CalcPixelDir@CCamera@@QAE?AVfloat3@@HH@Z 0040ace0 f   Camera.obj
 0001:00009e30       ??Dfloat3@@QBE?AV0@M@Z     0040ae30 f i Camera.obj
 0001:00009e80       ??0CDrawUI@@QAE@XZ         0040ae80 f   DrawUI.obj
 0001:00009ec0       ??_ECDrawUI@@UAEPAXI@Z     0040aec0 f i DrawUI.obj
 0001:00009ec0       ??_GCDrawUI@@UAEPAXI@Z     0040aec0 f i DrawUI.obj
 0001:00009ee0       ??1CDrawUI@@UAE@XZ         0040aee0 f   DrawUI.obj
 0001:00009ef0       ?Draw@CDrawUI@@QAEXXZ      0040aef0 f   DrawUI.obj
 0001:0000a3f0       ??0CDrawWater@@QAE@XZ      0040b3f0 f   DrawWater.obj
 0001:0000a540       ??_GCDrawWater@@UAEPAXI@Z  0040b540 f i DrawWater.obj
 0001:0000a540       ??_ECDrawWater@@UAEPAXI@Z  0040b540 f i DrawWater.obj
 0001:0000a570       ??1CDrawWater@@UAE@XZ      0040b570 f   DrawWater.obj
 0001:0000a590       ?Draw@CDrawWater@@QAEXXZ   0040b590 f   DrawWater.obj
 0001:0000a9a0       ??0CFeatureHandler@@QAE@XZ 0040b9a0 f   FeatureHandler.obj
 0001:0000aa40       ??_GCFeatureHandler@@UAEPAXI@Z 0040ba40 f i FeatureHandler.obj
 0001:0000aa40       ??_ECFeatureHandler@@UAEPAXI@Z 0040ba40 f i FeatureHandler.obj
 0001:0000aa60       ??1CFeatureHandler@@UAE@XZ 0040ba60 f   FeatureHandler.obj
 0001:0000ab20       ?LoadFeatures@CFeatureHandler@@QAEXPAEHHH@Z 0040bb20 f   FeatureHandler.obj
 0001:0000ab40       ?FindTDFFiles@CFeatureHandler@@QAEXXZ 0040bb40 f   FeatureHandler.obj
 0001:0000ada0       ?SearchTdfFile@CFeatureHandler@@QAEXV?$basic_string@DU?$char_traits@D@std@@V?$allocator@D@2@@std@@@Z 0040bda0 f   FeatureHandler.obj
 0001:0000b090       ?MakeLower@CFeatureHandler@@SAXAAV?$basic_string@DU?$char_traits@D@std@@V?$allocator@D@2@@std@@@Z 0040c090 f   FeatureHandler.obj
 0001:0000b1b0       ?MakeLower@CFeatureHandler@@SAXPAD@Z 0040c1b0 f   FeatureHandler.obj
 0001:0000b1d0       ??A?$basic_string@DU?$char_traits@D@std@@V?$allocator@D@2@@std@@QAEAADI@Z 0040c1d0 f i FeatureHandler.obj
 0001:0000b270       ?c_str@?$basic_string@DU?$char_traits@D@std@@V?$allocator@D@2@@std@@QBEPBDXZ 0040c270 f i FeatureHandler.obj
 0001:0000b280       ??Citerator@?$_Tree@V?$basic_string@DU?$char_traits@D@std@@V?$allocator@D@2@@std@@U?$pair@$$CBV?$basic_string@DU?$char_traits@D@std@@V?$allocator@D@2@@std@@UFileData@CHpiHandler@@@2@U_Kfn@?$map@V?$basic_string@DU?$char_traits@D@std@@V?$allocator@D@2@@std@@UFileData@CHpiHandler@@U?$less@V?$basic_string@DU?$char_traits@D@std@@V?$allocator@D@2@@std@@@2@V?$allocator@UFileData@CHpiHandler@@@2@@2@U?$less@V?$basic_string@DU?$char_traits@D@std@@V?$allocator@D@2@@std@@@2@V?$allocator@UFileData@CHpiHandler@@@2@@std@@QBEPAU?$pair@$$CBV?$basic_string@DU?$char_traits@D@std@@V?$allocator@D@2@@std@@UFileData@CHpiHandler@@@2@XZ 0040c280 f i FeatureHandler.obj
 0001:0000b290       ??1?$pair@$$CBV?$basic_string@DU?$char_traits@D@std@@V?$allocator@D@2@@std@@V12@@std@@QAE@XZ 0040c290 f i FeatureHandler.obj
 0001:0000b300       ?insert@?$map@V?$basic_string@DU?$char_traits@D@std@@V?$allocator@D@2@@std@@V12@U?$less@V?$basic_string@DU?$char_traits@D@std@@V?$allocator@D@2@@std@@@2@V?$allocator@V?$basic_string@DU?$char_traits@D@std@@V?$allocator@D@2@@std@@@2@@std@@QAE?AU?$pair@Viterator@?$_Tree@V?$basic_string@DU?$char_traits@D@std@@V?$allocator@D@2@@std@@U?$pair@$$CBV?$basic_string@DU?$char_traits@D@std@@V?$allocator@D@2@@std@@V12@@2@U_Kfn@?$map@V?$basic_string@DU?$char_traits@D@std@@V?$allocator@D@2@@std@@V12@U?$less@V?$basic_string@DU?$char_traits@D@std@@V?$allocator@D@2@@std@@@2@V?$allocator@V?$basic_string@DU?$char_traits@D@std@@V?$allocator@D@2@@std@@@2@@2@U?$less@V?$basic_string@DU?$char_traits@D@std@@V?$allocator@D@2@@std@@@2@V?$allocator@V?$basic_string@DU?$char_traits@D@std@@V?$allocator@D@2@@std@@@2@@std@@_N@2@ABU?$pair@$$CBV?$basic_string@DU?$char_traits@D@std@@V?$allocator@D@2@@std@@V12@@2@@Z 0040c300 f i FeatureHandler.obj
 0001:0000b400       ?begin@?$_Tree@V?$basic_string@DU?$char_traits@D@std@@V?$allocator@D@2@@std@@U?$pair@$$CBV?$basic_string@DU?$char_traits@D@std@@V?$allocator@D@2@@std@@V12@@2@U_Kfn@?$map@V?$basic_string@DU?$char_traits@D@std@@V?$allocator@D@2@@std@@V12@U?$less@V?$basic_string@DU?$char_traits@D@std@@V?$allocator@D@2@@std@@@2@V?$allocator@V?$basic_string@DU?$char_traits@D@std@@V?$allocator@D@2@@std@@@2@@2@U?$less@V?$basic_string@DU?$char_traits@D@std@@V?$allocator@D@2@@std@@@2@V?$allocator@V?$basic_string@DU?$char_traits@D@std@@V?$allocator@D@2@@std@@@2@@std@@QAE?AViterator@12@XZ 0040c400 f i FeatureHandler.obj
 0001:0000b410       ??0?$pair@$$CBV?$basic_string@DU?$char_traits@D@std@@V?$allocator@D@2@@std@@V12@@std@@QAE@ABV?$basic_string@DU?$char_traits@D@std@@V?$allocator@D@2@@1@0@Z 0040c410 f i FeatureHandler.obj
 0001:0000b530       ?_Inc@const_iterator@?$_Tree@V?$basic_string@DU?$char_traits@D@std@@V?$allocator@D@2@@std@@U?$pair@$$CBV?$basic_string@DU?$char_traits@D@std@@V?$allocator@D@2@@std@@UFileData@CHpiHandler@@@2@U_Kfn@?$map@V?$basic_string@DU?$char_traits@D@std@@V?$allocator@D@2@@std@@UFileData@CHpiHandler@@U?$less@V?$basic_string@DU?$char_traits@D@std@@V?$allocator@D@2@@std@@@2@V?$allocator@UFileData@CHpiHandler@@@2@@2@U?$less@V?$basic_string@DU?$char_traits@D@std@@V?$allocator@D@2@@std@@@2@V?$allocator@UFileData@CHpiHandler@@@2@@std@@QAEXXZ 0040c530 f i FeatureHandler.obj
 0001:0000b580       ?erase@?$_Tree@V?$basic_string@DU?$char_traits@D@std@@V?$allocator@D@2@@std@@U?$pair@$$CBV?$basic_string@DU?$char_traits@D@std@@V?$allocator@D@2@@std@@V12@@2@U_Kfn@?$map@V?$basic_string@DU?$char_traits@D@std@@V?$allocator@D@2@@std@@V12@U?$less@V?$basic_string@DU?$char_traits@D@std@@V?$allocator@D@2@@std@@@2@V?$allocator@V?$basic_string@DU?$char_traits@D@std@@V?$allocator@D@2@@std@@@2@@2@U?$less@V?$basic_string@DU?$char_traits@D@std@@V?$allocator@D@2@@std@@@2@V?$allocator@V?$basic_string@DU?$char_traits@D@std@@V?$allocator@D@2@@std@@@2@@std@@QAE?AViterator@12@V312@@Z 0040c580 f i FeatureHandler.obj
 0001:0000b9b0       ?_Erase@?$_Tree@V?$basic_string@DU?$char_traits@D@std@@V?$allocator@D@2@@std@@U?$pair@$$CBV?$basic_string@DU?$char_traits@D@std@@V?$allocator@D@2@@std@@V12@@2@U_Kfn@?$map@V?$basic_string@DU?$char_traits@D@std@@V?$allocator@D@2@@std@@V12@U?$less@V?$basic_string@DU?$char_traits@D@std@@V?$allocator@D@2@@std@@@2@V?$allocator@V?$basic_string@DU?$char_traits@D@std@@V?$allocator@D@2@@std@@@2@@2@U?$less@V?$basic_string@DU?$char_traits@D@std@@V?$allocator@D@2@@std@@@2@V?$allocator@V?$basic_string@DU?$char_traits@D@std@@V?$allocator@D@2@@std@@@2@@std@@IAEXPAU_Node@12@@Z 0040c9b0 f i FeatureHandler.obj
 0001:0000ba00       ?_Insert@?$_Tree@V?$basic_string@DU?$char_traits@D@std@@V?$allocator@D@2@@std@@U?$pair@$$CBV?$basic_string@DU?$char_traits@D@std@@V?$allocator@D@2@@std@@V12@@2@U_Kfn@?$map@V?$basic_string@DU?$char_traits@D@std@@V?$allocator@D@2@@std@@V12@U?$less@V?$basic_string@DU?$char_traits@D@std@@V?$allocator@D@2@@std@@@2@V?$allocator@V?$basic_string@DU?$char_traits@D@std@@V?$allocator@D@2@@std@@@2@@2@U?$less@V?$basic_string@DU?$char_traits@D@std@@V?$allocator@D@2@@std@@@2@V?$allocator@V?$basic_string@DU?$char_traits@D@std@@V?$allocator@D@2@@std@@@2@@std@@IAE?AViterator@12@PAU_Node@12@0ABU?$pair@$$CBV?$basic_string@DU?$char_traits@D@std@@V?$allocator@D@2@@std@@V12@@2@@Z 0040ca00 f i FeatureHandler.obj
 0001:0000bc70       ?_Dec@const_iterator@?$_Tree@V?$basic_string@DU?$char_traits@D@std@@V?$allocator@D@2@@std@@U?$pair@$$CBV?$basic_string@DU?$char_traits@D@std@@V?$allocator@D@2@@std@@V12@@2@U_Kfn@?$map@V?$basic_string@DU?$char_traits@D@std@@V?$allocator@D@2@@std@@V12@U?$less@V?$basic_string@DU?$char_traits@D@std@@V?$allocator@D@2@@std@@@2@V?$allocator@V?$basic_string@DU?$char_traits@D@std@@V?$allocator@D@2@@std@@@2@@2@U?$less@V?$basic_string@DU?$char_traits@D@std@@V?$allocator@D@2@@std@@@2@V?$allocator@V?$basic_string@DU?$char_traits@D@std@@V?$allocator@D@2@@std@@@2@@std@@QAEXXZ 0040cc70 f i FeatureHandler.obj
 0001:0000bcd0       ?_Inc@const_iterator@?$_Tree@V?$basic_string@DU?$char_traits@D@std@@V?$allocator@D@2@@std@@U?$pair@$$CBV?$basic_string@DU?$char_traits@D@std@@V?$allocator@D@2@@std@@V12@@2@U_Kfn@?$map@V?$basic_string@DU?$char_traits@D@std@@V?$allocator@D@2@@std@@V12@U?$less@V?$basic_string@DU?$char_traits@D@std@@V?$allocator@D@2@@std@@@2@V?$allocator@V?$basic_string@DU?$char_traits@D@std@@V?$allocator@D@2@@std@@@2@@2@U?$less@V?$basic_string@DU?$char_traits@D@std@@V?$allocator@D@2@@std@@@2@V?$allocator@V?$basic_string@DU?$char_traits@D@std@@V?$allocator@D@2@@std@@@2@@std@@QAEXXZ 0040ccd0 f i FeatureHandler.obj
 0001:0000bd20       ?_Construct@std@@YAXPAU?$pair@$$CBV?$basic_string@DU?$char_traits@D@std@@V?$allocator@D@2@@std@@V12@@1@ABU21@@Z 0040cd20 f i FeatureHandler.obj
 0001:0000be90       ??0CGaf@@QAE@XZ            0040ce90 f   Gaf.obj
 0001:0000c030       ??1CGaf@@QAE@XZ            0040d030 f   Gaf.obj
 0001:0000c0b0       ?GetGaf@CGaf@@QAEPAEPBD0H@Z 0040d0b0 f   Gaf.obj
 0001:0000c3e0       ?GetGaf@CGaf@@QAEPAEPBDH@Z 0040d3e0 f   Gaf.obj
 0001:0000c690       ?DecodeGaf@CGaf@@AAEPAEPAEPAU_GAFFRAMEDATA@1@@Z 0040d690 f   Gaf.obj
 0001:0000c810       ?PutGafs@CGaf@@AAEXPBD@Z   0040d810 f   Gaf.obj
 0001:0000c9e0       ?MakeLower@CGaf@@QAEXPAD@Z 0040d9e0 f   Gaf.obj
 0001:0000ca10       ?hash_function@@YAHPAXH@Z  0040da10 f   Gaf.obj
 0001:0000ca50       ?hash_compare@@YAHPAX0@Z   0040da50 f   Gaf.obj
 0001:0000ca90       ?hash_freea_alla@@YAXPAX@Z 0040da90 f   Gaf.obj
 0001:0000caa0       ?_Min@?$_Tree@V?$basic_string@DU?$char_traits@D@std@@V?$allocator@D@2@@std@@U?$pair@$$CBV?$basic_string@DU?$char_traits@D@std@@V?$allocator@D@2@@std@@UFileData@CHpiHandler@@@2@U_Kfn@?$map@V?$basic_string@DU?$char_traits@D@std@@V?$allocator@D@2@@std@@UFileData@CHpiHandler@@U?$less@V?$basic_string@DU?$char_traits@D@std@@V?$allocator@D@2@@std@@@2@V?$allocator@UFileData@CHpiHandler@@@2@@2@U?$less@V?$basic_string@DU?$char_traits@D@std@@V?$allocator@D@2@@std@@@2@V?$allocator@UFileData@CHpiHandler@@@2@@std@@KAPAU_Node@12@PAU312@@Z 0040daa0 f i Gaf.obj
 0001:0000cb40       ??0CGame@@QAE@_N@Z         0040db40 f   Game.obj
 0001:0000d380       ??0float3@@QAE@XZ          0040e380 f i Game.obj
 0001:0000d390       ??_GCGame@@UAEPAXI@Z       0040e390 f i Game.obj
 0001:0000d390       ??_ECGame@@UAEPAXI@Z       0040e390 f i Game.obj
 0001:0000d3b0       ??1CGame@@UAE@XZ           0040e3b0 f   Game.obj
 0001:0000d580       ?KeyPressed@CGame@@QAEHE@Z 0040e580 f   Game.obj
 0001:0000e540       ??_D?$basic_ifstream@DU?$char_traits@D@std@@@std@@QAEXXZ 0040f540 f i Game.obj
 0001:0000e560       ?KeyReleased@CGame@@QAEHE@Z 0040f560 f   Game.obj
 0001:0000e7f0       ?Update@CGame@@QAE_NXZ     0040f7f0 f   Game.obj
 0001:0000ea00       ?Draw@CGame@@QAE_NXZ       0040fa00 f   Game.obj
 0001:0000f030       ?StartPlaying@CGame@@QAEHXZ 00410030 f   Game.obj
 0001:0000f060       ?SimFrame@CGame@@QAEHXZ    00410060 f   Game.obj
 0001:0000f0e0       ?UpdateUI@CGame@@QAEXXZ    004100e0 f   Game.obj
 0001:0000f3f0       ??1?$basic_istream@DU?$char_traits@D@std@@@std@@UAE@XZ 004103f0 f i Game.obj
 0001:0000f400       ??1?$basic_ifstream@DU?$char_traits@D@std@@@std@@UAE@XZ 00410400 f i Game.obj
 0001:0000f500       ??_E?$basic_istream@DU?$char_traits@D@std@@@std@@UAEPAXI@Z 00410500 f i Game.obj
 0001:0000f500       ??_G?$basic_istream@DU?$char_traits@D@std@@@std@@UAEPAXI@Z 00410500 f i Game.obj
 0001:0000f530       ??_E?$basic_ifstream@DU?$char_traits@D@std@@@std@@UAEPAXI@Z 00410530 f i Game.obj
 0001:0000f530       ??_G?$basic_ifstream@DU?$char_traits@D@std@@@std@@UAEPAXI@Z 00410530 f i Game.obj
 0001:0000f560       ??0?$basic_istream@DU?$char_traits@D@std@@@std@@QAE@PAV?$basic_streambuf@DU?$char_traits@D@std@@@1@_N@Z 00410560 f i Game.obj
 0001:0000f610       ?open@?$basic_filebuf@DU?$char_traits@D@std@@@std@@QAEPAV12@PBDH@Z 00410610 f i Game.obj
 0001:0000f6e0       ?append@?$basic_string@DU?$char_traits@D@std@@V?$allocator@D@2@@std@@QAEAAV12@PBDI@Z 004106e0 f i Game.obj
 0001:0000f7a0       ??0?$basic_streambuf@DU?$char_traits@D@std@@@std@@IAE@XZ 004107a0 f i Game.obj
 0001:0000f820       ??Hstd@@YA?AV?$basic_string@DU?$char_traits@D@std@@V?$allocator@D@2@@0@ABV10@PBD@Z 00410820 f i Game.obj
 0001:0000f950       ?compare@?$basic_string@DU?$char_traits@D@std@@V?$allocator@D@2@@std@@QBEHIIPBDI@Z 00410950 f i Game.obj
 0001:0000fa00       ??0CglFont@@QAE@PAUHDC__@@HH@Z 00410a00 f   glFont.obj
 0001:00010130       ??_GCglFont@@UAEPAXI@Z     00411130 f i glFont.obj
 0001:00010130       ??_ECglFont@@UAEPAXI@Z     00411130 f i glFont.obj
 0001:00010180       ??1CglFont@@UAE@XZ         00411180 f   glFont.obj
 0001:000101b0       ?glPrint@CglFont@@QAAXPBDZZ 004111b0 f   glFont.obj
 0001:00010240       ?glWorldPrint@CglFont@@QAAXPBDZZ 00411240 f   glFont.obj
 0001:00010320       ?WorldChar@CglFont@@AAEHD@Z 00411320 f   glFont.obj
 0001:00010450       ?read@?$basic_istream@DU?$char_traits@D@std@@@std@@QAEAAV12@PADH@Z 00411450 f i glFont.obj
 0001:00010530       ?clear@?$basic_ios@DU?$char_traits@D@std@@@std@@QAEXH_N@Z 00411530 f i glFont.obj
 0001:00010550       ?ipfx@?$basic_istream@DU?$char_traits@D@std@@@std@@QAE_N_N@Z 00411550 f i glFont.obj
 0001:000107c0       ??Bid@locale@std@@QAEIXZ   004117c0 f i glFont.obj
 0001:000107e0       ??0?$ctype@D@std@@QAE@PBF_NI@Z 004117e0 f i glFont.obj
 0001:000108e0       ??1ctype_base@std@@UAE@XZ  004118e0 f i glFont.obj
 0001:000108f0       ?_Term@?$ctype@D@std@@KAXXZ 004118f0 f i glFont.obj
 0001:00010900       ?do_tolower@?$ctype@D@std@@MBEDD@Z 00411900 f i glFont.obj
 0001:00010920       ?do_tolower@?$ctype@D@std@@MBEPBDPADPBD@Z 00411920 f i glFont.obj
 0001:00010960       ?do_toupper@?$ctype@D@std@@MBEDD@Z 00411960 f i glFont.obj
 0001:00010980       ?do_toupper@?$ctype@D@std@@MBEPBDPADPBD@Z 00411980 f i glFont.obj
 0001:000109c0       ??_E?$ctype@D@std@@UAEPAXI@Z 004119c0 f i glFont.obj
 0001:000109c0       ??_G?$ctype@D@std@@UAEPAXI@Z 004119c0 f i glFont.obj
 0001:000109e0       ??1?$ctype@D@std@@UAE@XZ   004119e0 f i glFont.obj
 0001:00010a10       ?getloc@ios_base@std@@QBE?AVlocale@2@XZ 00411a10 f i glFont.obj
 0001:00010a40       ?sgetc@?$basic_streambuf@DU?$char_traits@D@std@@@std@@QAEHXZ 00411a40 f i glFont.obj
 0001:00010a60       ?init@?$basic_ios@DU?$char_traits@D@std@@@std@@IAEXPAV?$basic_streambuf@DU?$char_traits@D@std@@@2@_N@Z 00411a60 f i glFont.obj
 0001:00010ab0       ?_Save@?$_Tidyfac@V?$ctype@D@std@@@std@@SAPAV?$ctype@D@2@PAV32@@Z 00411ab0 f i glFont.obj
 0001:00010ae0       ?_Tidy@?$_Tidyfac@V?$ctype@D@std@@@std@@SAXXZ 00411ae0 f i glFont.obj
 0001:00010b80       ??1CglList@@UAE@XZ         00411b80 f   glList.obj
 0001:00010c80       ??_GCglList@@UAEPAXI@Z     00411c80 f i glList.obj
 0001:00010c80       ??_ECglList@@UAEPAXI@Z     00411c80 f i glList.obj
 0001:00010ca0       ??0CglList@@QAE@PADP6AXV?$basic_string@DU?$char_traits@D@std@@V?$allocator@D@2@@std@@@Z@Z 00411ca0 f   glList.obj
 0001:00010e80       ?AddItem@CglList@@QAEHPBD0@Z 00411e80 f   glList.obj
 0001:00010f80       ?Draw@CglList@@QAEHXZ      00411f80 f   glList.obj
 0001:000110f0       ?UpOne@CglList@@QAEHXZ     004120f0 f   glList.obj
 0001:00011100       ?DownOne@CglList@@QAEHXZ   00412100 f   glList.obj
 0001:00011150       ?Select@CglList@@QAEXXZ    00412150 f   glList.obj
 0001:000112b0       ??1?$vector@V?$basic_string@DU?$char_traits@D@std@@V?$allocator@D@2@@std@@V?$allocator@V?$basic_string@DU?$char_traits@D@std@@V?$allocator@D@2@@std@@@2@@std@@QAE@XZ 004122b0 f i glList.obj
 0001:00011310       ??A?$vector@V?$basic_string@DU?$char_traits@D@std@@V?$allocator@D@2@@std@@V?$allocator@V?$basic_string@DU?$char_traits@D@std@@V?$allocator@D@2@@std@@@2@@std@@QAEAAV?$basic_string@DU?$char_traits@D@std@@V?$allocator@D@2@@1@I@Z 00412310 f i glList.obj
 0001:00011320       ?insert@?$vector@V?$basic_string@DU?$char_traits@D@std@@V?$allocator@D@2@@std@@V?$allocator@V?$basic_string@DU?$char_traits@D@std@@V?$allocator@D@2@@std@@@2@@std@@QAEXPAV?$basic_string@DU?$char_traits@D@std@@V?$allocator@D@2@@2@IABV32@@Z 00412320 f i glList.obj
 0001:000115d0       ?_Construct@std@@YAXPAV?$basic_string@DU?$char_traits@D@std@@V?$allocator@D@2@@1@ABV21@@Z 004125d0 f i glList.obj
 0001:000117b0       ?myrand@@YAHXZ             004127b0 f   GlobalStuff.obj
 0001:000117e0       ??0CGlobalStuff@@QAE@XZ    004127e0 f   GlobalStuff.obj
 0001:00011a10       ??_ECGlobalStuff@@UAEPAXI@Z 00412a10 f i GlobalStuff.obj
 0001:00011a10       ??_GCGlobalStuff@@UAEPAXI@Z 00412a10 f i GlobalStuff.obj
 0001:00011a50       ??1CGlobalStuff@@UAE@XZ    00412a50 f   GlobalStuff.obj
 0001:00011ae0       ??0CGround@@QAE@XZ         00412ae0 f   Ground.obj
 0001:00011b40       ??_ECGround@@UAEPAXI@Z     00412b40 f i Ground.obj
 0001:00011b40       ??_GCGround@@UAEPAXI@Z     00412b40 f i Ground.obj
 0001:00011b60       ??1CGround@@UAE@XZ         00412b60 f   Ground.obj
 0001:00011be0       ?LineGroundCol@CGround@@QAEMABVfloat3@@0_N@Z 00412be0 f   Ground.obj
 0001:000120e0       ?LineGroundSquareCol@CGround@@AAEMABVfloat3@@0HH@Z 004130e0 f   Ground.obj
 0001:000124b0       ?GetHeight@CGround@@QAEMMM@Z 004134b0 f   Ground.obj
 0001:00012580       ?GetNormal@CGround@@QAEAAVfloat3@@MM@Z 00413580 f   Ground.obj
 0001:00012640       ?GetApproximateHeight@CGround@@QAEMMM@Z 00413640 f   Ground.obj
 0001:000126d0       ?GetSlope@CGround@@QAEMMM@Z 004136d0 f   Ground.obj
 0001:00012720       ?GetSmoothNormal@CGround@@QAE?AVfloat3@@MM@Z 00413720 f   Ground.obj
 0001:00012930       ?CheckTreeCol@CGround@@QAEMABVfloat3@@0HH@Z 00413930 f   Ground.obj
 0001:00013110       ?TestHinder@CGround@@QAE?AVfloat3@@AAV2@0MM@Z 00414110 f   Ground.obj
 0001:00013320       ?TestHinderSquare@CGround@@QAE?AVfloat3@@AAV2@0HHMMM@Z 00414320 f   Ground.obj
 0001:00013620       ?AddHinder@CGround@@QAEXAAVfloat3@@M@Z 00414620 f   Ground.obj
 0001:00013690       ??1SHinder@CGround@@QAE@XZ 00414690 f i Ground.obj
 0001:000136a0       ??1?$vector@USHinder@CGround@@V?$allocator@USHinder@CGround@@@std@@@std@@QAE@XZ 004146a0 f i Ground.obj
 0001:000136e0       ?insert@?$vector@USHinder@CGround@@V?$allocator@USHinder@CGround@@@std@@@std@@QAEXPAUSHinder@CGround@@IABU34@@Z 004146e0 f i Ground.obj
 0001:00013a80       ??0CGroundDrawer@@QAE@XZ   00414a80 f   GroundDrawer.obj
 0001:00013c70       ??_ECGroundDrawer@@UAEPAXI@Z 00414c70 f i GroundDrawer.obj
 0001:00013c70       ??_GCGroundDrawer@@UAEPAXI@Z 00414c70 f i GroundDrawer.obj
 0001:00013c90       ??1CGroundDrawer@@UAE@XZ   00414c90 f   GroundDrawer.obj
 0001:00013d30       ?Draw@CGroundDrawer@@QAEXXZ 00414d30 f   GroundDrawer.obj
 0001:00018d10       ??0float3@@QAE@MMM@Z       00419d10 f i GroundDrawer.obj
 0001:00018ed0       ?AddFrustumRestraint@CGroundDrawer@@IAEHVfloat3@@@Z 00419ed0 f   GroundDrawer.obj
 0001:00019020       ?PrepareTex@CGroundDrawer@@QAEXHAAVfloat3@@@Z 0041a020 f   GroundDrawer.obj
 0001:000192c0       ?MemBlit@CGroundDrawer@@QAEXPAE0HHH@Z 0041a2c0 f   GroundDrawer.obj
 0001:00019300       ?FillTexArea@CGroundDrawer@@QAEXHHHHH@Z 0041a300 f   GroundDrawer.obj
 0001:000198a0       ?MemBlitFeature@CGroundDrawer@@QAEXPAX0HHHH@Z 0041a8a0 f   GroundDrawer.obj
 0001:00019970       ??1?$vector@Ufline@CGroundDrawer@@V?$allocator@Ufline@CGroundDrawer@@@std@@@std@@QAE@XZ 0041a970 f i GroundDrawer.obj
 0001:000199a0       ?insert@?$vector@Ufline@CGroundDrawer@@V?$allocator@Ufline@CGroundDrawer@@@std@@@std@@QAEPAUfline@CGroundDrawer@@PAU34@ABU34@@Z 0041a9a0 f i GroundDrawer.obj
 0001:00019b50       ?_Destroy@?$vector@Ufline@CGroundDrawer@@V?$allocator@Ufline@CGroundDrawer@@@std@@@std@@IAEXPAUfline@CGroundDrawer@@0@Z 0041ab50 f i GroundDrawer.obj
 0001:00019b60       ?insert@?$vector@Ufline@CGroundDrawer@@V?$allocator@Ufline@CGroundDrawer@@@std@@@std@@QAEXPAUfline@CGroundDrawer@@IABU34@@Z 0041ab60 f i GroundDrawer.obj
 0001:00019da0       ?size@?$vector@Ufline@CGroundDrawer@@V?$allocator@Ufline@CGroundDrawer@@@std@@@std@@QBEIXZ 0041ada0 f i GroundDrawer.obj
 0001:00019dc0       ?_Ucopy@?$vector@Ufline@CGroundDrawer@@V?$allocator@Ufline@CGroundDrawer@@@std@@@std@@IAEPAUfline@CGroundDrawer@@PBU34@0PAU34@@Z 0041adc0 f i GroundDrawer.obj
 0001:00019e00       ?_Ufill@?$vector@Ufline@CGroundDrawer@@V?$allocator@Ufline@CGroundDrawer@@@std@@@std@@IAEXPAUfline@CGroundDrawer@@IABU34@@Z 0041ae00 f i GroundDrawer.obj
 0001:00019e30       ?copy@std@@YAPAUfline@CGroundDrawer@@PAU23@00@Z 0041ae30 f i GroundDrawer.obj
 0001:00019e60       ?_Construct@std@@YAXPAUfline@CGroundDrawer@@ABU23@@Z 0041ae60 f i GroundDrawer.obj
 0001:00019f00       ??0CGuiKeyReader@@QAE@PAD@Z 0041af00 f   GuiKeyReader.obj
 0001:0001a900       ??_ECGuiKeyReader@@UAEPAXI@Z 0041b900 f i GuiKeyReader.obj
 0001:0001a900       ??_GCGuiKeyReader@@UAEPAXI@Z 0041b900 f i GuiKeyReader.obj
 0001:0001a920       ??1?$map@HV?$basic_string@DU?$char_traits@D@std@@V?$allocator@D@2@@std@@U?$less@H@2@V?$allocator@V?$basic_string@DU?$char_traits@D@std@@V?$allocator@D@2@@std@@@2@@std@@QAE@XZ 0041b920 f i GuiKeyReader.obj
 0001:0001a9e0       ??1?$map@V?$basic_string@DU?$char_traits@D@std@@V?$allocator@D@2@@std@@HU?$less@V?$basic_string@DU?$char_traits@D@std@@V?$allocator@D@2@@std@@@2@V?$allocator@H@2@@std@@QAE@XZ 0041b9e0 f i GuiKeyReader.obj
 0001:0001aaa0       ??1CGuiKeyReader@@UAE@XZ   0041baa0 f   GuiKeyReader.obj
 0001:0001ac80       ?TranslateKey@CGuiKeyReader@@QAE?AV?$basic_string@DU?$char_traits@D@std@@V?$allocator@D@2@@std@@H@Z 0041bc80 f   GuiKeyReader.obj
 0001:0001ae00       ?CreateKeyNames@CGuiKeyReader@@IAEXXZ 0041be00 f   GuiKeyReader.obj
 0001:0001ca40       ?GetKey@CGuiKeyReader@@QAEHV?$basic_string@DU?$char_traits@D@std@@V?$allocator@D@2@@std@@@Z 0041da40 f   GuiKeyReader.obj
 0001:0001cbc0       ??0?$basic_string@DU?$char_traits@D@std@@V?$allocator@D@2@@std@@QAE@ABV?$allocator@D@1@@Z 0041dbc0 f i GuiKeyReader.obj
 0001:0001cbe0       ?end@?$basic_string@DU?$char_traits@D@std@@V?$allocator@D@2@@std@@QAEPADXZ 0041dbe0 f i GuiKeyReader.obj
 0001:0001cc70       ?getline@?$basic_istream@DU?$char_traits@D@std@@@std@@QAEAAV12@PADH@Z 0041dc70 f i GuiKeyReader.obj
 0001:0001cca0       ?peek@?$basic_istream@DU?$char_traits@D@std@@@std@@QAEHXZ 0041dca0 f i GuiKeyReader.obj
 0001:0001cd90       ??A?$map@V?$basic_string@DU?$char_traits@D@std@@V?$allocator@D@2@@std@@HU?$less@V?$basic_string@DU?$char_traits@D@std@@V?$allocator@D@2@@std@@@2@V?$allocator@H@2@@std@@QAEAAHABV?$basic_string@DU?$char_traits@D@std@@V?$allocator@D@2@@1@@Z 0041dd90 f i GuiKeyReader.obj
 0001:0001ce60       ??1?$pair@$$CBHV?$basic_string@DU?$char_traits@D@std@@V?$allocator@D@2@@std@@@std@@QAE@XZ 0041de60 f i GuiKeyReader.obj
 0001:0001cea0       ??1?$pair@$$CBV?$basic_string@DU?$char_traits@D@std@@V?$allocator@D@2@@std@@H@std@@QAE@XZ 0041dea0 f i GuiKeyReader.obj
 0001:0001cee0       ?widen@?$basic_ios@DU?$char_traits@D@std@@@std@@QBEDD@Z 0041dee0 f i GuiKeyReader.obj
 0001:0001d020       ??0?$basic_ios@DU?$char_traits@D@std@@@std@@IAE@XZ 0041e020 f i GuiKeyReader.obj
 0001:0001d030       ?getline@?$basic_istream@DU?$char_traits@D@std@@@std@@QAEAAV12@PADHD@Z 0041e030 f i GuiKeyReader.obj
 0001:0001d1f0       ?insert@?$map@HV?$basic_string@DU?$char_traits@D@std@@V?$allocator@D@2@@std@@U?$less@H@2@V?$allocator@V?$basic_string@DU?$char_traits@D@std@@V?$allocator@D@2@@std@@@2@@std@@QAE?AU?$pair@Viterator@?$_Tree@HU?$pair@$$CBHV?$basic_string@DU?$char_traits@D@std@@V?$allocator@D@2@@std@@@std@@U_Kfn@?$map@HV?$basic_string@DU?$char_traits@D@std@@V?$allocator@D@2@@std@@U?$less@H@2@V?$allocator@V?$basic_string@DU?$char_traits@D@std@@V?$allocator@D@2@@std@@@2@@2@U?$less@H@2@V?$allocator@V?$basic_string@DU?$char_traits@D@std@@V?$allocator@D@2@@std@@@2@@std@@_N@2@ABU?$pair@$$CBHV?$basic_string@DU?$char_traits@D@std@@V?$allocator@D@2@@std@@@2@@Z 0041e1f0 f i GuiKeyReader.obj
 0001:0001d2e0       ??0?$_Tree@HU?$pair@$$CBHV?$basic_string@DU?$char_traits@D@std@@V?$allocator@D@2@@std@@@std@@U_Kfn@?$map@HV?$basic_string@DU?$char_traits@D@std@@V?$allocator@D@2@@std@@U?$less@H@2@V?$allocator@V?$basic_string@DU?$char_traits@D@std@@V?$allocator@D@2@@std@@@2@@2@U?$less@H@2@V?$allocator@V?$basic_string@DU?$char_traits@D@std@@V?$allocator@D@2@@std@@@2@@std@@QAE@ABU?$less@H@1@_NABV?$allocator@V?$basic_string@DU?$char_traits@D@std@@V?$allocator@D@2@@std@@@1@@Z 0041e2e0 f i GuiKeyReader.obj
 0001:0001d310       ?begin@?$_Tree@HU?$pair@$$CBHV?$basic_string@DU?$char_traits@D@std@@V?$allocator@D@2@@std@@@std@@U_Kfn@?$map@HV?$basic_string@DU?$char_traits@D@std@@V?$allocator@D@2@@std@@U?$less@H@2@V?$allocator@V?$basic_string@DU?$char_traits@D@std@@V?$allocator@D@2@@std@@@2@@2@U?$less@H@2@V?$allocator@V?$basic_string@DU?$char_traits@D@std@@V?$allocator@D@2@@std@@@2@@std@@QAE?AViterator@12@XZ 0041e310 f i GuiKeyReader.obj
 0001:0001d320       ??0?$pair@$$CBHV?$basic_string@DU?$char_traits@D@std@@V?$allocator@D@2@@std@@@std@@QAE@ABHABV?$basic_string@DU?$char_traits@D@std@@V?$allocator@D@2@@1@@Z 0041e320 f i GuiKeyReader.obj
 0001:0001d450       ?insert@?$map@V?$basic_string@DU?$char_traits@D@std@@V?$allocator@D@2@@std@@HU?$less@V?$basic_string@DU?$char_traits@D@std@@V?$allocator@D@2@@std@@@2@V?$allocator@H@2@@std@@QAE?AU?$pair@Viterator@?$_Tree@V?$basic_string@DU?$char_traits@D@std@@V?$allocator@D@2@@std@@U?$pair@$$CBV?$basic_string@DU?$char_traits@D@std@@V?$allocator@D@2@@std@@H@2@U_Kfn@?$map@V?$basic_string@DU?$char_traits@D@std@@V?$allocator@D@2@@std@@HU?$less@V?$basic_string@DU?$char_traits@D@std@@V?$allocator@D@2@@std@@@2@V?$allocator@H@2@@2@U?$less@V?$basic_string@DU?$char_traits@D@std@@V?$allocator@D@2@@std@@@2@V?$allocator@H@2@@std@@_N@2@ABU?$pair@$$CBV?$basic_string@DU?$char_traits@D@std@@V?$allocator@D@2@@std@@H@2@@Z 0041e450 f i GuiKeyReader.obj
 0001:0001d550       ??0?$_Tree@V?$basic_string@DU?$char_traits@D@std@@V?$allocator@D@2@@std@@U?$pair@$$CBV?$basic_string@DU?$char_traits@D@std@@V?$allocator@D@2@@std@@H@2@U_Kfn@?$map@V?$basic_string@DU?$char_traits@D@std@@V?$allocator@D@2@@std@@HU?$less@V?$basic_string@DU?$char_traits@D@std@@V?$allocator@D@2@@std@@@2@V?$allocator@H@2@@2@U?$less@V?$basic_string@DU?$char_traits@D@std@@V?$allocator@D@2@@std@@@2@V?$allocator@H@2@@std@@QAE@ABU?$less@V?$basic_string@DU?$char_traits@D@std@@V?$allocator@D@2@@std@@@1@_NABV?$allocator@H@1@@Z 0041e550 f i GuiKeyReader.obj
 0001:0001d580       ?begin@?$_Tree@V?$basic_string@DU?$char_traits@D@std@@V?$allocator@D@2@@std@@U?$pair@$$CBV?$basic_string@DU?$char_traits@D@std@@V?$allocator@D@2@@std@@H@2@U_Kfn@?$map@V?$basic_string@DU?$char_traits@D@std@@V?$allocator@D@2@@std@@HU?$less@V?$basic_string@DU?$char_traits@D@std@@V?$allocator@D@2@@std@@@2@V?$allocator@H@2@@2@U?$less@V?$basic_string@DU?$char_traits@D@std@@V?$allocator@D@2@@std@@@2@V?$allocator@H@2@@std@@QAE?AViterator@12@XZ 0041e580 f i GuiKeyReader.obj
 0001:0001d590       ??0?$pair@$$CBV?$basic_string@DU?$char_traits@D@std@@V?$allocator@D@2@@std@@H@std@@QAE@ABV?$basic_string@DU?$char_traits@D@std@@V?$allocator@D@2@@1@ABH@Z 0041e590 f i GuiKeyReader.obj
 0001:0001d6d0       ?insert@?$_Tree@HU?$pair@$$CBHV?$basic_string@DU?$char_traits@D@std@@V?$allocator@D@2@@std@@@std@@U_Kfn@?$map@HV?$basic_string@DU?$char_traits@D@std@@V?$allocator@D@2@@std@@U?$less@H@2@V?$allocator@V?$basic_string@DU?$char_traits@D@std@@V?$allocator@D@2@@std@@@2@@2@U?$less@H@2@V?$allocator@V?$basic_string@DU?$char_traits@D@std@@V?$allocator@D@2@@std@@@2@@std@@QAE?AU?$pair@Viterator@?$_Tree@HU?$pair@$$CBHV?$basic_string@DU?$char_traits@D@std@@V?$allocator@D@2@@std@@@std@@U_Kfn@?$map@HV?$basic_string@DU?$char_traits@D@std@@V?$allocator@D@2@@std@@U?$less@H@2@V?$allocator@V?$basic_string@DU?$char_traits@D@std@@V?$allocator@D@2@@std@@@2@@2@U?$less@H@2@V?$allocator@V?$basic_string@DU?$char_traits@D@std@@V?$allocator@D@2@@std@@@2@@std@@_N@2@ABU?$pair@$$CBHV?$basic_string@DU?$char_traits@D@std@@V?$allocator@D@2@@std@@@2@@Z 0041e6d0 f i GuiKeyReader.obj
 0001:0001d910       ?erase@?$_Tree@HU?$pair@$$CBHV?$basic_string@DU?$char_traits@D@std@@V?$allocator@D@2@@std@@@std@@U_Kfn@?$map@HV?$basic_string@DU?$char_traits@D@std@@V?$allocator@D@2@@std@@U?$less@H@2@V?$allocator@V?$basic_string@DU?$char_traits@D@std@@V?$allocator@D@2@@std@@@2@@2@U?$less@H@2@V?$allocator@V?$basic_string@DU?$char_traits@D@std@@V?$allocator@D@2@@std@@@2@@std@@QAE?AViterator@12@V312@@Z 0041e910 f i GuiKeyReader.obj
 0001:0001dd10       ?_Erase@?$_Tree@HU?$pair@$$CBHV?$basic_string@DU?$char_traits@D@std@@V?$allocator@D@2@@std@@@std@@U_Kfn@?$map@HV?$basic_string@DU?$char_traits@D@std@@V?$allocator@D@2@@std@@U?$less@H@2@V?$allocator@V?$basic_string@DU?$char_traits@D@std@@V?$allocator@D@2@@std@@@2@@2@U?$less@H@2@V?$allocator@V?$basic_string@DU?$char_traits@D@std@@V?$allocator@D@2@@std@@@2@@std@@IAEXPAU_Node@12@@Z 0041ed10 f i GuiKeyReader.obj
 0001:0001dd60       ?_Init@?$_Tree@HU?$pair@$$CBHV?$basic_string@DU?$char_traits@D@std@@V?$allocator@D@2@@std@@@std@@U_Kfn@?$map@HV?$basic_string@DU?$char_traits@D@std@@V?$allocator@D@2@@std@@U?$less@H@2@V?$allocator@V?$basic_string@DU?$char_traits@D@std@@V?$allocator@D@2@@std@@@2@@2@U?$less@H@2@V?$allocator@V?$basic_string@DU?$char_traits@D@std@@V?$allocator@D@2@@std@@@2@@std@@IAEXXZ 0041ed60 f i GuiKeyReader.obj
 0001:0001dde0       ??Eiterator@?$_Tree@HU?$pair@$$CBHV?$basic_string@DU?$char_traits@D@std@@V?$allocator@D@2@@std@@@std@@U_Kfn@?$map@HV?$basic_string@DU?$char_traits@D@std@@V?$allocator@D@2@@std@@U?$less@H@2@V?$allocator@V?$basic_string@DU?$char_traits@D@std@@V?$allocator@D@2@@std@@@2@@2@U?$less@H@2@V?$allocator@V?$basic_string@DU?$char_traits@D@std@@V?$allocator@D@2@@std@@@2@@std@@QAE?AV012@H@Z 0041ede0 f i GuiKeyReader.obj
 0001:0001de40       ?insert@?$_Tree@V?$basic_string@DU?$char_traits@D@std@@V?$allocator@D@2@@std@@U?$pair@$$CBV?$basic_string@DU?$char_traits@D@std@@V?$allocator@D@2@@std@@H@2@U_Kfn@?$map@V?$basic_string@DU?$char_traits@D@std@@V?$allocator@D@2@@std@@HU?$less@V?$basic_string@DU?$char_traits@D@std@@V?$allocator@D@2@@std@@@2@V?$allocator@H@2@@2@U?$less@V?$basic_string@DU?$char_traits@D@std@@V?$allocator@D@2@@std@@@2@V?$allocator@H@2@@std@@QAE?AU?$pair@Viterator@?$_Tree@V?$basic_string@DU?$char_traits@D@std@@V?$allocator@D@2@@std@@U?$pair@$$CBV?$basic_string@DU?$char_traits@D@std@@V?$allocator@D@2@@std@@H@2@U_Kfn@?$map@V?$basic_string@DU?$char_traits@D@std@@V?$allocator@D@2@@std@@HU?$less@V?$basic_string@DU?$char_traits@D@std@@V?$allocator@D@2@@std@@@2@V?$allocator@H@2@@2@U?$less@V?$basic_string@DU?$char_traits@D@std@@V?$allocator@D@2@@std@@@2@V?$allocator@H@2@@std@@_N@2@ABU?$pair@$$CBV?$basic_string@DU?$char_traits@D@std@@V?$allocator@D@2@@std@@H@2@@Z 0041ee40 f i GuiKeyReader.obj
 0001:0001e0a0       ?erase@?$_Tree@V?$basic_string@DU?$char_traits@D@std@@V?$allocator@D@2@@std@@U?$pair@$$CBV?$basic_string@DU?$char_traits@D@std@@V?$allocator@D@2@@std@@H@2@U_Kfn@?$map@V?$basic_string@DU?$char_traits@D@std@@V?$allocator@D@2@@std@@HU?$less@V?$basic_string@DU?$char_traits@D@std@@V?$allocator@D@2@@std@@@2@V?$allocator@H@2@@2@U?$less@V?$basic_string@DU?$char_traits@D@std@@V?$allocator@D@2@@std@@@2@V?$allocator@H@2@@std@@QAE?AViterator@12@V312@@Z 0041f0a0 f i GuiKeyReader.obj
 0001:0001e4a0       ?_Erase@?$_Tree@V?$basic_string@DU?$char_traits@D@std@@V?$allocator@D@2@@std@@U?$pair@$$CBV?$basic_string@DU?$char_traits@D@std@@V?$allocator@D@2@@std@@H@2@U_Kfn@?$map@V?$basic_string@DU?$char_traits@D@std@@V?$allocator@D@2@@std@@HU?$less@V?$basic_string@DU?$char_traits@D@std@@V?$allocator@D@2@@std@@@2@V?$allocator@H@2@@2@U?$less@V?$basic_string@DU?$char_traits@D@std@@V?$allocator@D@2@@std@@@2@V?$allocator@H@2@@std@@IAEXPAU_Node@12@@Z 0041f4a0 f i GuiKeyReader.obj
 0001:0001e4f0       ?_Init@?$_Tree@V?$basic_string@DU?$char_traits@D@std@@V?$allocator@D@2@@std@@U?$pair@$$CBV?$basic_string@DU?$char_traits@D@std@@V?$allocator@D@2@@std@@H@2@U_Kfn@?$map@V?$basic_string@DU?$char_traits@D@std@@V?$allocator@D@2@@std@@HU?$less@V?$basic_string@DU?$char_traits@D@std@@V?$allocator@D@2@@std@@@2@V?$allocator@H@2@@2@U?$less@V?$basic_string@DU?$char_traits@D@std@@V?$allocator@D@2@@std@@@2@V?$allocator@H@2@@std@@IAEXXZ 0041f4f0 f i GuiKeyReader.obj
 0001:0001e570       ??Eiterator@?$_Tree@V?$basic_string@DU?$char_traits@D@std@@V?$allocator@D@2@@std@@U?$pair@$$CBV?$basic_string@DU?$char_traits@D@std@@V?$allocator@D@2@@std@@H@2@U_Kfn@?$map@V?$basic_string@DU?$char_traits@D@std@@V?$allocator@D@2@@std@@HU?$less@V?$basic_string@DU?$char_traits@D@std@@V?$allocator@D@2@@std@@@2@V?$allocator@H@2@@2@U?$less@V?$basic_string@DU?$char_traits@D@std@@V?$allocator@D@2@@std@@@2@V?$allocator@H@2@@std@@QAE?AV012@H@Z 0041f570 f i GuiKeyReader.obj
 0001:0001e5d0       ??0?$pair@Viterator@?$_Tree@V?$basic_string@DU?$char_traits@D@std@@V?$allocator@D@2@@std@@U?$pair@$$CBV?$basic_string@DU?$char_traits@D@std@@V?$allocator@D@2@@std@@H@2@U_Kfn@?$map@V?$basic_string@DU?$char_traits@D@std@@V?$allocator@D@2@@std@@HU?$less@V?$basic_string@DU?$char_traits@D@std@@V?$allocator@D@2@@std@@@2@V?$allocator@H@2@@2@U?$less@V?$basic_string@DU?$char_traits@D@std@@V?$allocator@D@2@@std@@@2@V?$allocator@H@2@@std@@_N@std@@QAE@ABViterator@?$_Tree@V?$basic_string@DU?$char_traits@D@std@@V?$allocator@D@2@@std@@U?$pair@$$CBV?$basic_string@DU?$char_traits@D@std@@V?$allocator@D@2@@std@@H@2@U_Kfn@?$map@V?$basic_string@DU?$char_traits@D@std@@V?$allocator@D@2@@std@@HU?$less@V?$basic_string@DU?$char_traits@D@std@@V?$allocator@D@2@@std@@@2@V?$allocator@H@2@@2@U?$less@V?$basic_string@DU?$char_traits@D@std@@V?$allocator@D@2@@std@@@2@V?$allocator@H@2@@1@AB_N@Z 0041f5d0 f i GuiKeyReader.obj
 0001:0001e5f0       ?_Insert@?$_Tree@HU?$pair@$$CBHV?$basic_string@DU?$char_traits@D@std@@V?$allocator@D@2@@std@@@std@@U_Kfn@?$map@HV?$basic_string@DU?$char_traits@D@std@@V?$allocator@D@2@@std@@U?$less@H@2@V?$allocator@V?$basic_string@DU?$char_traits@D@std@@V?$allocator@D@2@@std@@@2@@2@U?$less@H@2@V?$allocator@V?$basic_string@DU?$char_traits@D@std@@V?$allocator@D@2@@std@@@2@@std@@IAE?AViterator@12@PAU_Node@12@0ABU?$pair@$$CBHV?$basic_string@DU?$char_traits@D@std@@V?$allocator@D@2@@std@@@2@@Z 0041f5f0 f i GuiKeyReader.obj
 0001:0001e860       ?_Lrotate@?$_Tree@HU?$pair@$$CBHV?$basic_string@DU?$char_traits@D@std@@V?$allocator@D@2@@std@@@std@@U_Kfn@?$map@HV?$basic_string@DU?$char_traits@D@std@@V?$allocator@D@2@@std@@U?$less@H@2@V?$allocator@V?$basic_string@DU?$char_traits@D@std@@V?$allocator@D@2@@std@@@2@@2@U?$less@H@2@V?$allocator@V?$basic_string@DU?$char_traits@D@std@@V?$allocator@D@2@@std@@@2@@std@@IAEXPAU_Node@12@@Z 0041f860 f i GuiKeyReader.obj
 0001:0001e8c0       ?_Rrotate@?$_Tree@HU?$pair@$$CBHV?$basic_string@DU?$char_traits@D@std@@V?$allocator@D@2@@std@@@std@@U_Kfn@?$map@HV?$basic_string@DU?$char_traits@D@std@@V?$allocator@D@2@@std@@U?$less@H@2@V?$allocator@V?$basic_string@DU?$char_traits@D@std@@V?$allocator@D@2@@std@@@2@@2@U?$less@H@2@V?$allocator@V?$basic_string@DU?$char_traits@D@std@@V?$allocator@D@2@@std@@@2@@std@@IAEXPAU_Node@12@@Z 0041f8c0 f i GuiKeyReader.obj
 0001:0001e920       ?_Buynode@?$_Tree@HU?$pair@$$CBHV?$basic_string@DU?$char_traits@D@std@@V?$allocator@D@2@@std@@@std@@U_Kfn@?$map@HV?$basic_string@DU?$char_traits@D@std@@V?$allocator@D@2@@std@@U?$less@H@2@V?$allocator@V?$basic_string@DU?$char_traits@D@std@@V?$allocator@D@2@@std@@@2@@2@U?$less@H@2@V?$allocator@V?$basic_string@DU?$char_traits@D@std@@V?$allocator@D@2@@std@@@2@@std@@IAEPAU_Node@12@PAU312@W4_Redbl@12@@Z 0041f920 f i GuiKeyReader.obj
 0001:0001e940       ?_Insert@?$_Tree@V?$basic_string@DU?$char_traits@D@std@@V?$allocator@D@2@@std@@U?$pair@$$CBV?$basic_string@DU?$char_traits@D@std@@V?$allocator@D@2@@std@@H@2@U_Kfn@?$map@V?$basic_string@DU?$char_traits@D@std@@V?$allocator@D@2@@std@@HU?$less@V?$basic_string@DU?$char_traits@D@std@@V?$allocator@D@2@@std@@@2@V?$allocator@H@2@@2@U?$less@V?$basic_string@DU?$char_traits@D@std@@V?$allocator@D@2@@std@@@2@V?$allocator@H@2@@std@@IAE?AViterator@12@PAU_Node@12@0ABU?$pair@$$CBV?$basic_string@DU?$char_traits@D@std@@V?$allocator@D@2@@std@@H@2@@Z 0041f940 f i GuiKeyReader.obj
 0001:0001ebb0       ?_Lrotate@?$_Tree@V?$basic_string@DU?$char_traits@D@std@@V?$allocator@D@2@@std@@U?$pair@$$CBV?$basic_string@DU?$char_traits@D@std@@V?$allocator@D@2@@std@@H@2@U_Kfn@?$map@V?$basic_string@DU?$char_traits@D@std@@V?$allocator@D@2@@std@@HU?$less@V?$basic_string@DU?$char_traits@D@std@@V?$allocator@D@2@@std@@@2@V?$allocator@H@2@@2@U?$less@V?$basic_string@DU?$char_traits@D@std@@V?$allocator@D@2@@std@@@2@V?$allocator@H@2@@std@@IAEXPAU_Node@12@@Z 0041fbb0 f i GuiKeyReader.obj
 0001:0001ec10       ?_Rrotate@?$_Tree@V?$basic_string@DU?$char_traits@D@std@@V?$allocator@D@2@@std@@U?$pair@$$CBV?$basic_string@DU?$char_traits@D@std@@V?$allocator@D@2@@std@@H@2@U_Kfn@?$map@V?$basic_string@DU?$char_traits@D@std@@V?$allocator@D@2@@std@@HU?$less@V?$basic_string@DU?$char_traits@D@std@@V?$allocator@D@2@@std@@@2@V?$allocator@H@2@@2@U?$less@V?$basic_string@DU?$char_traits@D@std@@V?$allocator@D@2@@std@@@2@V?$allocator@H@2@@std@@IAEXPAU_Node@12@@Z 0041fc10 f i GuiKeyReader.obj
 0001:0001ec70       ?_Buynode@?$_Tree@V?$basic_string@DU?$char_traits@D@std@@V?$allocator@D@2@@std@@U?$pair@$$CBV?$basic_string@DU?$char_traits@D@std@@V?$allocator@D@2@@std@@H@2@U_Kfn@?$map@V?$basic_string@DU?$char_traits@D@std@@V?$allocator@D@2@@std@@HU?$less@V?$basic_string@DU?$char_traits@D@std@@V?$allocator@D@2@@std@@@2@V?$allocator@H@2@@2@U?$less@V?$basic_string@DU?$char_traits@D@std@@V?$allocator@D@2@@std@@@2@V?$allocator@H@2@@std@@IAEPAU_Node@12@PAU312@W4_Redbl@12@@Z 0041fc70 f i GuiKeyReader.obj
 0001:0001ec90       ?_Dec@const_iterator@?$_Tree@HU?$pair@$$CBHV?$basic_string@DU?$char_traits@D@std@@V?$allocator@D@2@@std@@@std@@U_Kfn@?$map@HV?$basic_string@DU?$char_traits@D@std@@V?$allocator@D@2@@std@@U?$less@H@2@V?$allocator@V?$basic_string@DU?$char_traits@D@std@@V?$allocator@D@2@@std@@@2@@2@U?$less@H@2@V?$allocator@V?$basic_string@DU?$char_traits@D@std@@V?$allocator@D@2@@std@@@2@@std@@QAEXXZ 0041fc90 f i GuiKeyReader.obj
 0001:0001ecf0       ?_Inc@const_iterator@?$_Tree@HU?$pair@$$CBHV?$basic_string@DU?$char_traits@D@std@@V?$allocator@D@2@@std@@@std@@U_Kfn@?$map@HV?$basic_string@DU?$char_traits@D@std@@V?$allocator@D@2@@std@@U?$less@H@2@V?$allocator@V?$basic_string@DU?$char_traits@D@std@@V?$allocator@D@2@@std@@@2@@2@U?$less@H@2@V?$allocator@V?$basic_string@DU?$char_traits@D@std@@V?$allocator@D@2@@std@@@2@@std@@QAEXXZ 0041fcf0 f i GuiKeyReader.obj
 0001:0001ed40       ?_Dec@const_iterator@?$_Tree@V?$basic_string@DU?$char_traits@D@std@@V?$allocator@D@2@@std@@U?$pair@$$CBV?$basic_string@DU?$char_traits@D@std@@V?$allocator@D@2@@std@@H@2@U_Kfn@?$map@V?$basic_string@DU?$char_traits@D@std@@V?$allocator@D@2@@std@@HU?$less@V?$basic_string@DU?$char_traits@D@std@@V?$allocator@D@2@@std@@@2@V?$allocator@H@2@@2@U?$less@V?$basic_string@DU?$char_traits@D@std@@V?$allocator@D@2@@std@@@2@V?$allocator@H@2@@std@@QAEXXZ 0041fd40 f i GuiKeyReader.obj
 0001:0001eda0       ?_Inc@const_iterator@?$_Tree@V?$basic_string@DU?$char_traits@D@std@@V?$allocator@D@2@@std@@U?$pair@$$CBV?$basic_string@DU?$char_traits@D@std@@V?$allocator@D@2@@std@@H@2@U_Kfn@?$map@V?$basic_string@DU?$char_traits@D@std@@V?$allocator@D@2@@std@@HU?$less@V?$basic_string@DU?$char_traits@D@std@@V?$allocator@D@2@@std@@@2@V?$allocator@H@2@@2@U?$less@V?$basic_string@DU?$char_traits@D@std@@V?$allocator@D@2@@std@@@2@V?$allocator@H@2@@std@@QAEXXZ 0041fda0 f i GuiKeyReader.obj
 0001:0001edf0       ??5std@@YAAAV?$basic_istream@DU?$char_traits@D@std@@@0@AAV10@PAD@Z 0041fdf0 f i GuiKeyReader.obj
 0001:0001f010       ?sbumpc@?$basic_streambuf@DU?$char_traits@D@std@@@std@@QAEHXZ 00420010 f i GuiKeyReader.obj
 0001:0001f050       ??Hstd@@YA?AV?$basic_string@DU?$char_traits@D@std@@V?$allocator@D@2@@0@ABV10@D@Z 00420050 f i GuiKeyReader.obj
 0001:0001f160       ??Hstd@@YA?AV?$basic_string@DU?$char_traits@D@std@@V?$allocator@D@2@@0@ABV10@0@Z 00420160 f i GuiKeyReader.obj
 0001:0001f290       ?_Construct@std@@YAXPAU?$pair@$$CBHV?$basic_string@DU?$char_traits@D@std@@V?$allocator@D@2@@std@@@1@ABU21@@Z 00420290 f i GuiKeyReader.obj
 0001:0001f400       ?_Construct@std@@YAXPAU?$pair@$$CBV?$basic_string@DU?$char_traits@D@std@@V?$allocator@D@2@@std@@H@1@ABU21@@Z 00420400 f i GuiKeyReader.obj
 0001:0001f590       ?hash_new@@YAPAUhashtab@@HP6AHPAXH@ZP6AH00@Z@Z 00420590 f   hash.obj
 0001:0001f620       ?hash_free@@YAXPAUhashtab@@@Z 00420620 f   hash.obj
 0001:0001f670       ?hash_insert@@YAHPAXPAUhashtab@@@Z 00420670 f   hash.obj
 0001:0001f850       ?hash_search@@YAPAXPAXPAUhashtab@@@Z 00420850 f   hash.obj
 0001:0001f8a0       ?hash_remove@@YAPAXPAXPAUhashtab@@@Z 004208a0 f   hash.obj
 0001:0001f910       ?hash_cardinal@@YAHPAUhashtab@@@Z 00420910 f   hash.obj
 0001:0001f920       ?hash_for_each@@YAXP6AXPAX@ZPAUhashtab@@@Z 00420920 f   hash.obj
 0001:0001f960       ??0CHpiHandler@@QAE@XZ     00420960 f   HpiHandler.obj
 0001:0001fe50       ??_ECHpiHandler@@UAEPAXI@Z 00420e50 f i HpiHandler.obj
 0001:0001fe50       ??_GCHpiHandler@@UAEPAXI@Z 00420e50 f i HpiHandler.obj
 0001:0001fe70       ??1?$map@V?$basic_string@DU?$char_traits@D@std@@V?$allocator@D@2@@std@@UFileData@CHpiHandler@@U?$less@V?$basic_string@DU?$char_traits@D@std@@V?$allocator@D@2@@std@@@2@V?$allocator@UFileData@CHpiHandler@@@2@@std@@QAE@XZ 00420e70 f i HpiHandler.obj
 0001:0001ff30       ??1CHpiHandler@@UAE@XZ     00420f30 f   HpiHandler.obj
 0001:00020000       ?GetFileSize@CHpiHandler@@QAEHV?$basic_string@DU?$char_traits@D@std@@V?$allocator@D@2@@std@@@Z 00421000 f   HpiHandler.obj
 0001:000201d0       ?LoadFile@CHpiHandler@@QAEHV?$basic_string@DU?$char_traits@D@std@@V?$allocator@D@2@@std@@PAX@Z 004211d0 f   HpiHandler.obj
 0001:00020440       ?FindHpiFiles@CHpiHandler@@QAEXV?$basic_string@DU?$char_traits@D@std@@V?$allocator@D@2@@std@@0@Z 00421440 f   HpiHandler.obj
 0001:00020610       ?SearchHpiFile@CHpiHandler@@AAEXPAD@Z 00421610 f   HpiHandler.obj
 0001:00020690       ?RegisterFile@CHpiHandler@@AAEXPAD0H@Z 00421690 f   HpiHandler.obj
 0001:00020910       ??1FileData@CHpiHandler@@QAE@XZ 00421910 f i HpiHandler.obj
 0001:00020950       ?MakeLower@CHpiHandler@@QAEXAAV?$basic_string@DU?$char_traits@D@std@@V?$allocator@D@2@@std@@@Z 00421950 f   HpiHandler.obj
 0001:00020a70       ?MakeLower@CHpiHandler@@QAEXPAD@Z 00421a70 f   HpiHandler.obj
 0001:00020aa0       ??1?$pair@$$CBV?$basic_string@DU?$char_traits@D@std@@V?$allocator@D@2@@std@@UFileData@CHpiHandler@@@std@@QAE@XZ 00421aa0 f i HpiHandler.obj
 0001:00020b10       ?insert@?$map@V?$basic_string@DU?$char_traits@D@std@@V?$allocator@D@2@@std@@UFileData@CHpiHandler@@U?$less@V?$basic_string@DU?$char_traits@D@std@@V?$allocator@D@2@@std@@@2@V?$allocator@UFileData@CHpiHandler@@@2@@std@@QAE?AU?$pair@Viterator@?$_Tree@V?$basic_string@DU?$char_traits@D@std@@V?$allocator@D@2@@std@@U?$pair@$$CBV?$basic_string@DU?$char_traits@D@std@@V?$allocator@D@2@@std@@UFileData@CHpiHandler@@@2@U_Kfn@?$map@V?$basic_string@DU?$char_traits@D@std@@V?$allocator@D@2@@std@@UFileData@CHpiHandler@@U?$less@V?$basic_string@DU?$char_traits@D@std@@V?$allocator@D@2@@std@@@2@V?$allocator@UFileData@CHpiHandler@@@2@@2@U?$less@V?$basic_string@DU?$char_traits@D@std@@V?$allocator@D@2@@std@@@2@V?$allocator@UFileData@CHpiHandler@@@2@@std@@_N@2@ABU?$pair@$$CBV?$basic_string@DU?$char_traits@D@std@@V?$allocator@D@2@@std@@UFileData@CHpiHandler@@@2@@Z 00421b10 f i HpiHandler.obj
 0001:00020c10       ?begin@?$_Tree@V?$basic_string@DU?$char_traits@D@std@@V?$allocator@D@2@@std@@U?$pair@$$CBV?$basic_string@DU?$char_traits@D@std@@V?$allocator@D@2@@std@@UFileData@CHpiHandler@@@2@U_Kfn@?$map@V?$basic_string@DU?$char_traits@D@std@@V?$allocator@D@2@@std@@UFileData@CHpiHandler@@U?$less@V?$basic_string@DU?$char_traits@D@std@@V?$allocator@D@2@@std@@@2@V?$allocator@UFileData@CHpiHandler@@@2@@2@U?$less@V?$basic_string@DU?$char_traits@D@std@@V?$allocator@D@2@@std@@@2@V?$allocator@UFileData@CHpiHandler@@@2@@std@@QAE?AViterator@12@XZ 00421c10 f i HpiHandler.obj
 0001:00020c20       ?find@?$_Tree@V?$basic_string@DU?$char_traits@D@std@@V?$allocator@D@2@@std@@U?$pair@$$CBV?$basic_string@DU?$char_traits@D@std@@V?$allocator@D@2@@std@@UFileData@CHpiHandler@@@2@U_Kfn@?$map@V?$basic_string@DU?$char_traits@D@std@@V?$allocator@D@2@@std@@UFileData@CHpiHandler@@U?$less@V?$basic_string@DU?$char_traits@D@std@@V?$allocator@D@2@@std@@@2@V?$allocator@UFileData@CHpiHandler@@@2@@2@U?$less@V?$basic_string@DU?$char_traits@D@std@@V?$allocator@D@2@@std@@@2@V?$allocator@UFileData@CHpiHandler@@@2@@std@@QAE?AViterator@12@ABV?$basic_string@DU?$char_traits@D@std@@V?$allocator@D@2@@2@@Z 00421c20 f i HpiHandler.obj
 0001:00020cd0       ??0?$pair@$$CBV?$basic_string@DU?$char_traits@D@std@@V?$allocator@D@2@@std@@UFileData@CHpiHandler@@@std@@QAE@ABV?$basic_string@DU?$char_traits@D@std@@V?$allocator@D@2@@1@ABUFileData@CHpiHandler@@@Z 00421cd0 f i HpiHandler.obj
 0001:00020df0       ??0FileData@CHpiHandler@@QAE@ABU01@@Z 00421df0 f i HpiHandler.obj
 0001:00020f20       ?insert@?$_Tree@V?$basic_string@DU?$char_traits@D@std@@V?$allocator@D@2@@std@@U?$pair@$$CBV?$basic_string@DU?$char_traits@D@std@@V?$allocator@D@2@@std@@UFileData@CHpiHandler@@@2@U_Kfn@?$map@V?$basic_string@DU?$char_traits@D@std@@V?$allocator@D@2@@std@@UFileData@CHpiHandler@@U?$less@V?$basic_string@DU?$char_traits@D@std@@V?$allocator@D@2@@std@@@2@V?$allocator@UFileData@CHpiHandler@@@2@@2@U?$less@V?$basic_string@DU?$char_traits@D@std@@V?$allocator@D@2@@std@@@2@V?$allocator@UFileData@CHpiHandler@@@2@@std@@QAE?AU?$pair@Viterator@?$_Tree@V?$basic_string@DU?$char_traits@D@std@@V?$allocator@D@2@@std@@U?$pair@$$CBV?$basic_string@DU?$char_traits@D@std@@V?$allocator@D@2@@std@@UFileData@CHpiHandler@@@2@U_Kfn@?$map@V?$basic_string@DU?$char_traits@D@std@@V?$allocator@D@2@@std@@UFileData@CHpiHandler@@U?$less@V?$basic_string@DU?$char_traits@D@std@@V?$allocator@D@2@@std@@@2@V?$allocator@UFileData@CHpiHandler@@@2@@2@U?$less@V?$basic_string@DU?$char_traits@D@std@@V?$allocator@D@2@@std@@@2@V?$allocator@UFileData@CHpiHandler@@@2@@std@@_N@2@ABU?$pair@$$CBV?$basic_string@DU?$char_traits@D@std@@V?$allocator@D@2@@std@@UFileData@CHpiHandler@@@2@@Z 00421f20 f i HpiHandler.obj
 0001:00021180       ?erase@?$_Tree@V?$basic_string@DU?$char_traits@D@std@@V?$allocator@D@2@@std@@U?$pair@$$CBV?$basic_string@DU?$char_traits@D@std@@V?$allocator@D@2@@std@@UFileData@CHpiHandler@@@2@U_Kfn@?$map@V?$basic_string@DU?$char_traits@D@std@@V?$allocator@D@2@@std@@UFileData@CHpiHandler@@U?$less@V?$basic_string@DU?$char_traits@D@std@@V?$allocator@D@2@@std@@@2@V?$allocator@UFileData@CHpiHandler@@@2@@2@U?$less@V?$basic_string@DU?$char_traits@D@std@@V?$allocator@D@2@@std@@@2@V?$allocator@UFileData@CHpiHandler@@@2@@std@@QAE?AViterator@12@V312@@Z 00422180 f i HpiHandler.obj
 0001:000215b0       ?_Erase@?$_Tree@V?$basic_string@DU?$char_traits@D@std@@V?$allocator@D@2@@std@@U?$pair@$$CBV?$basic_string@DU?$char_traits@D@std@@V?$allocator@D@2@@std@@UFileData@CHpiHandler@@@2@U_Kfn@?$map@V?$basic_string@DU?$char_traits@D@std@@V?$allocator@D@2@@std@@UFileData@CHpiHandler@@U?$less@V?$basic_string@DU?$char_traits@D@std@@V?$allocator@D@2@@std@@@2@V?$allocator@UFileData@CHpiHandler@@@2@@2@U?$less@V?$basic_string@DU?$char_traits@D@std@@V?$allocator@D@2@@std@@@2@V?$allocator@UFileData@CHpiHandler@@@2@@std@@IAEXPAU_Node@12@@Z 004225b0 f i HpiHandler.obj
 0001:00021600       ?_Init@?$_Tree@V?$basic_string@DU?$char_traits@D@std@@V?$allocator@D@2@@std@@U?$pair@$$CBV?$basic_string@DU?$char_traits@D@std@@V?$allocator@D@2@@std@@UFileData@CHpiHandler@@@2@U_Kfn@?$map@V?$basic_string@DU?$char_traits@D@std@@V?$allocator@D@2@@std@@UFileData@CHpiHandler@@U?$less@V?$basic_string@DU?$char_traits@D@std@@V?$allocator@D@2@@std@@@2@V?$allocator@UFileData@CHpiHandler@@@2@@2@U?$less@V?$basic_string@DU?$char_traits@D@std@@V?$allocator@D@2@@std@@@2@V?$allocator@UFileData@CHpiHandler@@@2@@std@@IAEXXZ 00422600 f i HpiHandler.obj
 0001:00021680       ??0?$pair@Viterator@?$_Tree@V?$basic_string@DU?$char_traits@D@std@@V?$allocator@D@2@@std@@U?$pair@$$CBV?$basic_string@DU?$char_traits@D@std@@V?$allocator@D@2@@std@@UFileData@CHpiHandler@@@2@U_Kfn@?$map@V?$basic_string@DU?$char_traits@D@std@@V?$allocator@D@2@@std@@UFileData@CHpiHandler@@U?$less@V?$basic_string@DU?$char_traits@D@std@@V?$allocator@D@2@@std@@@2@V?$allocator@UFileData@CHpiHandler@@@2@@2@U?$less@V?$basic_string@DU?$char_traits@D@std@@V?$allocator@D@2@@std@@@2@V?$allocator@UFileData@CHpiHandler@@@2@@std@@_N@std@@QAE@ABViterator@?$_Tree@V?$basic_string@DU?$char_traits@D@std@@V?$allocator@D@2@@std@@U?$pair@$$CBV?$basic_string@DU?$char_traits@D@std@@V?$allocator@D@2@@std@@UFileData@CHpiHandler@@@2@U_Kfn@?$map@V?$basic_string@DU?$char_traits@D@std@@V?$allocator@D@2@@std@@UFileData@CHpiHandler@@U?$less@V?$basic_string@DU?$char_traits@D@std@@V?$allocator@D@2@@std@@@2@V?$allocator@UFileData@CHpiHandler@@@2@@2@U?$less@V?$basic_string@DU?$char_traits@D@std@@V?$allocator@D@2@@std@@@2@V?$allocator@UFileData@CHpiHandler@@@2@@1@AB_N@Z 00422680 f i HpiHandler.obj
 0001:000216a0       ?_Insert@?$_Tree@V?$basic_string@DU?$char_traits@D@std@@V?$allocator@D@2@@std@@U?$pair@$$CBV?$basic_string@DU?$char_traits@D@std@@V?$allocator@D@2@@std@@UFileData@CHpiHandler@@@2@U_Kfn@?$map@V?$basic_string@DU?$char_traits@D@std@@V?$allocator@D@2@@std@@UFileData@CHpiHandler@@U?$less@V?$basic_string@DU?$char_traits@D@std@@V?$allocator@D@2@@std@@@2@V?$allocator@UFileData@CHpiHandler@@@2@@2@U?$less@V?$basic_string@DU?$char_traits@D@std@@V?$allocator@D@2@@std@@@2@V?$allocator@UFileData@CHpiHandler@@@2@@std@@IAE?AViterator@12@PAU_Node@12@0ABU?$pair@$$CBV?$basic_string@DU?$char_traits@D@std@@V?$allocator@D@2@@std@@UFileData@CHpiHandler@@@2@@Z 004226a0 f i HpiHandler.obj
 0001:00021910       ?_Lbound@?$_Tree@V?$basic_string@DU?$char_traits@D@std@@V?$allocator@D@2@@std@@U?$pair@$$CBV?$basic_string@DU?$char_traits@D@std@@V?$allocator@D@2@@std@@UFileData@CHpiHandler@@@2@U_Kfn@?$map@V?$basic_string@DU?$char_traits@D@std@@V?$allocator@D@2@@std@@UFileData@CHpiHandler@@U?$less@V?$basic_string@DU?$char_traits@D@std@@V?$allocator@D@2@@std@@@2@V?$allocator@UFileData@CHpiHandler@@@2@@2@U?$less@V?$basic_string@DU?$char_traits@D@std@@V?$allocator@D@2@@std@@@2@V?$allocator@UFileData@CHpiHandler@@@2@@std@@IBEPAU_Node@12@ABV?$basic_string@DU?$char_traits@D@std@@V?$allocator@D@2@@2@@Z 00422910 f i HpiHandler.obj
 0001:000219a0       ?_Lrotate@?$_Tree@V?$basic_string@DU?$char_traits@D@std@@V?$allocator@D@2@@std@@U?$pair@$$CBV?$basic_string@DU?$char_traits@D@std@@V?$allocator@D@2@@std@@UFileData@CHpiHandler@@@2@U_Kfn@?$map@V?$basic_string@DU?$char_traits@D@std@@V?$allocator@D@2@@std@@UFileData@CHpiHandler@@U?$less@V?$basic_string@DU?$char_traits@D@std@@V?$allocator@D@2@@std@@@2@V?$allocator@UFileData@CHpiHandler@@@2@@2@U?$less@V?$basic_string@DU?$char_traits@D@std@@V?$allocator@D@2@@std@@@2@V?$allocator@UFileData@CHpiHandler@@@2@@std@@IAEXPAU_Node@12@@Z 004229a0 f i HpiHandler.obj
 0001:00021a00       ?_Rrotate@?$_Tree@V?$basic_string@DU?$char_traits@D@std@@V?$allocator@D@2@@std@@U?$pair@$$CBV?$basic_string@DU?$char_traits@D@std@@V?$allocator@D@2@@std@@UFileData@CHpiHandler@@@2@U_Kfn@?$map@V?$basic_string@DU?$char_traits@D@std@@V?$allocator@D@2@@std@@UFileData@CHpiHandler@@U?$less@V?$basic_string@DU?$char_traits@D@std@@V?$allocator@D@2@@std@@@2@V?$allocator@UFileData@CHpiHandler@@@2@@2@U?$less@V?$basic_string@DU?$char_traits@D@std@@V?$allocator@D@2@@std@@@2@V?$allocator@UFileData@CHpiHandler@@@2@@std@@IAEXPAU_Node@12@@Z 00422a00 f i HpiHandler.obj
 0001:00021a60       ?_Buynode@?$_Tree@V?$basic_string@DU?$char_traits@D@std@@V?$allocator@D@2@@std@@U?$pair@$$CBV?$basic_string@DU?$char_traits@D@std@@V?$allocator@D@2@@std@@UFileData@CHpiHandler@@@2@U_Kfn@?$map@V?$basic_string@DU?$char_traits@D@std@@V?$allocator@D@2@@std@@UFileData@CHpiHandler@@U?$less@V?$basic_string@DU?$char_traits@D@std@@V?$allocator@D@2@@std@@@2@V?$allocator@UFileData@CHpiHandler@@@2@@2@U?$less@V?$basic_string@DU?$char_traits@D@std@@V?$allocator@D@2@@std@@@2@V?$allocator@UFileData@CHpiHandler@@@2@@std@@IAEPAU_Node@12@PAU312@W4_Redbl@12@@Z 00422a60 f i HpiHandler.obj
 0001:00021a80       ?_Dec@const_iterator@?$_Tree@V?$basic_string@DU?$char_traits@D@std@@V?$allocator@D@2@@std@@U?$pair@$$CBV?$basic_string@DU?$char_traits@D@std@@V?$allocator@D@2@@std@@UFileData@CHpiHandler@@@2@U_Kfn@?$map@V?$basic_string@DU?$char_traits@D@std@@V?$allocator@D@2@@std@@UFileData@CHpiHandler@@U?$less@V?$basic_string@DU?$char_traits@D@std@@V?$allocator@D@2@@std@@@2@V?$allocator@UFileData@CHpiHandler@@@2@@2@U?$less@V?$basic_string@DU?$char_traits@D@std@@V?$allocator@D@2@@std@@@2@V?$allocator@UFileData@CHpiHandler@@@2@@std@@QAEXXZ 00422a80 f i HpiHandler.obj
 0001:00021ae0       ?_Construct@std@@YAXPAU?$pair@$$CBV?$basic_string@DU?$char_traits@D@std@@V?$allocator@D@2@@std@@UFileData@CHpiHandler@@@1@ABU21@@Z 00422ae0 f i HpiHandler.obj
 0001:00021c40       ??0CInfoConsole@@QAE@XZ    00422c40 f   InfoConsole.obj
 0001:00021ca0       ??_GCInfoConsole@@UAEPAXI@Z 00422ca0 f i InfoConsole.obj
 0001:00021ca0       ??_ECInfoConsole@@UAEPAXI@Z 00422ca0 f i InfoConsole.obj
 0001:00021cc0       ??1CInfoConsole@@UAE@XZ    00422cc0 f   InfoConsole.obj
 0001:00021de0       ?AddLine@CInfoConsole@@QAEHPBD@Z 00422de0 f   InfoConsole.obj
 0001:000220b0       ??1InfoLine@CInfoConsole@@QAE@XZ 004230b0 f i InfoConsole.obj
 0001:000220f0       ?AddLine@CInfoConsole@@QAEHV?$basic_string@DU?$char_traits@D@std@@V?$allocator@D@2@@std@@@Z 004230f0 f   InfoConsole.obj
 0001:00022170       ?Draw@CInfoConsole@@QAEHXZ 00423170 f   InfoConsole.obj
 0001:000222e0       ?Update@CInfoConsole@@QAEHXZ 004232e0 f   InfoConsole.obj
 0001:00022420       ??6CInfoConsole@@QAEAAV0@H@Z 00423420 f   InfoConsole.obj
 0001:00022510       ??6CInfoConsole@@QAEAAV0@M@Z 00423510 f   InfoConsole.obj
 0001:00022610       ??6CInfoConsole@@QAEAAV0@PBD@Z 00423610 f   InfoConsole.obj
 0001:00022780       ?_Buyback@?$deque@UInfoLine@CInfoConsole@@V?$allocator@UInfoLine@CInfoConsole@@@std@@@std@@IAEXXZ 00423780 f i InfoConsole.obj
 0001:000228e0       ?_Freefront@?$deque@UInfoLine@CInfoConsole@@V?$allocator@UInfoLine@CInfoConsole@@@std@@@std@@IAEXXZ 004238e0 f i InfoConsole.obj
 0001:00022960       ?_Refcnt@?$basic_string@DU?$char_traits@D@std@@V?$allocator@D@2@@std@@AAEAAEPBD@Z 00423960 f i InfoConsole.obj
 0001:00022970       ?deallocate@?$allocator@D@std@@QAEXPAXI@Z 00423970 f i InfoConsole.obj
 0001:00022980       ?_Add@const_iterator@?$deque@UInfoLine@CInfoConsole@@V?$allocator@UInfoLine@CInfoConsole@@@std@@@std@@IAEXH@Z 00423980 f i InfoConsole.obj
 0001:00022a20       ?_Construct@std@@YAXPAUInfoLine@CInfoConsole@@ABU23@@Z 00423a20 f i InfoConsole.obj
 0001:00022b70       ??0InfoLine@CInfoConsole@@QAE@ABU01@@Z 00423b70 f i InfoConsole.obj
 0001:00022ca0       ??_GInfoLine@CInfoConsole@@QAEPAXI@Z 00423ca0 f i InfoConsole.obj
 0001:00022ce0       ?ReSizeGLScene@@YAXHH@Z    00423ce0 f   Lesson2.obj
 0001:00022d90       ?InitGL@@YAHXZ             00423d90 f   Lesson2.obj
 0001:00022df0       ?DrawGLScene@@YAHXZ        00423df0 f   Lesson2.obj
 0001:00022e70       ?KillGLWindow@@YAXXZ       00423e70 f   Lesson2.obj
 0001:00022f50       ?CreateGLWindow@@YAHPADHHH_N@Z 00423f50 f   Lesson2.obj
 0001:000233d0       ?WndProc@@YGJPAUHWND__@@IIJ@Z 004243d0 f   Lesson2.obj
 0001:00023920       ?DlgProc@@YGHPAUHWND__@@IIJ@Z 00424920 f   Lesson2.obj
 0001:00023940       _WinMain@16                00424940 f   Lesson2.obj
 0001:00023c50       ??0CMemPool@@QAE@XZ        00424c50 f   MemPool.obj
 0001:00023c80       ?Alloc@CMemPool@@QAEPAXI@Z 00424c80 f   MemPool.obj
 0001:00023d20       ?Free@CMemPool@@QAEXPAXI@Z 00424d20 f   MemPool.obj
 0001:00023d50       ??1CMemPool@@QAE@XZ        00424d50 f   MemPool.obj
 0001:00023dc0       ??0CMiniMap@@QAE@XZ        00424dc0 f   MiniMap.obj
 0001:00023ff0       ??_GCMiniMap@@UAEPAXI@Z    00424ff0 f i MiniMap.obj
 0001:00023ff0       ??_ECMiniMap@@UAEPAXI@Z    00424ff0 f i MiniMap.obj
 0001:00024010       ??1CMiniMap@@UAE@XZ        00425010 f   MiniMap.obj
 0001:000240e0       ?Draw@CMiniMap@@QAEXXZ     004250e0 f   MiniMap.obj
 0001:00024cb0       ?DrawInMap@CMiniMap@@QAEXAAVfloat3@@@Z 00425cb0 f   MiniMap.obj
 0001:00024d00       ?GetFrustumSide@CMiniMap@@QAEXAAVfloat3@@@Z 00425d00 f   MiniMap.obj
 0001:00024e90       ??1?$vector@Ufline@CMiniMap@@V?$allocator@Ufline@CMiniMap@@@std@@@std@@QAE@XZ 00425e90 f i MiniMap.obj
 0001:00024ec0       ??1?$deque@UEhaMarker@@V?$allocator@UEhaMarker@@@std@@@std@@QAE@XZ 00425ec0 f i MiniMap.obj
 0001:00024f70       ?_Destroy@?$vector@Ufline@CMiniMap@@V?$allocator@Ufline@CMiniMap@@@std@@@std@@IAEXPAUfline@CMiniMap@@0@Z 00425f70 f i MiniMap.obj
 0001:00024f80       ?_Buyback@?$deque@UEhaMarker@@V?$allocator@UEhaMarker@@@std@@@std@@IAEXXZ 00425f80 f i MiniMap.obj
 0001:000250e0       ?_Freefront@?$deque@UEhaMarker@@V?$allocator@UEhaMarker@@@std@@@std@@IAEXXZ 004260e0 f i MiniMap.obj
 0001:00025160       ?insert@?$vector@Ufline@CMiniMap@@V?$allocator@Ufline@CMiniMap@@@std@@@std@@QAEXPAUfline@CMiniMap@@IABU34@@Z 00426160 f i MiniMap.obj
 0001:00025460       ?_Construct@std@@YAXPAUEhaMarker@@ABU2@@Z 00426460 f i MiniMap.obj
 0001:000254a0       ??0CMouseHandler@@QAE@XZ   004264a0 f   MouseHandler.obj
 0001:000255d0       ??_ECMouseHandler@@UAEPAXI@Z 004265d0 f i MouseHandler.obj
 0001:000255d0       ??_GCMouseHandler@@UAEPAXI@Z 004265d0 f i MouseHandler.obj
 0001:000255f0       ??0ButtonPress@CMouseHandler@@QAE@XZ 004265f0 f i MouseHandler.obj
 0001:00025600       ??1ButtonPress@CMouseHandler@@QAE@XZ 00426600 f i MouseHandler.obj
 0001:00025610       ??1CMouseHandler@@UAE@XZ   00426610 f   MouseHandler.obj
 0001:00025630       ?MouseMove@CMouseHandler@@QAEXHH@Z 00426630 f   MouseHandler.obj
 0001:000258e0       ?MousePress@CMouseHandler@@QAEXHHH@Z 004268e0 f   MouseHandler.obj
 0001:00025b40       ?MouseRelease@CMouseHandler@@QAEXHHH@Z 00426b40 f   MouseHandler.obj
 0001:00025c20       ?Draw@CMouseHandler@@QAEXXZ 00426c20 f   MouseHandler.obj
 0001:00025c30       ?ShowMouse@CMouseHandler@@QAEXXZ 00426c30 f   MouseHandler.obj
 0001:00025c50       ?HideMouse@CMouseHandler@@QAEXXZ 00426c50 f   MouseHandler.obj
 0001:00025ca0       ?InitExtension@@YAHPBD@Z   00426ca0 f   myGL.obj
 0001:00026520       ?GetVertexArray@@YAPAVCVertexArray@@XZ 00427520 f   myGL.obj
 0001:00026540       ?isInString@@YA_NPADPBD@Z  00427540 f   myGL.obj
 0001:000265c0       ?initMultitexture@@YA_NXZ  004275c0 f   myGL.obj
 0001:000268c0       ?initDot3@@YAXXZ           004278c0 f   myGL.obj
 0001:00026ae0       ?LoadExtensions@@YAXXZ     00427ae0 f   myGL.obj
 0001:00026da0       ?UnloadExtensions@@YAXXZ   00427da0 f   myGL.obj
 0001:00026dd0       ?DummyTexCoord@@YGXIMM@Z   00427dd0 f   myGL.obj
 0001:00026de0       ?PrintLoadMsg@@YAXPBD@Z    00427de0 f   myGL.obj
 0001:00026f30       ??1CObject@@UAE@XZ         00427f30 f   Object.obj
 0001:000270c0       ??_GCObject@@UAEPAXI@Z     004280c0 f i Object.obj
 0001:000270c0       ??_ECObject@@UAEPAXI@Z     004280c0 f i Object.obj
 0001:000270e0       ?DependentDied@CObject@@UAEHPAV1@@Z 004280e0 f   Object.obj
 0001:000270f0       ?AddDeathDependence@CObject@@QAEXPAV1@@Z 004280f0 f   Object.obj
 0001:00027180       ?DeleteDeathDependence@CObject@@QAEXPAV1@@Z 00428180 f   Object.obj
 0001:00027200       ??1?$list@PAVCObject@@V?$allocator@PAVCObject@@@std@@@std@@QAE@XZ 00428200 f i Object.obj
 0001:00027250       ?erase@?$list@PAVCObject@@V?$allocator@PAVCObject@@@std@@@std@@QAE?AViterator@12@V312@@Z 00428250 f i Object.obj
 0001:00027290       ??Eiterator@?$list@PAVCObject@@V?$allocator@PAVCObject@@@std@@@std@@QAE?AV012@H@Z 00428290 f i Object.obj
 0001:000272a0       ?getOTAValue@@YA_NPADPBD0@Z 004282a0 f   otareader.obj
 0001:00027450       ??0CProjectileHandler@@QAE@XZ 00428450 f   ProjectileHandler.obj
 0001:00027570       ??_ECProjectileHandler@@UAEPAXI@Z 00428570 f i ProjectileHandler.obj
 0001:00027570       ??_GCProjectileHandler@@UAEPAXI@Z 00428570 f i ProjectileHandler.obj
 0001:00027590       ??0ProjDef@CProjectileHandler@@QAE@XZ 00428590 f i ProjectileHandler.obj
 0001:000275a0       ??1ProjDef@CProjectileHandler@@QAE@XZ 004285a0 f i ProjectileHandler.obj
 0001:000275b0       ??1?$map@V?$basic_string@DU?$char_traits@D@std@@V?$allocator@D@2@@std@@V12@U?$less@V?$basic_string@DU?$char_traits@D@std@@V?$allocator@D@2@@std@@@2@V?$allocator@V?$basic_string@DU?$char_traits@D@std@@V?$allocator@D@2@@std@@@2@@std@@QAE@XZ 004285b0 f i ProjectileHandler.obj
 0001:00027670       ??1CProjectileHandler@@UAE@XZ 00428670 f   ProjectileHandler.obj
 0001:00027790       ?Update@CProjectileHandler@@QAEHXZ 00428790 f   ProjectileHandler.obj
 0001:000277a0       ?CompareProjDist@@YAHPBX0@Z 004287a0 f   ProjectileHandler.obj
 0001:000277c0       ?Draw@CProjectileHandler@@QAEHXZ 004287c0 f   ProjectileHandler.obj
 0001:00028590       ??0Plasma@CProjectileHandler@@QAE@XZ 00429590 f i ProjectileHandler.obj
 0001:000285a0       ??1Plasma@CProjectileHandler@@QAE@XZ 004295a0 f i ProjectileHandler.obj
 0001:000285b0       ??0Laser@CProjectileHandler@@QAE@XZ 004295b0 f i ProjectileHandler.obj
 0001:000285c0       ??1Laser@CProjectileHandler@@QAE@XZ 004295c0 f i ProjectileHandler.obj
 0001:000285d0       ??0Explo@CProjectileHandler@@QAE@XZ 004295d0 f i ProjectileHandler.obj
 0001:000285e0       ??1Explo@CProjectileHandler@@QAE@XZ 004295e0 f i ProjectileHandler.obj
 0001:000285f0       ??0Smoke@CProjectileHandler@@QAE@XZ 004295f0 f i ProjectileHandler.obj
 0001:00028610       ??1Smoke@CProjectileHandler@@QAE@XZ 00429610 f i ProjectileHandler.obj
 0001:00028630       ?DrawLaser@CProjectileHandler@@QAEXPAULaser@1@@Z 00429630 f   ProjectileHandler.obj
 0001:000289d0       ?DrawLighting@CProjectileHandler@@QAEXPAULaser@1@@Z 004299d0 f   ProjectileHandler.obj
 0001:00028d70       ?distance@float3@@QBEMABV1@@Z 00429d70 f i ProjectileHandler.obj
 0001:00028da0       ?DrawPlasma@CProjectileHandler@@QAEXPAUPlasma@1@@Z 00429da0 f   ProjectileHandler.obj
 0001:00029010       ?DrawExplosion@CProjectileHandler@@QAEXPAUExplo@1@@Z 0042a010 f   ProjectileHandler.obj
 0001:00029520       ?DrawSmoke@CProjectileHandler@@QAEXPAUSmoke@1@@Z 0042a520 f   ProjectileHandler.obj
 0001:00029850       ?Draw3do@CProjectileHandler@@QAEXABVfloat3@@0PBUS3DO@@@Z 0042a850 f   ProjectileHandler.obj
 0001:00029920       ?CreateProjDefs@CProjectileHandler@@QAEXXZ 0042a920 f   ProjectileHandler.obj
 0001:0002a060       ?SearchWeaponFile@CProjectileHandler@@AAEXV?$basic_string@DU?$char_traits@D@std@@V?$allocator@D@2@@std@@@Z 0042b060 f   ProjectileHandler.obj
 0001:0002a320       ?hs2rgb@CProjectileHandler@@QAE?AVfloat3@@MM@Z 0042b320 f   ProjectileHandler.obj
 0001:0002a460       ?DrawArray@CProjectileHandler@@QAEXXZ 0042b460 f   ProjectileHandler.obj
 0001:0002a490       ??A?$map@V?$basic_string@DU?$char_traits@D@std@@V?$allocator@D@2@@std@@V12@U?$less@V?$basic_string@DU?$char_traits@D@std@@V?$allocator@D@2@@std@@@2@V?$allocator@V?$basic_string@DU?$char_traits@D@std@@V?$allocator@D@2@@std@@@2@@std@@QAEAAV?$basic_string@DU?$char_traits@D@std@@V?$allocator@D@2@@1@ABV21@@Z 0042b490 f i ProjectileHandler.obj
 0001:0002a5d0       ?find@?$_Tree@V?$basic_string@DU?$char_traits@D@std@@V?$allocator@D@2@@std@@U?$pair@$$CBV?$basic_string@DU?$char_traits@D@std@@V?$allocator@D@2@@std@@V12@@2@U_Kfn@?$map@V?$basic_string@DU?$char_traits@D@std@@V?$allocator@D@2@@std@@V12@U?$less@V?$basic_string@DU?$char_traits@D@std@@V?$allocator@D@2@@std@@@2@V?$allocator@V?$basic_string@DU?$char_traits@D@std@@V?$allocator@D@2@@std@@@2@@2@U?$less@V?$basic_string@DU?$char_traits@D@std@@V?$allocator@D@2@@std@@@2@V?$allocator@V?$basic_string@DU?$char_traits@D@std@@V?$allocator@D@2@@std@@@2@@std@@QAE?AViterator@12@ABV?$basic_string@DU?$char_traits@D@std@@V?$allocator@D@2@@2@@Z 0042b5d0 f i ProjectileHandler.obj
 0001:0002a680       ?insert@?$_Tree@V?$basic_string@DU?$char_traits@D@std@@V?$allocator@D@2@@std@@U?$pair@$$CBV?$basic_string@DU?$char_traits@D@std@@V?$allocator@D@2@@std@@V12@@2@U_Kfn@?$map@V?$basic_string@DU?$char_traits@D@std@@V?$allocator@D@2@@std@@V12@U?$less@V?$basic_string@DU?$char_traits@D@std@@V?$allocator@D@2@@std@@@2@V?$allocator@V?$basic_string@DU?$char_traits@D@std@@V?$allocator@D@2@@std@@@2@@2@U?$less@V?$basic_string@DU?$char_traits@D@std@@V?$allocator@D@2@@std@@@2@V?$allocator@V?$basic_string@DU?$char_traits@D@std@@V?$allocator@D@2@@std@@@2@@std@@QAE?AU?$pair@Viterator@?$_Tree@V?$basic_string@DU?$char_traits@D@std@@V?$allocator@D@2@@std@@U?$pair@$$CBV?$basic_string@DU?$char_traits@D@std@@V?$allocator@D@2@@std@@V12@@2@U_Kfn@?$map@V?$basic_string@DU?$char_traits@D@std@@V?$allocator@D@2@@std@@V12@U?$less@V?$basic_string@DU?$char_traits@D@std@@V?$allocator@D@2@@std@@@2@V?$allocator@V?$basic_string@DU?$char_traits@D@std@@V?$allocator@D@2@@std@@@2@@2@U?$less@V?$basic_string@DU?$char_traits@D@std@@V?$allocator@D@2@@std@@@2@V?$allocator@V?$basic_string@DU?$char_traits@D@std@@V?$allocator@D@2@@std@@@2@@std@@_N@2@ABU?$pair@$$CBV?$basic_string@DU?$char_traits@D@std@@V?$allocator@D@2@@std@@V12@@2@@Z 0042b680 f i ProjectileHandler.obj
 0001:0002a8e0       ??0?$pair@Viterator@?$_Tree@V?$basic_string@DU?$char_traits@D@std@@V?$allocator@D@2@@std@@U?$pair@$$CBV?$basic_string@DU?$char_traits@D@std@@V?$allocator@D@2@@std@@V12@@2@U_Kfn@?$map@V?$basic_string@DU?$char_traits@D@std@@V?$allocator@D@2@@std@@V12@U?$less@V?$basic_string@DU?$char_traits@D@std@@V?$allocator@D@2@@std@@@2@V?$allocator@V?$basic_string@DU?$char_traits@D@std@@V?$allocator@D@2@@std@@@2@@2@U?$less@V?$basic_string@DU?$char_traits@D@std@@V?$allocator@D@2@@std@@@2@V?$allocator@V?$basic_string@DU?$char_traits@D@std@@V?$allocator@D@2@@std@@@2@@std@@_N@std@@QAE@ABViterator@?$_Tree@V?$basic_string@DU?$char_traits@D@std@@V?$allocator@D@2@@std@@U?$pair@$$CBV?$basic_string@DU?$char_traits@D@std@@V?$allocator@D@2@@std@@V12@@2@U_Kfn@?$map@V?$basic_string@DU?$char_traits@D@std@@V?$allocator@D@2@@std@@V12@U?$less@V?$basic_string@DU?$char_traits@D@std@@V?$allocator@D@2@@std@@@2@V?$allocator@V?$basic_string@DU?$char_traits@D@std@@V?$allocator@D@2@@std@@@2@@2@U?$less@V?$basic_string@DU?$char_traits@D@std@@V?$allocator@D@2@@std@@@2@V?$allocator@V?$basic_string@DU?$char_traits@D@std@@V?$allocator@D@2@@std@@@2@@1@AB_N@Z 0042b8e0 f i ProjectileHandler.obj
 0001:0002a900       ?_Lrotate@?$_Tree@V?$basic_string@DU?$char_traits@D@std@@V?$allocator@D@2@@std@@U?$pair@$$CBV?$basic_string@DU?$char_traits@D@std@@V?$allocator@D@2@@std@@V12@@2@U_Kfn@?$map@V?$basic_string@DU?$char_traits@D@std@@V?$allocator@D@2@@std@@V12@U?$less@V?$basic_string@DU?$char_traits@D@std@@V?$allocator@D@2@@std@@@2@V?$allocator@V?$basic_string@DU?$char_traits@D@std@@V?$allocator@D@2@@std@@@2@@2@U?$less@V?$basic_string@DU?$char_traits@D@std@@V?$allocator@D@2@@std@@@2@V?$allocator@V?$basic_string@DU?$char_traits@D@std@@V?$allocator@D@2@@std@@@2@@std@@IAEXPAU_Node@12@@Z 0042b900 f i ProjectileHandler.obj
 0001:0002a960       ?_Rrotate@?$_Tree@V?$basic_string@DU?$char_traits@D@std@@V?$allocator@D@2@@std@@U?$pair@$$CBV?$basic_string@DU?$char_traits@D@std@@V?$allocator@D@2@@std@@V12@@2@U_Kfn@?$map@V?$basic_string@DU?$char_traits@D@std@@V?$allocator@D@2@@std@@V12@U?$less@V?$basic_string@DU?$char_traits@D@std@@V?$allocator@D@2@@std@@@2@V?$allocator@V?$basic_string@DU?$char_traits@D@std@@V?$allocator@D@2@@std@@@2@@2@U?$less@V?$basic_string@DU?$char_traits@D@std@@V?$allocator@D@2@@std@@@2@V?$allocator@V?$basic_string@DU?$char_traits@D@std@@V?$allocator@D@2@@std@@@2@@std@@IAEXPAU_Node@12@@Z 0042b960 f i ProjectileHandler.obj
 0001:0002a9c0       ?_Buynode@?$_Tree@V?$basic_string@DU?$char_traits@D@std@@V?$allocator@D@2@@std@@U?$pair@$$CBV?$basic_string@DU?$char_traits@D@std@@V?$allocator@D@2@@std@@V12@@2@U_Kfn@?$map@V?$basic_string@DU?$char_traits@D@std@@V?$allocator@D@2@@std@@V12@U?$less@V?$basic_string@DU?$char_traits@D@std@@V?$allocator@D@2@@std@@@2@V?$allocator@V?$basic_string@DU?$char_traits@D@std@@V?$allocator@D@2@@std@@@2@@2@U?$less@V?$basic_string@DU?$char_traits@D@std@@V?$allocator@D@2@@std@@@2@V?$allocator@V?$basic_string@DU?$char_traits@D@std@@V?$allocator@D@2@@std@@@2@@std@@IAEPAU_Node@12@PAU312@W4_Redbl@12@@Z 0042b9c0 f i ProjectileHandler.obj
 0001:0002aa60       ?Instance@CReadMap@@SAPAV1@XZ 0042ba60 f   ReadMap.obj
 0001:0002aac0       ??0CReadMap@@AAE@XZ        0042bac0 f   ReadMap.obj
 0001:0002bd10       ??_GCReadMap@@UAEPAXI@Z    0042cd10 f i ReadMap.obj
 0001:0002bd10       ??_ECReadMap@@UAEPAXI@Z    0042cd10 f i ReadMap.obj
 0001:0002bd30       ??_Efloat3@@QAEPAXI@Z      0042cd30 f i ReadMap.obj
 0001:0002bd80       ??1CReadMap@@UAE@XZ        0042cd80 f   ReadMap.obj
 0001:0002bf10       ??0RegHandler@@QAE@V?$basic_string@DU?$char_traits@D@std@@V?$allocator@D@2@@std@@PAUHKEY__@@@Z 0042cf10 f   RegHandler.obj
 0001:0002bf80       ??_GRegHandler@@UAEPAXI@Z  0042cf80 f i RegHandler.obj
 0001:0002bf80       ??_ERegHandler@@UAEPAXI@Z  0042cf80 f i RegHandler.obj
 0001:0002bfb0       ??1RegHandler@@UAE@XZ      0042cfb0 f   RegHandler.obj
 0001:0002bfd0       ?GetInt@RegHandler@@QAEIV?$basic_string@DU?$char_traits@D@std@@V?$allocator@D@2@@std@@I@Z 0042cfd0 f   RegHandler.obj
 0001:0002c090       ?GetString@RegHandler@@QAE?AV?$basic_string@DU?$char_traits@D@std@@V?$allocator@D@2@@std@@V23@0@Z 0042d090 f   RegHandler.obj
 0001:0002c240       ?SetString@RegHandler@@QAEXV?$basic_string@DU?$char_traits@D@std@@V?$allocator@D@2@@std@@0@Z 0042d240 f   RegHandler.obj
 0001:0002c2c0       ?SetInt@RegHandler@@QAEXV?$basic_string@DU?$char_traits@D@std@@V?$allocator@D@2@@std@@I@Z 0042d2c0 f   RegHandler.obj
 0001:0002c390       ??0CSky@@QAE@XZ            0042d390 f   Sky.obj
 0001:0002cb90       ??_GCSky@@UAEPAXI@Z        0042db90 f i Sky.obj
 0001:0002cb90       ??_ECSky@@UAEPAXI@Z        0042db90 f i Sky.obj
 0001:0002cbd0       ??1CSky@@UAE@XZ            0042dbd0 f   Sky.obj
 0001:0002cc00       ?Draw@CSky@@QAEHXZ         0042dc00 f   Sky.obj
 0001:0002cd90       ?GetTexCoord@CSky@@QAE?AVfloat3@@HH@Z 0042dd90 f   Sky.obj
 0001:0002ce00       ?GetCoord@CSky@@QAE?AVfloat3@@HH@Z 0042de00 f   Sky.obj
 0001:0002cea0       ?CreateClouds@CSky@@QAEXXZ 0042dea0 f   Sky.obj
 0001:0002d360       ?UpdateClouds@CSky@@QAEXXZ 0042e360 f   Sky.obj
 0001:0002dd00       ?CreateRandMatrix@CSky@@QAEXQAY0CA@HM@Z 0042ed00 f   Sky.obj
 0001:0002dd50       ?CreateTransformVectors@CSky@@QAEXXZ 0042ed50 f   Sky.obj
 0001:0002de30       ?DrawSunFlare@CSky@@QAEXXZ 0042ee30 f   Sky.obj
 0001:0002de40       ?SetCloudShadow@CSky@@QAEXH@Z 0042ee40 f   Sky.obj
 0001:0002de50       ?ResetCloudShadow@CSky@@QAEXH@Z 0042ee50 f   Sky.obj
 0001:0002de60       ?DrawShafts@CSky@@QAEXXZ   0042ee60 f   Sky.obj
 0001:0002dec0       ??0CTAPalette@@QAE@XZ      0042eec0 f   TAPalette.obj
 0001:0002df70       ??_GCTAPalette@@UAEPAXI@Z  0042ef70 f i TAPalette.obj
 0001:0002df70       ??_ECTAPalette@@UAEPAXI@Z  0042ef70 f i TAPalette.obj
 0001:0002df90       ??_Difstream@@QAEXXZ       0042ef90 f i TAPalette.obj
 0001:0002dfb0       ??1CTAPalette@@UAE@XZ      0042efb0 f   TAPalette.obj
 0001:0002dfc0       ??0CTextureHandler@@QAE@XZ 0042efc0 f   TextureHandler.obj
 0001:0002e4d0       ??_GCTextureHandler@@UAEPAXI@Z 0042f4d0 f i TextureHandler.obj
 0001:0002e4d0       ??_ECTextureHandler@@UAEPAXI@Z 0042f4d0 f i TextureHandler.obj
 0001:0002e4f0       ??1?$map@V?$basic_string@DU?$char_traits@D@std@@V?$allocator@D@2@@std@@UBigTex@CTextureHandler@@U?$less@V?$basic_string@DU?$char_traits@D@std@@V?$allocator@D@2@@std@@@2@V?$allocator@UBigTex@CTextureHandler@@@2@@std@@QAE@XZ 0042f4f0 f i TextureHandler.obj
 0001:0002e5b0       ??1?$map@V?$basic_string@DU?$char_traits@D@std@@V?$allocator@D@2@@std@@PAUtaTexture@@U?$less@V?$basic_string@DU?$char_traits@D@std@@V?$allocator@D@2@@std@@@2@V?$allocator@PAUtaTexture@@@2@@std@@QAE@XZ 0042f5b0 f i TextureHandler.obj
 0001:0002e670       ??1CTextureHandler@@UAE@XZ 0042f670 f   TextureHandler.obj
 0001:0002ef40       ??_Etatex2@@QAEPAXI@Z      0042ff40 f i TextureHandler.obj
 0001:0002efa0       ??0tatex2@@QAE@XZ          0042ffa0 f i TextureHandler.obj
 0001:0002efd0       ??1tatex2@@QAE@XZ          0042ffd0 f i TextureHandler.obj
 0001:0002f040       ?GetTexture@CTextureHandler@@QAEPAUtaTexture@@PBDH@Z 00430040 f   TextureHandler.obj
 0001:0002ff00       ?SetTexture@CTextureHandler@@QAEXXZ 00430f00 f   TextureHandler.obj
 0001:0002ff10       ?SetBigTex@CTextureHandler@@QAEXXZ 00430f10 f   TextureHandler.obj
 0001:0002ff20       ??1?$pair@$$CBV?$basic_string@DU?$char_traits@D@std@@V?$allocator@D@2@@std@@UBigTex@CTextureHandler@@@std@@QAE@XZ 00430f20 f i TextureHandler.obj
 0001:0002ff60       ??1?$pair@$$CBV?$basic_string@DU?$char_traits@D@std@@V?$allocator@D@2@@std@@PAUtaTexture@@@std@@QAE@XZ 00430f60 f i TextureHandler.obj
 0001:0002ffa0       ?begin@?$_Tree@V?$basic_string@DU?$char_traits@D@std@@V?$allocator@D@2@@std@@U?$pair@$$CBV?$basic_string@DU?$char_traits@D@std@@V?$allocator@D@2@@std@@UBigTex@CTextureHandler@@@2@U_Kfn@?$map@V?$basic_string@DU?$char_traits@D@std@@V?$allocator@D@2@@std@@UBigTex@CTextureHandler@@U?$less@V?$basic_string@DU?$char_traits@D@std@@V?$allocator@D@2@@std@@@2@V?$allocator@UBigTex@CTextureHandler@@@2@@2@U?$less@V?$basic_string@DU?$char_traits@D@std@@V?$allocator@D@2@@std@@@2@V?$allocator@UBigTex@CTextureHandler@@@2@@std@@QAE?AViterator@12@XZ 00430fa0 f i TextureHandler.obj
 0001:0002ffb0       ?_Inc@const_iterator@?$_Tree@V?$basic_string@DU?$char_traits@D@std@@V?$allocator@D@2@@std@@U?$pair@$$CBV?$basic_string@DU?$char_traits@D@std@@V?$allocator@D@2@@std@@UBigTex@CTextureHandler@@@2@U_Kfn@?$map@V?$basic_string@DU?$char_traits@D@std@@V?$allocator@D@2@@std@@UBigTex@CTextureHandler@@U?$less@V?$basic_string@DU?$char_traits@D@std@@V?$allocator@D@2@@std@@@2@V?$allocator@UBigTex@CTextureHandler@@@2@@2@U?$less@V?$basic_string@DU?$char_traits@D@std@@V?$allocator@D@2@@std@@@2@V?$allocator@UBigTex@CTextureHandler@@@2@@std@@QAEXXZ 00430fb0 f i TextureHandler.obj
 0001:00030000       ?insert@?$map@V?$basic_string@DU?$char_traits@D@std@@V?$allocator@D@2@@std@@PAUtaTexture@@U?$less@V?$basic_string@DU?$char_traits@D@std@@V?$allocator@D@2@@std@@@2@V?$allocator@PAUtaTexture@@@2@@std@@QAE?AU?$pair@Viterator@?$_Tree@V?$basic_string@DU?$char_traits@D@std@@V?$allocator@D@2@@std@@U?$pair@$$CBV?$basic_string@DU?$char_traits@D@std@@V?$allocator@D@2@@std@@PAUtaTexture@@@2@U_Kfn@?$map@V?$basic_string@DU?$char_traits@D@std@@V?$allocator@D@2@@std@@PAUtaTexture@@U?$less@V?$basic_string@DU?$char_traits@D@std@@V?$allocator@D@2@@std@@@2@V?$allocator@PAUtaTexture@@@2@@2@U?$less@V?$basic_string@DU?$char_traits@D@std@@V?$allocator@D@2@@std@@@2@V?$allocator@PAUtaTexture@@@2@@std@@_N@2@ABU?$pair@$$CBV?$basic_string@DU?$char_traits@D@std@@V?$allocator@D@2@@std@@PAUtaTexture@@@2@@Z 00431000 f i TextureHandler.obj
 0001:00030100       ?begin@?$_Tree@V?$basic_string@DU?$char_traits@D@std@@V?$allocator@D@2@@std@@U?$pair@$$CBV?$basic_string@DU?$char_traits@D@std@@V?$allocator@D@2@@std@@PAUtaTexture@@@2@U_Kfn@?$map@V?$basic_string@DU?$char_traits@D@std@@V?$allocator@D@2@@std@@PAUtaTexture@@U?$less@V?$basic_string@DU?$char_traits@D@std@@V?$allocator@D@2@@std@@@2@V?$allocator@PAUtaTexture@@@2@@2@U?$less@V?$basic_string@DU?$char_traits@D@std@@V?$allocator@D@2@@std@@@2@V?$allocator@PAUtaTexture@@@2@@std@@QAE?AViterator@12@XZ 00431100 f i TextureHandler.obj
 0001:00030110       ?erase@?$_Tree@V?$basic_string@DU?$char_traits@D@std@@V?$allocator@D@2@@std@@U?$pair@$$CBV?$basic_string@DU?$char_traits@D@std@@V?$allocator@D@2@@std@@PAUtaTexture@@@2@U_Kfn@?$map@V?$basic_string@DU?$char_traits@D@std@@V?$allocator@D@2@@std@@PAUtaTexture@@U?$less@V?$basic_string@DU?$char_traits@D@std@@V?$allocator@D@2@@std@@@2@V?$allocator@PAUtaTexture@@@2@@2@U?$less@V?$basic_string@DU?$char_traits@D@std@@V?$allocator@D@2@@std@@@2@V?$allocator@PAUtaTexture@@@2@@std@@QAEIABV?$basic_string@DU?$char_traits@D@std@@V?$allocator@D@2@@2@@Z 00431110 f i TextureHandler.obj
 0001:00030250       ?find@?$_Tree@V?$basic_string@DU?$char_traits@D@std@@V?$allocator@D@2@@std@@U?$pair@$$CBV?$basic_string@DU?$char_traits@D@std@@V?$allocator@D@2@@std@@PAUtaTexture@@@2@U_Kfn@?$map@V?$basic_string@DU?$char_traits@D@std@@V?$allocator@D@2@@std@@PAUtaTexture@@U?$less@V?$basic_string@DU?$char_traits@D@std@@V?$allocator@D@2@@std@@@2@V?$allocator@PAUtaTexture@@@2@@2@U?$less@V?$basic_string@DU?$char_traits@D@std@@V?$allocator@D@2@@std@@@2@V?$allocator@PAUtaTexture@@@2@@std@@QAE?AViterator@12@ABV?$basic_string@DU?$char_traits@D@std@@V?$allocator@D@2@@2@@Z 00431250 f i TextureHandler.obj
 0001:00030300       ??0?$pair@$$CBV?$basic_string@DU?$char_traits@D@std@@V?$allocator@D@2@@std@@PAUtaTexture@@@std@@QAE@ABV?$basic_string@DU?$char_traits@D@std@@V?$allocator@D@2@@1@ABQAUtaTexture@@@Z 00431300 f i TextureHandler.obj
 0001:00030440       ?_Inc@const_iterator@?$_Tree@V?$basic_string@DU?$char_traits@D@std@@V?$allocator@D@2@@std@@U?$pair@$$CBV?$basic_string@DU?$char_traits@D@std@@V?$allocator@D@2@@std@@PAUtaTexture@@@2@U_Kfn@?$map@V?$basic_string@DU?$char_traits@D@std@@V?$allocator@D@2@@std@@PAUtaTexture@@U?$less@V?$basic_string@DU?$char_traits@D@std@@V?$allocator@D@2@@std@@@2@V?$allocator@PAUtaTexture@@@2@@2@U?$less@V?$basic_string@DU?$char_traits@D@std@@V?$allocator@D@2@@std@@@2@V?$allocator@PAUtaTexture@@@2@@std@@QAEXXZ 00431440 f i TextureHandler.obj
 0001:00030490       ?insert@?$_Tree@V?$basic_string@DU?$char_traits@D@std@@V?$allocator@D@2@@std@@U?$pair@$$CBV?$basic_string@DU?$char_traits@D@std@@V?$allocator@D@2@@std@@UBigTex@CTextureHandler@@@2@U_Kfn@?$map@V?$basic_string@DU?$char_traits@D@std@@V?$allocator@D@2@@std@@UBigTex@CTextureHandler@@U?$less@V?$basic_string@DU?$char_traits@D@std@@V?$allocator@D@2@@std@@@2@V?$allocator@UBigTex@CTextureHandler@@@2@@2@U?$less@V?$basic_string@DU?$char_traits@D@std@@V?$allocator@D@2@@std@@@2@V?$allocator@UBigTex@CTextureHandler@@@2@@std@@QAE?AU?$pair@Viterator@?$_Tree@V?$basic_string@DU?$char_traits@D@std@@V?$allocator@D@2@@std@@U?$pair@$$CBV?$basic_string@DU?$char_traits@D@std@@V?$allocator@D@2@@std@@UBigTex@CTextureHandler@@@2@U_Kfn@?$map@V?$basic_string@DU?$char_traits@D@std@@V?$allocator@D@2@@std@@UBigTex@CTextureHandler@@U?$less@V?$basic_string@DU?$char_traits@D@std@@V?$allocator@D@2@@std@@@2@V?$allocator@UBigTex@CTextureHandler@@@2@@2@U?$less@V?$basic_string@DU?$char_traits@D@std@@V?$allocator@D@2@@std@@@2@V?$allocator@UBigTex@CTextureHandler@@@2@@std@@_N@2@ABU?$pair@$$CBV?$basic_string@DU?$char_traits@D@std@@V?$allocator@D@2@@std@@UBigTex@CTextureHandler@@@2@@Z 00431490 f i TextureHandler.obj
 0001:000306f0       ?erase@?$_Tree@V?$basic_string@DU?$char_traits@D@std@@V?$allocator@D@2@@std@@U?$pair@$$CBV?$basic_string@DU?$char_traits@D@std@@V?$allocator@D@2@@std@@UBigTex@CTextureHandler@@@2@U_Kfn@?$map@V?$basic_string@DU?$char_traits@D@std@@V?$allocator@D@2@@std@@UBigTex@CTextureHandler@@U?$less@V?$basic_string@DU?$char_traits@D@std@@V?$allocator@D@2@@std@@@2@V?$allocator@UBigTex@CTextureHandler@@@2@@2@U?$less@V?$basic_string@DU?$char_traits@D@std@@V?$allocator@D@2@@std@@@2@V?$allocator@UBigTex@CTextureHandler@@@2@@std@@QAE?AViterator@12@V312@@Z 004316f0 f i TextureHandler.obj
 0001:00030af0       ?lower_bound@?$_Tree@V?$basic_string@DU?$char_traits@D@std@@V?$allocator@D@2@@std@@U?$pair@$$CBV?$basic_string@DU?$char_traits@D@std@@V?$allocator@D@2@@std@@UBigTex@CTextureHandler@@@2@U_Kfn@?$map@V?$basic_string@DU?$char_traits@D@std@@V?$allocator@D@2@@std@@UBigTex@CTextureHandler@@U?$less@V?$basic_string@DU?$char_traits@D@std@@V?$allocator@D@2@@std@@@2@V?$allocator@UBigTex@CTextureHandler@@@2@@2@U?$less@V?$basic_string@DU?$char_traits@D@std@@V?$allocator@D@2@@std@@@2@V?$allocator@UBigTex@CTextureHandler@@@2@@std@@QAE?AViterator@12@ABV?$basic_string@DU?$char_traits@D@std@@V?$allocator@D@2@@2@@Z 00431af0 f i TextureHandler.obj
 0001:00030b60       ?_Erase@?$_Tree@V?$basic_string@DU?$char_traits@D@std@@V?$allocator@D@2@@std@@U?$pair@$$CBV?$basic_string@DU?$char_traits@D@std@@V?$allocator@D@2@@std@@UBigTex@CTextureHandler@@@2@U_Kfn@?$map@V?$basic_string@DU?$char_traits@D@std@@V?$allocator@D@2@@std@@UBigTex@CTextureHandler@@U?$less@V?$basic_string@DU?$char_traits@D@std@@V?$allocator@D@2@@std@@@2@V?$allocator@UBigTex@CTextureHandler@@@2@@2@U?$less@V?$basic_string@DU?$char_traits@D@std@@V?$allocator@D@2@@std@@@2@V?$allocator@UBigTex@CTextureHandler@@@2@@std@@IAEXPAU_Node@12@@Z 00431b60 f i TextureHandler.obj
 0001:00030bb0       ?_Init@?$_Tree@V?$basic_string@DU?$char_traits@D@std@@V?$allocator@D@2@@std@@U?$pair@$$CBV?$basic_string@DU?$char_traits@D@std@@V?$allocator@D@2@@std@@UBigTex@CTextureHandler@@@2@U_Kfn@?$map@V?$basic_string@DU?$char_traits@D@std@@V?$allocator@D@2@@std@@UBigTex@CTextureHandler@@U?$less@V?$basic_string@DU?$char_traits@D@std@@V?$allocator@D@2@@std@@@2@V?$allocator@UBigTex@CTextureHandler@@@2@@2@U?$less@V?$basic_string@DU?$char_traits@D@std@@V?$allocator@D@2@@std@@@2@V?$allocator@UBigTex@CTextureHandler@@@2@@std@@IAEXXZ 00431bb0 f i TextureHandler.obj
 0001:00030c30       ??Eiterator@?$_Tree@V?$basic_string@DU?$char_traits@D@std@@V?$allocator@D@2@@std@@U?$pair@$$CBV?$basic_string@DU?$char_traits@D@std@@V?$allocator@D@2@@std@@UBigTex@CTextureHandler@@@2@U_Kfn@?$map@V?$basic_string@DU?$char_traits@D@std@@V?$allocator@D@2@@std@@UBigTex@CTextureHandler@@U?$less@V?$basic_string@DU?$char_traits@D@std@@V?$allocator@D@2@@std@@@2@V?$allocator@UBigTex@CTextureHandler@@@2@@2@U?$less@V?$basic_string@DU?$char_traits@D@std@@V?$allocator@D@2@@std@@@2@V?$allocator@UBigTex@CTextureHandler@@@2@@std@@QAE?AV012@H@Z 00431c30 f i TextureHandler.obj
 0001:00030c90       ?insert@?$_Tree@V?$basic_string@DU?$char_traits@D@std@@V?$allocator@D@2@@std@@U?$pair@$$CBV?$basic_string@DU?$char_traits@D@std@@V?$allocator@D@2@@std@@PAUtaTexture@@@2@U_Kfn@?$map@V?$basic_string@DU?$char_traits@D@std@@V?$allocator@D@2@@std@@PAUtaTexture@@U?$less@V?$basic_string@DU?$char_traits@D@std@@V?$allocator@D@2@@std@@@2@V?$allocator@PAUtaTexture@@@2@@2@U?$less@V?$basic_string@DU?$char_traits@D@std@@V?$allocator@D@2@@std@@@2@V?$allocator@PAUtaTexture@@@2@@std@@QAE?AU?$pair@Viterator@?$_Tree@V?$basic_string@DU?$char_traits@D@std@@V?$allocator@D@2@@std@@U?$pair@$$CBV?$basic_string@DU?$char_traits@D@std@@V?$allocator@D@2@@std@@PAUtaTexture@@@2@U_Kfn@?$map@V?$basic_string@DU?$char_traits@D@std@@V?$allocator@D@2@@std@@PAUtaTexture@@U?$less@V?$basic_string@DU?$char_traits@D@std@@V?$allocator@D@2@@std@@@2@V?$allocator@PAUtaTexture@@@2@@2@U?$less@V?$basic_string@DU?$char_traits@D@std@@V?$allocator@D@2@@std@@@2@V?$allocator@PAUtaTexture@@@2@@std@@_N@2@ABU?$pair@$$CBV?$basic_string@DU?$char_traits@D@std@@V?$allocator@D@2@@std@@PAUtaTexture@@@2@@Z 00431c90 f i TextureHandler.obj
 0001:00030ef0       ?erase@?$_Tree@V?$basic_string@DU?$char_traits@D@std@@V?$allocator@D@2@@std@@U?$pair@$$CBV?$basic_string@DU?$char_traits@D@std@@V?$allocator@D@2@@std@@PAUtaTexture@@@2@U_Kfn@?$map@V?$basic_string@DU?$char_traits@D@std@@V?$allocator@D@2@@std@@PAUtaTexture@@U?$less@V?$basic_string@DU?$char_traits@D@std@@V?$allocator@D@2@@std@@@2@V?$allocator@PAUtaTexture@@@2@@2@U?$less@V?$basic_string@DU?$char_traits@D@std@@V?$allocator@D@2@@std@@@2@V?$allocator@PAUtaTexture@@@2@@std@@QAE?AViterator@12@V312@@Z 00431ef0 f i TextureHandler.obj
 0001:000312f0       ?_Erase@?$_Tree@V?$basic_string@DU?$char_traits@D@std@@V?$allocator@D@2@@std@@U?$pair@$$CBV?$basic_string@DU?$char_traits@D@std@@V?$allocator@D@2@@std@@PAUtaTexture@@@2@U_Kfn@?$map@V?$basic_string@DU?$char_traits@D@std@@V?$allocator@D@2@@std@@PAUtaTexture@@U?$less@V?$basic_string@DU?$char_traits@D@std@@V?$allocator@D@2@@std@@@2@V?$allocator@PAUtaTexture@@@2@@2@U?$less@V?$basic_string@DU?$char_traits@D@std@@V?$allocator@D@2@@std@@@2@V?$allocator@PAUtaTexture@@@2@@std@@IAEXPAU_Node@12@@Z 004322f0 f i TextureHandler.obj
 0001:00031340       ?_Init@?$_Tree@V?$basic_string@DU?$char_traits@D@std@@V?$allocator@D@2@@std@@U?$pair@$$CBV?$basic_string@DU?$char_traits@D@std@@V?$allocator@D@2@@std@@PAUtaTexture@@@2@U_Kfn@?$map@V?$basic_string@DU?$char_traits@D@std@@V?$allocator@D@2@@std@@PAUtaTexture@@U?$less@V?$basic_string@DU?$char_traits@D@std@@V?$allocator@D@2@@std@@@2@V?$allocator@PAUtaTexture@@@2@@2@U?$less@V?$basic_string@DU?$char_traits@D@std@@V?$allocator@D@2@@std@@@2@V?$allocator@PAUtaTexture@@@2@@std@@IAEXXZ 00432340 f i TextureHandler.obj
 0001:000313c0       ?_Min@?$_Tree@V?$basic_string@DU?$char_traits@D@std@@V?$allocator@D@2@@std@@U?$pair@$$CBV?$basic_string@DU?$char_traits@D@std@@V?$allocator@D@2@@std@@PAUtaTexture@@@2@U_Kfn@?$map@V?$basic_string@DU?$char_traits@D@std@@V?$allocator@D@2@@std@@PAUtaTexture@@U?$less@V?$basic_string@DU?$char_traits@D@std@@V?$allocator@D@2@@std@@@2@V?$allocator@PAUtaTexture@@@2@@2@U?$less@V?$basic_string@DU?$char_traits@D@std@@V?$allocator@D@2@@std@@@2@V?$allocator@PAUtaTexture@@@2@@std@@KAPAU_Node@12@PAU312@@Z 004323c0 f i TextureHandler.obj
 0001:000313e0       ??Eiterator@?$_Tree@V?$basic_string@DU?$char_traits@D@std@@V?$allocator@D@2@@std@@U?$pair@$$CBV?$basic_string@DU?$char_traits@D@std@@V?$allocator@D@2@@std@@PAUtaTexture@@@2@U_Kfn@?$map@V?$basic_string@DU?$char_traits@D@std@@V?$allocator@D@2@@std@@PAUtaTexture@@U?$less@V?$basic_string@DU?$char_traits@D@std@@V?$allocator@D@2@@std@@@2@V?$allocator@PAUtaTexture@@@2@@2@U?$less@V?$basic_string@DU?$char_traits@D@std@@V?$allocator@D@2@@std@@@2@V?$allocator@PAUtaTexture@@@2@@std@@QAE?AV012@H@Z 004323e0 f i TextureHandler.obj
 0001:00031440       ??0?$pair@Viterator@?$_Tree@V?$basic_string@DU?$char_traits@D@std@@V?$allocator@D@2@@std@@U?$pair@$$CBV?$basic_string@DU?$char_traits@D@std@@V?$allocator@D@2@@std@@UBigTex@CTextureHandler@@@2@U_Kfn@?$map@V?$basic_string@DU?$char_traits@D@std@@V?$allocator@D@2@@std@@UBigTex@CTextureHandler@@U?$less@V?$basic_string@DU?$char_traits@D@std@@V?$allocator@D@2@@std@@@2@V?$allocator@UBigTex@CTextureHandler@@@2@@2@U?$less@V?$basic_string@DU?$char_traits@D@std@@V?$allocator@D@2@@std@@@2@V?$allocator@UBigTex@CTextureHandler@@@2@@std@@_N@std@@QAE@ABViterator@?$_Tree@V?$basic_string@DU?$char_traits@D@std@@V?$allocator@D@2@@std@@U?$pair@$$CBV?$basic_string@DU?$char_traits@D@std@@V?$allocator@D@2@@std@@UBigTex@CTextureHandler@@@2@U_Kfn@?$map@V?$basic_string@DU?$char_traits@D@std@@V?$allocator@D@2@@std@@UBigTex@CTextureHandler@@U?$less@V?$basic_string@DU?$char_traits@D@std@@V?$allocator@D@2@@std@@@2@V?$allocator@UBigTex@CTextureHandler@@@2@@2@U?$less@V?$basic_string@DU?$char_traits@D@std@@V?$allocator@D@2@@std@@@2@V?$allocator@UBigTex@CTextureHandler@@@2@@1@AB_N@Z 00432440 f i TextureHandler.obj
 0001:00031460       ??0?$pair@Viterator@?$_Tree@V?$basic_string@DU?$char_traits@D@std@@V?$allocator@D@2@@std@@U?$pair@$$CBV?$basic_string@DU?$char_traits@D@std@@V?$allocator@D@2@@std@@PAUtaTexture@@@2@U_Kfn@?$map@V?$basic_string@DU?$char_traits@D@std@@V?$allocator@D@2@@std@@PAUtaTexture@@U?$less@V?$basic_string@DU?$char_traits@D@std@@V?$allocator@D@2@@std@@@2@V?$allocator@PAUtaTexture@@@2@@2@U?$less@V?$basic_string@DU?$char_traits@D@std@@V?$allocator@D@2@@std@@@2@V?$allocator@PAUtaTexture@@@2@@std@@_N@std@@QAE@ABViterator@?$_Tree@V?$basic_string@DU?$char_traits@D@std@@V?$allocator@D@2@@std@@U?$pair@$$CBV?$basic_string@DU?$char_traits@D@std@@V?$allocator@D@2@@std@@PAUtaTexture@@@2@U_Kfn@?$map@V?$basic_string@DU?$char_traits@D@std@@V?$allocator@D@2@@std@@PAUtaTexture@@U?$less@V?$basic_string@DU?$char_traits@D@std@@V?$allocator@D@2@@std@@@2@V?$allocator@PAUtaTexture@@@2@@2@U?$less@V?$basic_string@DU?$char_traits@D@std@@V?$allocator@D@2@@std@@@2@V?$allocator@PAUtaTexture@@@2@@1@AB_N@Z 00432460 f i TextureHandler.obj
 0001:00031480       ?_Insert@?$_Tree@V?$basic_string@DU?$char_traits@D@std@@V?$allocator@D@2@@std@@U?$pair@$$CBV?$basic_string@DU?$char_traits@D@std@@V?$allocator@D@2@@std@@UBigTex@CTextureHandler@@@2@U_Kfn@?$map@V?$basic_string@DU?$char_traits@D@std@@V?$allocator@D@2@@std@@UBigTex@CTextureHandler@@U?$less@V?$basic_string@DU?$char_traits@D@std@@V?$allocator@D@2@@std@@@2@V?$allocator@UBigTex@CTextureHandler@@@2@@2@U?$less@V?$basic_string@DU?$char_traits@D@std@@V?$allocator@D@2@@std@@@2@V?$allocator@UBigTex@CTextureHandler@@@2@@std@@IAE?AViterator@12@PAU_Node@12@0ABU?$pair@$$CBV?$basic_string@DU?$char_traits@D@std@@V?$allocator@D@2@@std@@UBigTex@CTextureHandler@@@2@@Z 00432480 f i TextureHandler.obj
 0001:000316f0       ?_Lrotate@?$_Tree@V?$basic_string@DU?$char_traits@D@std@@V?$allocator@D@2@@std@@U?$pair@$$CBV?$basic_string@DU?$char_traits@D@std@@V?$allocator@D@2@@std@@UBigTex@CTextureHandler@@@2@U_Kfn@?$map@V?$basic_string@DU?$char_traits@D@std@@V?$allocator@D@2@@std@@UBigTex@CTextureHandler@@U?$less@V?$basic_string@DU?$char_traits@D@std@@V?$allocator@D@2@@std@@@2@V?$allocator@UBigTex@CTextureHandler@@@2@@2@U?$less@V?$basic_string@DU?$char_traits@D@std@@V?$allocator@D@2@@std@@@2@V?$allocator@UBigTex@CTextureHandler@@@2@@std@@IAEXPAU_Node@12@@Z 004326f0 f i TextureHandler.obj
 0001:00031750       ?_Rrotate@?$_Tree@V?$basic_string@DU?$char_traits@D@std@@V?$allocator@D@2@@std@@U?$pair@$$CBV?$basic_string@DU?$char_traits@D@std@@V?$allocator@D@2@@std@@UBigTex@CTextureHandler@@@2@U_Kfn@?$map@V?$basic_string@DU?$char_traits@D@std@@V?$allocator@D@2@@std@@UBigTex@CTextureHandler@@U?$less@V?$basic_string@DU?$char_traits@D@std@@V?$allocator@D@2@@std@@@2@V?$allocator@UBigTex@CTextureHandler@@@2@@2@U?$less@V?$basic_string@DU?$char_traits@D@std@@V?$allocator@D@2@@std@@@2@V?$allocator@UBigTex@CTextureHandler@@@2@@std@@IAEXPAU_Node@12@@Z 00432750 f i TextureHandler.obj
 0001:000317b0       ?_Buynode@?$_Tree@V?$basic_string@DU?$char_traits@D@std@@V?$allocator@D@2@@std@@U?$pair@$$CBV?$basic_string@DU?$char_traits@D@std@@V?$allocator@D@2@@std@@UBigTex@CTextureHandler@@@2@U_Kfn@?$map@V?$basic_string@DU?$char_traits@D@std@@V?$allocator@D@2@@std@@UBigTex@CTextureHandler@@U?$less@V?$basic_string@DU?$char_traits@D@std@@V?$allocator@D@2@@std@@@2@V?$allocator@UBigTex@CTextureHandler@@@2@@2@U?$less@V?$basic_string@DU?$char_traits@D@std@@V?$allocator@D@2@@std@@@2@V?$allocator@UBigTex@CTextureHandler@@@2@@std@@IAEPAU_Node@12@PAU312@W4_Redbl@12@@Z 004327b0 f i TextureHandler.obj
 0001:000317d0       ?_Insert@?$_Tree@V?$basic_string@DU?$char_traits@D@std@@V?$allocator@D@2@@std@@U?$pair@$$CBV?$basic_string@DU?$char_traits@D@std@@V?$allocator@D@2@@std@@PAUtaTexture@@@2@U_Kfn@?$map@V?$basic_string@DU?$char_traits@D@std@@V?$allocator@D@2@@std@@PAUtaTexture@@U?$less@V?$basic_string@DU?$char_traits@D@std@@V?$allocator@D@2@@std@@@2@V?$allocator@PAUtaTexture@@@2@@2@U?$less@V?$basic_string@DU?$char_traits@D@std@@V?$allocator@D@2@@std@@@2@V?$allocator@PAUtaTexture@@@2@@std@@IAE?AViterator@12@PAU_Node@12@0ABU?$pair@$$CBV?$basic_string@DU?$char_traits@D@std@@V?$allocator@D@2@@std@@PAUtaTexture@@@2@@Z 004327d0 f i TextureHandler.obj
 0001:00031a40       ?_Lrotate@?$_Tree@V?$basic_string@DU?$char_traits@D@std@@V?$allocator@D@2@@std@@U?$pair@$$CBV?$basic_string@DU?$char_traits@D@std@@V?$allocator@D@2@@std@@PAUtaTexture@@@2@U_Kfn@?$map@V?$basic_string@DU?$char_traits@D@std@@V?$allocator@D@2@@std@@PAUtaTexture@@U?$less@V?$basic_string@DU?$char_traits@D@std@@V?$allocator@D@2@@std@@@2@V?$allocator@PAUtaTexture@@@2@@2@U?$less@V?$basic_string@DU?$char_traits@D@std@@V?$allocator@D@2@@std@@@2@V?$allocator@PAUtaTexture@@@2@@std@@IAEXPAU_Node@12@@Z 00432a40 f i TextureHandler.obj
 0001:00031aa0       ?_Rrotate@?$_Tree@V?$basic_string@DU?$char_traits@D@std@@V?$allocator@D@2@@std@@U?$pair@$$CBV?$basic_string@DU?$char_traits@D@std@@V?$allocator@D@2@@std@@PAUtaTexture@@@2@U_Kfn@?$map@V?$basic_string@DU?$char_traits@D@std@@V?$allocator@D@2@@std@@PAUtaTexture@@U?$less@V?$basic_string@DU?$char_traits@D@std@@V?$allocator@D@2@@std@@@2@V?$allocator@PAUtaTexture@@@2@@2@U?$less@V?$basic_string@DU?$char_traits@D@std@@V?$allocator@D@2@@std@@@2@V?$allocator@PAUtaTexture@@@2@@std@@IAEXPAU_Node@12@@Z 00432aa0 f i TextureHandler.obj
 0001:00031b00       ?_Buynode@?$_Tree@V?$basic_string@DU?$char_traits@D@std@@V?$allocator@D@2@@std@@U?$pair@$$CBV?$basic_string@DU?$char_traits@D@std@@V?$allocator@D@2@@std@@PAUtaTexture@@@2@U_Kfn@?$map@V?$basic_string@DU?$char_traits@D@std@@V?$allocator@D@2@@std@@PAUtaTexture@@U?$less@V?$basic_string@DU?$char_traits@D@std@@V?$allocator@D@2@@std@@@2@V?$allocator@PAUtaTexture@@@2@@2@U?$less@V?$basic_string@DU?$char_traits@D@std@@V?$allocator@D@2@@std@@@2@V?$allocator@PAUtaTexture@@@2@@std@@IAEPAU_Node@12@PAU312@W4_Redbl@12@@Z 00432b00 f i TextureHandler.obj
 0001:00031b20       ?_Dec@const_iterator@?$_Tree@V?$basic_string@DU?$char_traits@D@std@@V?$allocator@D@2@@std@@U?$pair@$$CBV?$basic_string@DU?$char_traits@D@std@@V?$allocator@D@2@@std@@UBigTex@CTextureHandler@@@2@U_Kfn@?$map@V?$basic_string@DU?$char_traits@D@std@@V?$allocator@D@2@@std@@UBigTex@CTextureHandler@@U?$less@V?$basic_string@DU?$char_traits@D@std@@V?$allocator@D@2@@std@@@2@V?$allocator@UBigTex@CTextureHandler@@@2@@2@U?$less@V?$basic_string@DU?$char_traits@D@std@@V?$allocator@D@2@@std@@@2@V?$allocator@UBigTex@CTextureHandler@@@2@@std@@QAEXXZ 00432b20 f i TextureHandler.obj
 0001:00031b80       ?_Ubound@?$_Tree@V?$basic_string@DU?$char_traits@D@std@@V?$allocator@D@2@@std@@U?$pair@$$CBV?$basic_string@DU?$char_traits@D@std@@V?$allocator@D@2@@std@@PAUtaTexture@@@2@U_Kfn@?$map@V?$basic_string@DU?$char_traits@D@std@@V?$allocator@D@2@@std@@PAUtaTexture@@U?$less@V?$basic_string@DU?$char_traits@D@std@@V?$allocator@D@2@@std@@@2@V?$allocator@PAUtaTexture@@@2@@2@U?$less@V?$basic_string@DU?$char_traits@D@std@@V?$allocator@D@2@@std@@@2@V?$allocator@PAUtaTexture@@@2@@std@@IBEPAU_Node@12@ABV?$basic_string@DU?$char_traits@D@std@@V?$allocator@D@2@@2@@Z 00432b80 f i TextureHandler.obj
 0001:00031c10       ?_Dec@const_iterator@?$_Tree@V?$basic_string@DU?$char_traits@D@std@@V?$allocator@D@2@@std@@U?$pair@$$CBV?$basic_string@DU?$char_traits@D@std@@V?$allocator@D@2@@std@@PAUtaTexture@@@2@U_Kfn@?$map@V?$basic_string@DU?$char_traits@D@std@@V?$allocator@D@2@@std@@PAUtaTexture@@U?$less@V?$basic_string@DU?$char_traits@D@std@@V?$allocator@D@2@@std@@@2@V?$allocator@PAUtaTexture@@@2@@2@U?$less@V?$basic_string@DU?$char_traits@D@std@@V?$allocator@D@2@@std@@@2@V?$allocator@PAUtaTexture@@@2@@std@@QAEXXZ 00432c10 f i TextureHandler.obj
 0001:00031c70       ?_Construct@std@@YAXPAU?$pair@$$CBV?$basic_string@DU?$char_traits@D@std@@V?$allocator@D@2@@std@@UBigTex@CTextureHandler@@@1@ABU21@@Z 00432c70 f i TextureHandler.obj
 0001:00031dd0       ?_Construct@std@@YAXPAU?$pair@$$CBV?$basic_string@DU?$char_traits@D@std@@V?$allocator@D@2@@std@@PAUtaTexture@@@1@ABU21@@Z 00432dd0 f i TextureHandler.obj
 0001:00031f20       ??_G?$pair@$$CBV?$basic_string@DU?$char_traits@D@std@@V?$allocator@D@2@@std@@PAUtaTexture@@@std@@QAEPAXI@Z 00432f20 f i TextureHandler.obj
 0001:00031fb0       ??0CTimeProfiler@@QAE@XZ   00432fb0 f   TimeProfiler.obj
 0001:00032050       ??_GCTimeProfiler@@UAEPAXI@Z 00433050 f i TimeProfiler.obj
 0001:00032050       ??_ECTimeProfiler@@UAEPAXI@Z 00433050 f i TimeProfiler.obj
 0001:00032070       ??1CTimeProfiler@@UAE@XZ   00433070 f   TimeProfiler.obj
 0001:00032130       ?Draw@CTimeProfiler@@QAEXXZ 00433130 f   TimeProfiler.obj
 0001:000322e0       ?Update@CTimeProfiler@@QAEXXZ 004332e0 f   TimeProfiler.obj
 0001:00032340       ?AddTime@CTimeProfiler@@QAEXV?$basic_string@DU?$char_traits@D@std@@V?$allocator@D@2@@std@@_J@Z 00433340 f   TimeProfiler.obj
 0001:000325b0       ??1?$pair@$$CBV?$basic_string@DU?$char_traits@D@std@@V?$allocator@D@2@@std@@UTimeRecord@CTimeProfiler@@@std@@QAE@XZ 004335b0 f i TimeProfiler.obj
 0001:000325f0       ?insert@?$map@V?$basic_string@DU?$char_traits@D@std@@V?$allocator@D@2@@std@@UTimeRecord@CTimeProfiler@@U?$less@V?$basic_string@DU?$char_traits@D@std@@V?$allocator@D@2@@std@@@2@V?$allocator@UTimeRecord@CTimeProfiler@@@2@@std@@QAE?AU?$pair@Viterator@?$_Tree@V?$basic_string@DU?$char_traits@D@std@@V?$allocator@D@2@@std@@U?$pair@$$CBV?$basic_string@DU?$char_traits@D@std@@V?$allocator@D@2@@std@@UTimeRecord@CTimeProfiler@@@2@U_Kfn@?$map@V?$basic_string@DU?$char_traits@D@std@@V?$allocator@D@2@@std@@UTimeRecord@CTimeProfiler@@U?$less@V?$basic_string@DU?$char_traits@D@std@@V?$allocator@D@2@@std@@@2@V?$allocator@UTimeRecord@CTimeProfiler@@@2@@2@U?$less@V?$basic_string@DU?$char_traits@D@std@@V?$allocator@D@2@@std@@@2@V?$allocator@UTimeRecord@CTimeProfiler@@@2@@std@@_N@2@ABU?$pair@$$CBV?$basic_string@DU?$char_traits@D@std@@V?$allocator@D@2@@std@@UTimeRecord@CTimeProfiler@@@2@@Z 004335f0 f i TimeProfiler.obj
 0001:000326f0       ?begin@?$_Tree@V?$basic_string@DU?$char_traits@D@std@@V?$allocator@D@2@@std@@U?$pair@$$CBV?$basic_string@DU?$char_traits@D@std@@V?$allocator@D@2@@std@@UTimeRecord@CTimeProfiler@@@2@U_Kfn@?$map@V?$basic_string@DU?$char_traits@D@std@@V?$allocator@D@2@@std@@UTimeRecord@CTimeProfiler@@U?$less@V?$basic_string@DU?$char_traits@D@std@@V?$allocator@D@2@@std@@@2@V?$allocator@UTimeRecord@CTimeProfiler@@@2@@2@U?$less@V?$basic_string@DU?$char_traits@D@std@@V?$allocator@D@2@@std@@@2@V?$allocator@UTimeRecord@CTimeProfiler@@@2@@std@@QAE?AViterator@12@XZ 004336f0 f i TimeProfiler.obj
 0001:00032700       ?_Inc@const_iterator@?$_Tree@V?$basic_string@DU?$char_traits@D@std@@V?$allocator@D@2@@std@@U?$pair@$$CBV?$basic_string@DU?$char_traits@D@std@@V?$allocator@D@2@@std@@UTimeRecord@CTimeProfiler@@@2@U_Kfn@?$map@V?$basic_string@DU?$char_traits@D@std@@V?$allocator@D@2@@std@@UTimeRecord@CTimeProfiler@@U?$less@V?$basic_string@DU?$char_traits@D@std@@V?$allocator@D@2@@std@@@2@V?$allocator@UTimeRecord@CTimeProfiler@@@2@@2@U?$less@V?$basic_string@DU?$char_traits@D@std@@V?$allocator@D@2@@std@@@2@V?$allocator@UTimeRecord@CTimeProfiler@@@2@@std@@QAEXXZ 00433700 f i TimeProfiler.obj
 0001:00032750       ?insert@?$_Tree@V?$basic_string@DU?$char_traits@D@std@@V?$allocator@D@2@@std@@U?$pair@$$CBV?$basic_string@DU?$char_traits@D@std@@V?$allocator@D@2@@std@@UTimeRecord@CTimeProfiler@@@2@U_Kfn@?$map@V?$basic_string@DU?$char_traits@D@std@@V?$allocator@D@2@@std@@UTimeRecord@CTimeProfiler@@U?$less@V?$basic_string@DU?$char_traits@D@std@@V?$allocator@D@2@@std@@@2@V?$allocator@UTimeRecord@CTimeProfiler@@@2@@2@U?$less@V?$basic_string@DU?$char_traits@D@std@@V?$allocator@D@2@@std@@@2@V?$allocator@UTimeRecord@CTimeProfiler@@@2@@std@@QAE?AU?$pair@Viterator@?$_Tree@V?$basic_string@DU?$char_traits@D@std@@V?$allocator@D@2@@std@@U?$pair@$$CBV?$basic_string@DU?$char_traits@D@std@@V?$allocator@D@2@@std@@UTimeRecord@CTimeProfiler@@@2@U_Kfn@?$map@V?$basic_string@DU?$char_traits@D@std@@V?$allocator@D@2@@std@@UTimeRecord@CTimeProfiler@@U?$less@V?$basic_string@DU?$char_traits@D@std@@V?$allocator@D@2@@std@@@2@V?$allocator@UTimeRecord@CTimeProfiler@@@2@@2@U?$less@V?$basic_string@DU?$char_traits@D@std@@V?$allocator@D@2@@std@@@2@V?$allocator@UTimeRecord@CTimeProfiler@@@2@@std@@_N@2@ABU?$pair@$$CBV?$basic_string@DU?$char_traits@D@std@@V?$allocator@D@2@@std@@UTimeRecord@CTimeProfiler@@@2@@Z 00433750 f i TimeProfiler.obj
 0001:000329b0       ?erase@?$_Tree@V?$basic_string@DU?$char_traits@D@std@@V?$allocator@D@2@@std@@U?$pair@$$CBV?$basic_string@DU?$char_traits@D@std@@V?$allocator@D@2@@std@@UTimeRecord@CTimeProfiler@@@2@U_Kfn@?$map@V?$basic_string@DU?$char_traits@D@std@@V?$allocator@D@2@@std@@UTimeRecord@CTimeProfiler@@U?$less@V?$basic_string@DU?$char_traits@D@std@@V?$allocator@D@2@@std@@@2@V?$allocator@UTimeRecord@CTimeProfiler@@@2@@2@U?$less@V?$basic_string@DU?$char_traits@D@std@@V?$allocator@D@2@@std@@@2@V?$allocator@UTimeRecord@CTimeProfiler@@@2@@std@@QAE?AViterator@12@V312@@Z 004339b0 f i TimeProfiler.obj
 0001:00032db0       ?lower_bound@?$_Tree@V?$basic_string@DU?$char_traits@D@std@@V?$allocator@D@2@@std@@U?$pair@$$CBV?$basic_string@DU?$char_traits@D@std@@V?$allocator@D@2@@std@@UTimeRecord@CTimeProfiler@@@2@U_Kfn@?$map@V?$basic_string@DU?$char_traits@D@std@@V?$allocator@D@2@@std@@UTimeRecord@CTimeProfiler@@U?$less@V?$basic_string@DU?$char_traits@D@std@@V?$allocator@D@2@@std@@@2@V?$allocator@UTimeRecord@CTimeProfiler@@@2@@2@U?$less@V?$basic_string@DU?$char_traits@D@std@@V?$allocator@D@2@@std@@@2@V?$allocator@UTimeRecord@CTimeProfiler@@@2@@std@@QAE?AViterator@12@ABV?$basic_string@DU?$char_traits@D@std@@V?$allocator@D@2@@2@@Z 00433db0 f i TimeProfiler.obj
 0001:00032e20       ?_Erase@?$_Tree@V?$basic_string@DU?$char_traits@D@std@@V?$allocator@D@2@@std@@U?$pair@$$CBV?$basic_string@DU?$char_traits@D@std@@V?$allocator@D@2@@std@@UTimeRecord@CTimeProfiler@@@2@U_Kfn@?$map@V?$basic_string@DU?$char_traits@D@std@@V?$allocator@D@2@@std@@UTimeRecord@CTimeProfiler@@U?$less@V?$basic_string@DU?$char_traits@D@std@@V?$allocator@D@2@@std@@@2@V?$allocator@UTimeRecord@CTimeProfiler@@@2@@2@U?$less@V?$basic_string@DU?$char_traits@D@std@@V?$allocator@D@2@@std@@@2@V?$allocator@UTimeRecord@CTimeProfiler@@@2@@std@@IAEXPAU_Node@12@@Z 00433e20 f i TimeProfiler.obj
 0001:00032e70       ?_Min@?$_Tree@V?$basic_string@DU?$char_traits@D@std@@V?$allocator@D@2@@std@@U?$pair@$$CBV?$basic_string@DU?$char_traits@D@std@@V?$allocator@D@2@@std@@UTimeRecord@CTimeProfiler@@@2@U_Kfn@?$map@V?$basic_string@DU?$char_traits@D@std@@V?$allocator@D@2@@std@@UTimeRecord@CTimeProfiler@@U?$less@V?$basic_string@DU?$char_traits@D@std@@V?$allocator@D@2@@std@@@2@V?$allocator@UTimeRecord@CTimeProfiler@@@2@@2@U?$less@V?$basic_string@DU?$char_traits@D@std@@V?$allocator@D@2@@std@@@2@V?$allocator@UTimeRecord@CTimeProfiler@@@2@@std@@KAPAU_Node@12@PAU312@@Z 00433e70 f i TimeProfiler.obj
 0001:00032e90       ??0?$pair@Viterator@?$_Tree@V?$basic_string@DU?$char_traits@D@std@@V?$allocator@D@2@@std@@U?$pair@$$CBV?$basic_string@DU?$char_traits@D@std@@V?$allocator@D@2@@std@@UTimeRecord@CTimeProfiler@@@2@U_Kfn@?$map@V?$basic_string@DU?$char_traits@D@std@@V?$allocator@D@2@@std@@UTimeRecord@CTimeProfiler@@U?$less@V?$basic_string@DU?$char_traits@D@std@@V?$allocator@D@2@@std@@@2@V?$allocator@UTimeRecord@CTimeProfiler@@@2@@2@U?$less@V?$basic_string@DU?$char_traits@D@std@@V?$allocator@D@2@@std@@@2@V?$allocator@UTimeRecord@CTimeProfiler@@@2@@std@@_N@std@@QAE@ABViterator@?$_Tree@V?$basic_string@DU?$char_traits@D@std@@V?$allocator@D@2@@std@@U?$pair@$$CBV?$basic_string@DU?$char_traits@D@std@@V?$allocator@D@2@@std@@UTimeRecord@CTimeProfiler@@@2@U_Kfn@?$map@V?$basic_string@DU?$char_traits@D@std@@V?$allocator@D@2@@std@@UTimeRecord@CTimeProfiler@@U?$less@V?$basic_string@DU?$char_traits@D@std@@V?$allocator@D@2@@std@@@2@V?$allocator@UTimeRecord@CTimeProfiler@@@2@@2@U?$less@V?$basic_string@DU?$char_traits@D@std@@V?$allocator@D@2@@std@@@2@V?$allocator@UTimeRecord@CTimeProfiler@@@2@@1@AB_N@Z 00433e90 f i TimeProfiler.obj
 0001:00032eb0       ?_Insert@?$_Tree@V?$basic_string@DU?$char_traits@D@std@@V?$allocator@D@2@@std@@U?$pair@$$CBV?$basic_string@DU?$char_traits@D@std@@V?$allocator@D@2@@std@@UTimeRecord@CTimeProfiler@@@2@U_Kfn@?$map@V?$basic_string@DU?$char_traits@D@std@@V?$allocator@D@2@@std@@UTimeRecord@CTimeProfiler@@U?$less@V?$basic_string@DU?$char_traits@D@std@@V?$allocator@D@2@@std@@@2@V?$allocator@UTimeRecord@CTimeProfiler@@@2@@2@U?$less@V?$basic_string@DU?$char_traits@D@std@@V?$allocator@D@2@@std@@@2@V?$allocator@UTimeRecord@CTimeProfiler@@@2@@std@@IAE?AViterator@12@PAU_Node@12@0ABU?$pair@$$CBV?$basic_string@DU?$char_traits@D@std@@V?$allocator@D@2@@std@@UTimeRecord@CTimeProfiler@@@2@@Z 00433eb0 f i TimeProfiler.obj
 0001:00033120       ?_Lrotate@?$_Tree@V?$basic_string@DU?$char_traits@D@std@@V?$allocator@D@2@@std@@U?$pair@$$CBV?$basic_string@DU?$char_traits@D@std@@V?$allocator@D@2@@std@@UTimeRecord@CTimeProfiler@@@2@U_Kfn@?$map@V?$basic_string@DU?$char_traits@D@std@@V?$allocator@D@2@@std@@UTimeRecord@CTimeProfiler@@U?$less@V?$basic_string@DU?$char_traits@D@std@@V?$allocator@D@2@@std@@@2@V?$allocator@UTimeRecord@CTimeProfiler@@@2@@2@U?$less@V?$basic_string@DU?$char_traits@D@std@@V?$allocator@D@2@@std@@@2@V?$allocator@UTimeRecord@CTimeProfiler@@@2@@std@@IAEXPAU_Node@12@@Z 00434120 f i TimeProfiler.obj
 0001:00033180       ?_Rrotate@?$_Tree@V?$basic_string@DU?$char_traits@D@std@@V?$allocator@D@2@@std@@U?$pair@$$CBV?$basic_string@DU?$char_traits@D@std@@V?$allocator@D@2@@std@@UTimeRecord@CTimeProfiler@@@2@U_Kfn@?$map@V?$basic_string@DU?$char_traits@D@std@@V?$allocator@D@2@@std@@UTimeRecord@CTimeProfiler@@U?$less@V?$basic_string@DU?$char_traits@D@std@@V?$allocator@D@2@@std@@@2@V?$allocator@UTimeRecord@CTimeProfiler@@@2@@2@U?$less@V?$basic_string@DU?$char_traits@D@std@@V?$allocator@D@2@@std@@@2@V?$allocator@UTimeRecord@CTimeProfiler@@@2@@std@@IAEXPAU_Node@12@@Z 00434180 f i TimeProfiler.obj
 0001:000331e0       ?_Buynode@?$_Tree@V?$basic_string@DU?$char_traits@D@std@@V?$allocator@D@2@@std@@U?$pair@$$CBV?$basic_string@DU?$char_traits@D@std@@V?$allocator@D@2@@std@@UTimeRecord@CTimeProfiler@@@2@U_Kfn@?$map@V?$basic_string@DU?$char_traits@D@std@@V?$allocator@D@2@@std@@UTimeRecord@CTimeProfiler@@U?$less@V?$basic_string@DU?$char_traits@D@std@@V?$allocator@D@2@@std@@@2@V?$allocator@UTimeRecord@CTimeProfiler@@@2@@2@U?$less@V?$basic_string@DU?$char_traits@D@std@@V?$allocator@D@2@@std@@@2@V?$allocator@UTimeRecord@CTimeProfiler@@@2@@std@@IAEPAU_Node@12@PAU312@W4_Redbl@12@@Z 004341e0 f i TimeProfiler.obj
 0001:00033200       ?_Dec@const_iterator@?$_Tree@V?$basic_string@DU?$char_traits@D@std@@V?$allocator@D@2@@std@@U?$pair@$$CBV?$basic_string@DU?$char_traits@D@std@@V?$allocator@D@2@@std@@UTimeRecord@CTimeProfiler@@@2@U_Kfn@?$map@V?$basic_string@DU?$char_traits@D@std@@V?$allocator@D@2@@std@@UTimeRecord@CTimeProfiler@@U?$less@V?$basic_string@DU?$char_traits@D@std@@V?$allocator@D@2@@std@@@2@V?$allocator@UTimeRecord@CTimeProfiler@@@2@@2@U?$less@V?$basic_string@DU?$char_traits@D@std@@V?$allocator@D@2@@std@@@2@V?$allocator@UTimeRecord@CTimeProfiler@@@2@@std@@QAEXXZ 00434200 f i TimeProfiler.obj
 0001:00033260       ?_Construct@std@@YAXPAU?$pair@$$CBV?$basic_string@DU?$char_traits@D@std@@V?$allocator@D@2@@std@@UTimeRecord@CTimeProfiler@@@1@ABU21@@Z 00434260 f i TimeProfiler.obj
 0001:00033430       ??0CTreeDrawer@@QAE@XZ     00434430 f   TreeDrawer.obj
 0001:00034150       ??_ECTreeDrawer@@UAEPAXI@Z 00435150 f i TreeDrawer.obj
 0001:00034150       ??_GCTreeDrawer@@UAEPAXI@Z 00435150 f i TreeDrawer.obj
 0001:000341b0       ??_EFeature@CTreeDrawer@@QAEPAXI@Z 004351b0 f i TreeDrawer.obj
 0001:00034210       ??0Feature@CTreeDrawer@@QAE@XZ 00435210 f i TreeDrawer.obj
 0001:00034220       ??1Feature@CTreeDrawer@@QAE@XZ 00435220 f i TreeDrawer.obj
 0001:00034230       ??1CTreeDrawer@@UAE@XZ     00435230 f   TreeDrawer.obj
 0001:00034280       ?Draw@CTreeDrawer@@QAEXM@Z 00435280 f   TreeDrawer.obj
 0001:00035c40       ?CreateTreeTex@CTreeDrawer@@QAEXAAIPAEHH@Z 00436c40 f   TreeDrawer.obj
 0001:00035e40       ?TestClean@CTreeDrawer@@QAEXH@Z 00436e40 f   TreeDrawer.obj
 0001:00035ec0       ?CreateInMapFeature@CTreeDrawer@@QAEXHPAEAAV?$basic_string@DU?$char_traits@D@std@@V?$allocator@D@2@@std@@H@Z 00436ec0 f   TreeDrawer.obj
 0001:00036550       ??0CUnitDrawer@@QAE@XZ     00437550 f   UnitDrawer.obj
 0001:000365f0       ??_ECUnitDrawer@@UAEPAXI@Z 004375f0 f i UnitDrawer.obj
 0001:000365f0       ??_GCUnitDrawer@@UAEPAXI@Z 004375f0 f i UnitDrawer.obj
 0001:00036610       ??1CUnitDrawer@@UAE@XZ     00437610 f   UnitDrawer.obj
 0001:00036620       ?Draw@CUnitDrawer@@QAEXXZ  00437620 f   UnitDrawer.obj
 0001:00037390       ?DrawPart@CUnitDrawer@@QAEXPAUS3DO@@@Z 00438390 f   UnitDrawer.obj
 0001:000374d0       ??0CVertexArray@@QAE@XZ    004384d0 f   VertexArray.obj
 0001:00037510       ??_GCVertexArray@@UAEPAXI@Z 00438510 f i VertexArray.obj
 0001:00037510       ??_ECVertexArray@@UAEPAXI@Z 00438510 f i VertexArray.obj
 0001:00037560       ??1CVertexArray@@UAE@XZ    00438560 f   VertexArray.obj
 0001:00037590       ?EndStrip@CVertexArray@@QAEXXZ 00438590 f   VertexArray.obj
 0001:000375c0       ?IsReady@CVertexArray@@UAE_NXZ 004385c0 f   VertexArray.obj
 0001:000375d0       ?Initialize@CVertexArray@@UAEHXZ 004385d0 f   VertexArray.obj
 0001:000375e0       ?AddVertexT@CVertexArray@@QAEXAAVfloat3@@MM@Z 004385e0 f   VertexArray.obj
 0001:00037660       ?AddVertex2DT@CVertexArray@@QAEXMMMM@Z 00438660 f   VertexArray.obj
 0001:000376e0       ?AddVertexT2@CVertexArray@@QAEXAAVfloat3@@MMMM@Z 004386e0 f   VertexArray.obj
 0001:00037780       ?AddVertexTN@CVertexArray@@QAEXAAVfloat3@@MM0@Z 00438780 f   VertexArray.obj
 0001:00037840       ?AddVertexTC@CVertexArray@@QAEXAAVfloat3@@MMPAE@Z 00438840 f   VertexArray.obj
 0001:000378d0       ?DrawArrayT@CVertexArray@@UAEXHH@Z 004388d0 f   VertexArray.obj
 0001:000379a0       ?DrawArray2DT@CVertexArray@@UAEXHH@Z 004389a0 f   VertexArray.obj
 0001:00037a70       ?DrawArrayT2@CVertexArray@@UAEXHH@Z 00438a70 f   VertexArray.obj
 0001:00037ba0       ?DrawArrayTN@CVertexArray@@UAEXHH@Z 00438ba0 f   VertexArray.obj
 0001:00037c90       ?DrawArrayTC@CVertexArray@@UAEXHH@Z 00438c90 f   VertexArray.obj
 0001:00037d90       ?EnlargeDrawArray@CVertexArray@@UAEXXZ 00438d90 f   VertexArray.obj
 0001:00037de0       ?EnlargeStripArray@CVertexArray@@UAEXXZ 00438de0 f   VertexArray.obj
 0001:00037e30       ??0CVertexArrayRange@@QAE@PAMH@Z 00438e30 f   VertexArrayRange.obj
 0001:00037eb0       ??_GCVertexArrayRange@@UAEPAXI@Z 00438eb0 f i VertexArrayRange.obj
 0001:00037eb0       ??_ECVertexArrayRange@@UAEPAXI@Z 00438eb0 f i VertexArrayRange.obj
 0001:00037ed0       ??1CVertexArrayRange@@UAE@XZ 00438ed0 f   VertexArrayRange.obj
 0001:00037f30       ?Initialize@CVertexArrayRange@@UAEHXZ 00438f30 f   VertexArrayRange.obj
 0001:00037f50       ?IsReady@CVertexArrayRange@@UAE_NXZ 00438f50 f   VertexArrayRange.obj
 0001:00037f70       ?DrawArrayT@CVertexArrayRange@@UAEXHH@Z 00438f70 f   VertexArrayRange.obj
 0001:00038040       ?DrawArrayT2@CVertexArrayRange@@UAEXHH@Z 00439040 f   VertexArrayRange.obj
 0001:00038180       ?DrawArrayTN@CVertexArrayRange@@UAEXHH@Z 00439180 f   VertexArrayRange.obj
 0001:00038270       ?DrawArrayTC@CVertexArrayRange@@UAEXHH@Z 00439270 f   VertexArrayRange.obj
 0001:00038360       ?EnlargeDrawArray@CVertexArrayRange@@UAEXXZ 00439360 f   VertexArrayRange.obj
 0001:00038370       _glDeleteLists@8           00439370 f   opengl32:OPENGL32.dll
 0001:00038376       _glEndList@0               00439376 f   opengl32:OPENGL32.dll
 0001:0003837c       _glColor3f@12              0043937c f   opengl32:OPENGL32.dll
 0001:00038382       _glNewList@8               00439382 f   opengl32:OPENGL32.dll
 0001:00038388       _glGenLists@4              00439388 f   opengl32:OPENGL32.dll
 0001:0003838e       _glEnable@4                0043938e f   opengl32:OPENGL32.dll
 0001:00038394       _glEnd@0                   00439394 f   opengl32:OPENGL32.dll
 0001:0003839a       _glBegin@4                 0043939a f   opengl32:OPENGL32.dll
 0001:000383a0       _glDisable@4               004393a0 f   opengl32:OPENGL32.dll
 0001:000383a6       _glNormal3f@12             004393a6 f   opengl32:OPENGL32.dll
 0001:000383ac       _glVertex3f@12             004393ac f   opengl32:OPENGL32.dll
 0001:000383b2       _glLoadIdentity@0          004393b2 f   opengl32:OPENGL32.dll
 0001:000383b8       _glMatrixMode@4            004393b8 f   opengl32:OPENGL32.dll
 0001:000383be       _glPopMatrix@0             004393be f   opengl32:OPENGL32.dll
 0001:000383c4       _glColor3ubv@4             004393c4 f   opengl32:OPENGL32.dll
 0001:000383ca       _glScalef@12               004393ca f   opengl32:OPENGL32.dll
 0001:000383d0       _glColor4f@16              004393d0 f   opengl32:OPENGL32.dll
 0001:000383d6       _glTranslatef@12           004393d6 f   opengl32:OPENGL32.dll
 0001:000383dc       _glPushMatrix@0            004393dc f   opengl32:OPENGL32.dll
 0001:000383e2       _glTexParameteri@12        004393e2 f   opengl32:OPENGL32.dll
 0001:000383e8       _glBindTexture@8           004393e8 f   opengl32:OPENGL32.dll
 0001:000383ee       _glGenTextures@8           004393ee f   opengl32:OPENGL32.dll
 0001:000383f4       _glDeleteTextures@8        004393f4 f   opengl32:OPENGL32.dll
 0001:000383fa       _glCallList@4              004393fa f   opengl32:OPENGL32.dll
 0001:00038400       _glTexCoord2f@8            00439400 f   opengl32:OPENGL32.dll
 0001:00038406       _glDepthMask@4             00439406 f   opengl32:OPENGL32.dll
 0001:0003840c       _glClearColor@16           0043940c f   opengl32:OPENGL32.dll
 0001:00038412       _glFogi@8                  00439412 f   opengl32:OPENGL32.dll
 0001:00038418       _glFogf@8                  00439418 f   opengl32:OPENGL32.dll
 0001:0003841e       _glFogfv@8                 0043941e f   opengl32:OPENGL32.dll
 0001:00038424       _glLightModeli@8           00439424 f   opengl32:OPENGL32.dll
 0001:0003842a       _glMaterialf@12            0043942a f   opengl32:OPENGL32.dll
 0001:00038430       _glLightfv@12              00439430 f   opengl32:OPENGL32.dll
 0001:00038436       _glReadPixels@28           00439436 f   opengl32:OPENGL32.dll
 0001:0003843c       _glDepthFunc@4             0043943c f   opengl32:OPENGL32.dll
 0001:00038442       _glColorMaterial@8         00439442 f   opengl32:OPENGL32.dll
 0001:00038448       _glBlendFunc@8             00439448 f   opengl32:OPENGL32.dll
 0001:0003844e       _glClear@4                 0043944e f   opengl32:OPENGL32.dll
 0001:00038454       _glTexImage2D@36           00439454 f   opengl32:OPENGL32.dll
 0001:0003845a       _glPopAttrib@0             0043945a f   opengl32:OPENGL32.dll
 0001:00038460       _glCallLists@12            00439460 f   opengl32:OPENGL32.dll
 0001:00038466       _glListBase@4              00439466 f   opengl32:OPENGL32.dll
 0001:0003846c       _glPushAttrib@4            0043946c f   opengl32:OPENGL32.dll
 0001:00038472       _glTexEnvi@12              00439472 f   opengl32:OPENGL32.dll
 0001:00038478       _glTexSubImage2D@36        00439478 f   opengl32:OPENGL32.dll
 0001:0003847e       _glViewport@16             0043947e f   opengl32:OPENGL32.dll
 0001:00038484       _glHint@8                  00439484 f   opengl32:OPENGL32.dll
 0001:0003848a       _glClearDepth@8            0043948a f   opengl32:OPENGL32.dll
 0001:00038490       _glShadeModel@4            00439490 f   opengl32:OPENGL32.dll
 0001:00038496       _wglDeleteContext@4        00439496 f   opengl32:OPENGL32.dll
 0001:0003849c       _wglMakeCurrent@8          0043949c f   opengl32:OPENGL32.dll
 0001:000384a2       _wglCreateContext@4        004394a2 f   opengl32:OPENGL32.dll
 0001:000384a8       _glVertex2f@8              004394a8 f   opengl32:OPENGL32.dll
 0001:000384ae       _wglGetProcAddress@4       004394ae f   opengl32:OPENGL32.dll
 0001:000384b4       _glGetIntegerv@8           004394b4 f   opengl32:OPENGL32.dll
 0001:000384ba       _glGetString@4             004394ba f   opengl32:OPENGL32.dll
 0001:000384c0       _glAlphaFunc@8             004394c0 f   opengl32:OPENGL32.dll
 0001:000384c6       _glRotatef@16              004394c6 f   opengl32:OPENGL32.dll
 0001:000384cc       _glGetError@0              004394cc f   opengl32:OPENGL32.dll
 0001:000384d2       _glPolygonMode@8           004394d2 f   opengl32:OPENGL32.dll
 0001:000384d8       _glDisableClientState@4    004394d8 f   opengl32:OPENGL32.dll
 0001:000384de       _glDrawArrays@12           004394de f   opengl32:OPENGL32.dll
 0001:000384e4       _glEnableClientState@4     004394e4 f   opengl32:OPENGL32.dll
 0001:000384ea       _glTexCoordPointer@16      004394ea f   opengl32:OPENGL32.dll
 0001:000384f0       _glVertexPointer@16        004394f0 f   opengl32:OPENGL32.dll
 0001:000384f6       _glNormalPointer@12        004394f6 f   opengl32:OPENGL32.dll
 0001:000384fc       _glColorPointer@16         004394fc f   opengl32:OPENGL32.dll
 0001:00038502       _gluLookAt@72              00439502 f   glu32:GLU32.dll
 0001:00038508       _gluPerspective@32         00439508 f   glu32:GLU32.dll
 0001:0003850e       _gluBuild2DMipmaps@28      0043950e f   glu32:GLU32.dll
 0001:00038514       _gluOrtho2D@32             00439514 f   glu32:GLU32.dll
 0001:0003851a       _auxRGBImageLoadA@4        0043951a f   glaux:image.obj
 0001:00038528       _auxRGBImageLoadW@4        00439528 f   glaux:image.obj
 0001:00038536       _auxDIBImageLoadA@4        00439536 f   glaux:image.obj
 0001:00038544       _auxDIBImageLoadW@4        00439544 f   glaux:image.obj
 0001:00038552       _RawImageOpenAW@8          00439552 f   glaux:tkimage.obj
 0001:0003884a       _RawImageClose@4           0043984a f   glaux:tkimage.obj
 0001:0003889f       _RawImageGetRow@16         0043989f f   glaux:tkimage.obj
 0001:00038990       _RawImageGetData@8         00439990 f   glaux:tkimage.obj
 0001:00038a44       _tkRGBImageLoad@4          00439a44 f   glaux:tkimage.obj
 0001:00038a52       _tkRGBImageLoadAW@8        00439a52 f   glaux:tkimage.obj
 0001:00038ac0       _DibNumColors@4            00439ac0 f   glaux:tkdib.obj
 0001:00038b16       _tkDIBImageLoad@4          00439b16 f   glaux:tkdib.obj
 0001:00038b24       _tkDIBImageLoadAW@8        00439b24 f   glaux:tkdib.obj
 0001:0003901c       _tkErrorPopups@4           0043a01c f   glaux:tk.obj
 0001:00039028       _tkCloseWindow@0           0043a028 f   glaux:tk.obj
 0001:00039034       _tkExec@0                  0043a034 f   glaux:tk.obj
 0001:000390de       _tkExposeFunc@4            0043a0de f   glaux:tk.obj
 0001:000390ea       _tkReshapeFunc@4           0043a0ea f   glaux:tk.obj
 0001:000390f6       _tkDisplayFunc@4           0043a0f6 f   glaux:tk.obj
 0001:00039102       _tkKeyDownFunc@4           0043a102 f   glaux:tk.obj
 0001:0003910e       _tkMouseDownFunc@4         0043a10e f   glaux:tk.obj
 0001:0003911a       _tkMouseUpFunc@4           0043a11a f   glaux:tk.obj
 0001:00039126       _tkMouseMoveFunc@4         0043a126 f   glaux:tk.obj
 0001:00039132       _tkIdleFunc@4              0043a132 f   glaux:tk.obj
 0001:0003913e       _tkInitPosition@16         0043a13e f   glaux:tk.obj
 0001:000391a7       _tkInitDisplayMode@4       0043a1a7 f   glaux:tk.obj
 0001:000391b3       _tkInitDisplayModePolicy@4 0043a1b3 f   glaux:tk.obj
 0001:000391bf       _tkInitDisplayModeID@4     0043a1bf f   glaux:tk.obj
 0001:000391ce       _tkInitWindow@4            0043a1ce f   glaux:tk.obj
 0001:000391dc       _tkInitWindowAW@8          0043a1dc f   glaux:tk.obj
 0001:00039471       _tkQuit@0                  0043a471 f   glaux:tk.obj
 0001:00039485       _tkSetOneColor@16          0043a485 f   glaux:tk.obj
 0001:0003953c       _tkSetFogRamp@8            0043a53c f   glaux:tk.obj
 0001:0003964a       _tkSetGreyRamp@0           0043a64a f   glaux:tk.obj
 0001:00039707       _tkSetRGBMap@8             0043a707 f   glaux:tk.obj
 0001:00039783       _tkSwapBuffers@0           0043a783 f   glaux:tk.obj
 0001:00039790       _tkGetColorMapSize@0       0043a790 f   glaux:tk.obj
 0001:000397b4       _tkGetMouseLoc@8           0043a7b4 f   glaux:tk.obj
 0001:000397ed       _tkGetHWND@0               0043a7ed f   glaux:tk.obj
 0001:000397f3       _tkGetHDC@0                0043a7f3 f   glaux:tk.obj
 0001:000397f9       _tkGetHRC@0                0043a7f9 f   glaux:tk.obj
 0001:000397ff       _tkGetDisplayModePolicy@0  0043a7ff f   glaux:tk.obj
 0001:00039805       _tkGetDisplayModeID@0      0043a805 f   glaux:tk.obj
 0001:0003980b       _tkGetDisplayMode@0        0043a80b f   glaux:tk.obj
 0001:00039811       _tkWndProc@16              0043a811 f   glaux:tk.obj
 0001:00039c08       _GetRegistrySysColors@8    0043ac08 f   glaux:tk.obj
 0001:00039cc1       _GrabStaticEntries@4       0043acc1 f   glaux:tk.obj
 0001:00039d44       _ReleaseStaticEntries@4    0043ad44 f   glaux:tk.obj
 0001:00039d9d       _ComponentFromIndex@12     0043ad9d f   glaux:tk.obj
 0001:00039dd6       _UpdateStaticMapping@4     0043add6 f   glaux:tk.obj
 0001:00039f1f       _FillRgbPaletteEntries@12  0043af1f f   glaux:tk.obj
 0001:00039ff3       _FlushPalette@8            0043aff3 f   glaux:tk.obj
 0001:0003a067       _CreateRGBPalette@4        0043b067 f   glaux:tk.obj
 0001:0003a126       _CreateCIPalette@4         0043b126 f   glaux:tk.obj
 0001:0003a251       _FindPixelFormat@8         0043b251 f   glaux:tk.obj
 0001:0003a2df       _FindBestPixelFormat@12    0043b2df f   glaux:tk.obj
 0001:0003a381       _FindExactPixelFormat@12   0043b381 f   glaux:tk.obj
 0001:0003a4ae       _IsPixelFormatValid@12     0043b4ae f   glaux:tk.obj
 0001:0003a4e6       _PrintMessage              0043b4e6 f   glaux:tk.obj
 0001:0003a52b       _DelayPaletteRealization@0 0043b52b f   glaux:tk.obj
 0001:0003a561       _RealizePaletteNow@12      0043b561 f   glaux:tk.obj
 0001:0003a5cd       _ForceRedraw@4             0043b5cd f   glaux:tk.obj
 0001:0003a5f9       _PixelFormatDescriptorFromDc@8 0043b5f9 f   glaux:tk.obj
 0001:0003a641       _DestroyThisWindow@4       0043b641 f   glaux:tk.obj
 0001:0003a655       _CleanUp@0                 0043b655 f   glaux:tk.obj
 0001:0003a727       _AllocateMemory@4          0043b727 f   glaux:tk.obj
 0001:0003a736       _AllocateZeroedMemory@4    0043b736 f   glaux:tk.obj
 0001:0003a745       _FreeMemory@4              0043b745 f   glaux:tk.obj
 0001:0003a752       _QueryPerformanceFrequency@4 0043b752 f   kernel32:KERNEL32.dll
 0001:0003a758       _QueryPerformanceCounter@4 0043b758 f   kernel32:KERNEL32.dll
 0001:0003a75e       _GetLastError@0            0043b75e f   kernel32:KERNEL32.dll
 0001:0003a764       _UnmapViewOfFile@4         0043b764 f   kernel32:KERNEL32.dll
 0001:0003a76a       _MapViewOfFile@20          0043b76a f   kernel32:KERNEL32.dll
 0001:0003a770       _OpenFileMappingA@12       0043b770 f   kernel32:KERNEL32.dll
 0001:0003a776       _GetProcAddress@8          0043b776 f   kernel32:KERNEL32.dll
 0001:0003a77c       _LoadLibraryA@4            0043b77c f   kernel32:KERNEL32.dll
 0001:0003a782       _FreeLibrary@4             0043b782 f   kernel32:KERNEL32.dll
 0001:0003a788       _Sleep@4                   0043b788 f   kernel32:KERNEL32.dll
 0001:0003a78e       _SetFilePointer@16         0043b78e f   kernel32:KERNEL32.dll
 0001:0003a794       _ReadFile@20               0043b794 f   kernel32:KERNEL32.dll
 0001:0003a79a       _CreateFileA@28            0043b79a f   kernel32:KERNEL32.dll
 0001:0003a7a0       _CreateFileW@28            0043b7a0 f   kernel32:KERNEL32.dll
 0001:0003a7a6       _CloseHandle@4             0043b7a6 f   kernel32:KERNEL32.dll
 0001:0003a7ac       _LocalFree@4               0043b7ac f   kernel32:KERNEL32.dll
 0001:0003a7b2       _LocalAlloc@8              0043b7b2 f   kernel32:KERNEL32.dll
 0001:0003a7b8       _CreateFileMappingA@24     0043b7b8 f   kernel32:KERNEL32.dll
 0001:0003a7be       _GetVersionExA@4           0043b7be f   kernel32:KERNEL32.dll
 0001:0003a7c4       _GetModuleHandleA@4        0043b7c4 f   kernel32:KERNEL32.dll
 0001:0003a7ca       _ExitProcess@4             0043b7ca f   kernel32:KERNEL32.dll
 0001:0003a7d0       _MessageBoxA@16            0043b7d0 f   user32:USER32.dll
 0001:0003a7d6       _CloseClipboard@0          0043b7d6 f   user32:USER32.dll
 0001:0003a7dc       _GetClipboardData@4        0043b7dc f   user32:USER32.dll
 0001:0003a7e2       _OpenClipboard@4           0043b7e2 f   user32:USER32.dll
 0001:0003a7e8       _DrawTextA@20              0043b7e8 f   user32:USER32.dll
 0001:0003a7ee       _DestroyWindow@4           0043b7ee f   user32:USER32.dll
 0001:0003a7f4       _ReleaseDC@8               0043b7f4 f   user32:USER32.dll
 0001:0003a7fa       _ShowCursor@4              0043b7fa f   user32:USER32.dll
 0001:0003a800       _ChangeDisplaySettingsA@8  0043b800 f   user32:USER32.dll
 0001:0003a806       _SetFocus@4                0043b806 f   user32:USER32.dll
 0001:0003a80c       _SetForegroundWindow@4     0043b80c f   user32:USER32.dll
 0001:0003a812       _ShowWindow@8              0043b812 f   user32:USER32.dll
 0001:0003a818       _GetDC@4                   0043b818 f   user32:USER32.dll
 0001:0003a81e       _CreateWindowExA@48        0043b81e f   user32:USER32.dll
 0001:0003a824       _RegisterClassA@4          0043b824 f   user32:USER32.dll
 0001:0003a82a       _LoadCursorA@8             0043b82a f   user32:USER32.dll
 0001:0003a830       _LoadIconA@8               0043b830 f   user32:USER32.dll
 0001:0003a836       _DefWindowProcA@16         0043b836 f   user32:USER32.dll
 0001:0003a83c       _PostQuitMessage@4         0043b83c f   user32:USER32.dll
 0001:0003a842       _DispatchMessageA@4        0043b842 f   user32:USER32.dll
 0001:0003a848       _TranslateMessage@4        0043b848 f   user32:USER32.dll
 0001:0003a84e       _PeekMessageA@20           0043b84e f   user32:USER32.dll
 0001:0003a854       _SetCursorPos@8            0043b854 f   user32:USER32.dll
 0001:0003a85a       _GetWindowRect@8           0043b85a f   user32:USER32.dll
 0001:0003a860       _wsprintfA                 0043b860 f   user32:USER32.dll
 0001:0003a866       _GetFocus@0                0043b866 f   user32:USER32.dll
 0001:0003a86c       _GetMessageA@16            0043b86c f   user32:USER32.dll
 0001:0003a872       _GetClientRect@8           0043b872 f   user32:USER32.dll
 0001:0003a878       _GetSystemMetrics@4        0043b878 f   user32:USER32.dll
 0001:0003a87e       _CreateWindowExW@48        0043b87e f   user32:USER32.dll
 0001:0003a884       _AdjustWindowRect@12       0043b884 f   user32:USER32.dll
 0001:0003a88a       _RegisterClassW@4          0043b88a f   user32:USER32.dll
 0001:0003a890       _GetCursorPos@4            0043b890 f   user32:USER32.dll
 0001:0003a896       _SetCapture@4              0043b896 f   user32:USER32.dll
 0001:0003a89c       _ReleaseCapture@0          0043b89c f   user32:USER32.dll
 0001:0003a8a2       _GetKeyState@4             0043b8a2 f   user32:USER32.dll
 0001:0003a8a8       _EndPaint@8                0043b8a8 f   user32:USER32.dll
 0001:0003a8ae       _BeginPaint@8              0043b8ae f   user32:USER32.dll
 0001:0003a8b4       _PostMessageA@16           0043b8b4 f   user32:USER32.dll
 0001:0003a8ba       _SetSysColors@12           0043b8ba f   user32:USER32.dll
 0001:0003a8c0       _GetSysColor@4             0043b8c0 f   user32:USER32.dll
 0001:0003a8c6       _InvalidateRect@12         0043b8c6 f   user32:USER32.dll
 0001:0003a8cc       _GetPixel@12               0043b8cc f   gdi32:GDI32.dll
 0001:0003a8d2       _GetCharWidthA@16          0043b8d2 f   gdi32:GDI32.dll
 0001:0003a8d8       _SelectObject@8            0043b8d8 f   gdi32:GDI32.dll
 0001:0003a8de       _CreateFontA@56            0043b8de f   gdi32:GDI32.dll
 0001:0003a8e4       _SwapBuffers@4             0043b8e4 f   gdi32:GDI32.dll
 0001:0003a8ea       _SetPixelFormat@12         0043b8ea f   gdi32:GDI32.dll
 0001:0003a8f0       _ChoosePixelFormat@8       0043b8f0 f   gdi32:GDI32.dll
 0001:0003a8f6       _DeleteObject@4            0043b8f6 f   gdi32:GDI32.dll
 0001:0003a8fc       _DeleteDC@4                0043b8fc f   gdi32:GDI32.dll
 0001:0003a902       _GdiFlush@0                0043b902 f   gdi32:GDI32.dll
 0001:0003a908       _SetDIBits@28              0043b908 f   gdi32:GDI32.dll
 0001:0003a90e       _CreateDIBSection@24       0043b90e f   gdi32:GDI32.dll
 0001:0003a914       _CreateCompatibleDC@4      0043b914 f   gdi32:GDI32.dll
 0001:0003a91a       _GetStockObject@4          0043b91a f   gdi32:GDI32.dll
 0001:0003a920       _SetPaletteEntries@16      0043b920 f   gdi32:GDI32.dll
 0001:0003a926       _GetPaletteEntries@16      0043b926 f   gdi32:GDI32.dll
 0001:0003a92c       _RealizePalette@4          0043b92c f   gdi32:GDI32.dll
 0001:0003a932       _SelectPalette@12          0043b932 f   gdi32:GDI32.dll
 0001:0003a938       _SetSystemPaletteUse@8     0043b938 f   gdi32:GDI32.dll
 0001:0003a93e       _CreatePalette@4           0043b93e f   gdi32:GDI32.dll
 0001:0003a944       _DescribePixelFormat@16    0043b944 f   gdi32:GDI32.dll
 0001:0003a94a       _UnrealizeObject@4         0043b94a f   gdi32:GDI32.dll
 0001:0003a950       _GetPixelFormat@4          0043b950 f   gdi32:GDI32.dll
 0001:0003a956       _RegCreateKeyA@12          0043b956 f   advapi32:ADVAPI32.dll
 0001:0003a95c       _RegCloseKey@4             0043b95c f   advapi32:ADVAPI32.dll
 0001:0003a962       _RegSetValueExA@24         0043b962 f   advapi32:ADVAPI32.dll
 0001:0003a968       _RegQueryValueExA@24       0043b968 f   advapi32:ADVAPI32.dll
 0001:0003a96e       _RegOpenKeyExA@20          0043b96e f   advapi32:ADVAPI32.dll
 0001:0003a980       _jpeg_CreateDecompress     0043b980 f   jpeg:jdapimin.obj
 0001:0003aa60       _jpeg_destroy_decompress   0043ba60 f   jpeg:jdapimin.obj
 0001:0003aa70       _jpeg_abort_decompress     0043ba70 f   jpeg:jdapimin.obj
 0001:0003aa80       _default_decompress_parms  0043ba80 f   jpeg:jdapimin.obj
 0001:0003ac60       _jpeg_read_header          0043bc60 f   jpeg:jdapimin.obj
 0001:0003acd0       _jpeg_consume_input        0043bcd0 f   jpeg:jdapimin.obj
 0001:0003ada0       _jpeg_input_complete       0043bda0 f   jpeg:jdapimin.obj
 0001:0003adf0       _jpeg_has_multiple_scans   0043bdf0 f   jpeg:jdapimin.obj
 0001:0003ae40       _jpeg_finish_decompress    0043be40 f   jpeg:jdapimin.obj
 0001:0003af00       _jpeg_start_decompress     0043bf00 f   jpeg:jdapistd.obj
 0001:0003b0b0       _jpeg_read_scanlines       0043c0b0 f   jpeg:jdapistd.obj
 0001:0003b150       _jpeg_read_raw_data        0043c150 f   jpeg:jdapistd.obj
 0001:0003b200       _jpeg_start_output         0043c200 f   jpeg:jdapistd.obj
 0001:0003b270       _jpeg_finish_output        0043c270 f   jpeg:jdapistd.obj
 0001:0003b300       _jpeg_stdio_src            0043c300 f   jpeg:jdatasrc.obj
 0001:0003b460       _jpeg_std_error            0043c460 f   jpeg:jerror.obj
 0001:0003b610       _jinit_input_controller    0043c610 f   jpeg:jdinput.obj
 0001:0003bc10       _jpeg_resync_to_restart    0043cc10 f   jpeg:jdmarker.obj
 0001:0003be20       _jinit_marker_reader       0043ce20 f   jpeg:jdmarker.obj
 0001:0003d6a0       _jpeg_save_markers         0043e6a0 f   jpeg:jdmarker.obj
 0001:0003da10       _jpeg_set_marker_processor 0043ea10 f   jpeg:jdmarker.obj
 0001:0003da60       _jinit_memory_mgr          0043ea60 f   jpeg:jmemmgr.obj
 0001:0003e680       _jpeg_abort                0043f680 f   jpeg:jcomapi.obj
 0001:0003e6c0       _jpeg_destroy              0043f6c0 f   jpeg:jcomapi.obj
 0001:0003e6e0       _jpeg_alloc_quant_table    0043f6e0 f   jpeg:jcomapi.obj
 0001:0003e700       _jpeg_alloc_huff_table     0043f700 f   jpeg:jcomapi.obj
 0001:0003e720       _jpeg_calc_output_dimensions 0043f720 f   jpeg:jdmaster.obj
 0001:0003e9e0       _jpeg_new_colormap         0043f9e0 f   jpeg:jdmaster.obj
 0001:0003ea50       _jinit_master_decompress   0043fa50 f   jpeg:jdmaster.obj
 0001:0003eea0       _jdiv_round_up             0043fea0 f   jpeg:jutils.obj
 0001:0003eeb0       _jround_up                 0043feb0 f   jpeg:jutils.obj
 0001:0003eed0       _jcopy_sample_rows         0043fed0 f   jpeg:jutils.obj
 0001:0003ef20       _jcopy_block_row           0043ff20 f   jpeg:jutils.obj
 0001:0003ef50       _jzero_far                 0043ff50 f   jpeg:jutils.obj
 0001:0003ef70       _jpeg_get_small            0043ff70 f   jpeg:jmemansi.obj
 0001:0003ef80       _jpeg_free_small           0043ff80 f   jpeg:jmemansi.obj
 0001:0003ef90       _jpeg_get_large            0043ff90 f   jpeg:jmemansi.obj
 0001:0003efa0       _jpeg_free_large           0043ffa0 f   jpeg:jmemansi.obj
 0001:0003efb0       _jpeg_mem_available        0043ffb0 f   jpeg:jmemansi.obj
 0001:0003efc0       _jpeg_open_backing_store   0043ffc0 f   jpeg:jmemansi.obj
 0001:0003f100       _jpeg_mem_init             00440100 f   jpeg:jmemansi.obj
 0001:0003f110       _jpeg_mem_term             00440110 f   jpeg:jmemansi.obj
 0001:0003f120       _jinit_d_main_controller   00440120 f   jpeg:jdmainct.obj
 0001:0003f800       _jinit_d_coef_controller   00440800 f   jpeg:jdcoefct.obj
 0001:000407a0       _jpeg_make_d_derived_tbl   004417a0 f   jpeg:jdhuff.obj
 0001:00040a70       _jpeg_fill_bit_buffer      00441a70 f   jpeg:jdhuff.obj
 0001:00040b90       _jpeg_huff_decode          00441b90 f   jpeg:jdhuff.obj
 0001:00040c80       _jinit_huff_decoder        00441c80 f   jpeg:jdhuff.obj
 0001:000412d0       _jinit_phuff_decoder       004422d0 f   jpeg:jdphuff.obj
 0001:00042020       _jinit_inverse_dct         00443020 f   jpeg:jddctmgr.obj
 0001:000422e0       _jinit_d_post_controller   004432e0 f   jpeg:jdpostct.obj
 0001:00042630       _jinit_upsampler           00443630 f   jpeg:jdsample.obj
 0001:00042da0       _jinit_color_deconverter   00443da0 f   jpeg:jdcolor.obj
 0001:000433f0       _jinit_merged_upsampler    004443f0 f   jpeg:jdmerge.obj
 0001:000439d0       _jinit_2pass_quantizer     004449d0 f   jpeg:jquant2.obj
 0001:00044db0       _jinit_1pass_quantizer     00445db0 f   jpeg:jquant1.obj
 0001:000459f0       _jpeg_idct_islow           004469f0 f   jpeg:jidctint.obj
 0001:00045fe0       _jpeg_idct_ifast           00446fe0 f   jpeg:jidctfst.obj
 0001:00046480       _jpeg_idct_float           00447480 f   jpeg:jidctflt.obj
 0001:000468c0       _jpeg_idct_4x4             004478c0 f   jpeg:jidctred.obj
 0001:00046c70       _jpeg_idct_2x2             00447c70 f   jpeg:jidctred.obj
 0001:00046ea0       _jpeg_idct_1x1             00447ea0 f   jpeg:jidctred.obj
 0001:00046ee0       ??3@YAXPAX@Z               00447ee0 f   libcp:delop.obj
 0001:00046eeb       ?_Xlen@std@@YAXXZ          00447eeb f   libcp:string.obj
 0001:00046f45       ??0logic_error@std@@QAE@ABV?$basic_string@DU?$char_traits@D@std@@V?$allocator@D@2@@1@@Z 00447f45 f i libcp:string.obj
 0001:00046fa9       ?what@logic_error@std@@UBEPBDXZ 00447fa9 f i libcp:string.obj
 0001:00046fb6       ?_Doraise@logic_error@std@@MBEXXZ 00447fb6 f i libcp:string.obj
 0001:00046fd3       ??1logic_error@std@@UAE@XZ 00447fd3 f i libcp:string.obj
 0001:00047010       ??_Elogic_error@std@@UAEPAXI@Z 00448010 f i libcp:string.obj
 0001:00047010       ??_Glogic_error@std@@UAEPAXI@Z 00448010 f i libcp:string.obj
 0001:0004702c       ??0logic_error@std@@QAE@ABV01@@Z 0044802c f i libcp:string.obj
 0001:00047089       ??1length_error@std@@UAE@XZ 00448089 f i libcp:string.obj
 0001:000470c6       ?_Doraise@length_error@std@@MBEXXZ 004480c6 f i libcp:string.obj
 0001:000470e3       ??_Glength_error@std@@UAEPAXI@Z 004480e3 f i libcp:string.obj
 0001:000470e3       ??_Elength_error@std@@UAEPAXI@Z 004480e3 f i libcp:string.obj
 0001:000470ff       ??0length_error@std@@QAE@ABV01@@Z 004480ff f i libcp:string.obj
 0001:00047117       ?_Xran@std@@YAXXZ          00448117 f   libcp:string.obj
 0001:00047171       ??1out_of_range@std@@UAE@XZ 00448171 f i libcp:string.obj
 0001:000471ae       ?_Doraise@out_of_range@std@@MBEXXZ 004481ae f i libcp:string.obj
 0001:000471cb       ??_Eout_of_range@std@@UAEPAXI@Z 004481cb f i libcp:string.obj
 0001:000471cb       ??_Gout_of_range@std@@UAEPAXI@Z 004481cb f i libcp:string.obj
 0001:000471e7       ??0out_of_range@std@@QAE@ABV01@@Z 004481e7 f i libcp:string.obj
 0001:00047241       ?id@?$collate@D@std@@$E    00448241 f i libcp:string.obj
 0001:000472cb       ??_D?$basic_istream@DU?$char_traits@D@std@@@std@@QAEXXZ 004482cb f i libcp:iostream.obj
 0001:0004730f       ??_D?$basic_ostream@DU?$char_traits@D@std@@@std@@QAEXXZ 0044830f f i libcp:iostream.obj
 0001:000473af       ??0Init@ios_base@std@@QAE@XZ 004483af f   libcp:iostream.obj
 0001:0004750d       ??1Init@ios_base@std@@QAE@XZ 0044850d f   libcp:iostream.obj
 0001:00047534       ??0?$basic_ostream@DU?$char_traits@D@std@@@std@@QAE@W4_Uninitialized@1@@Z 00448534 f i libcp:iostream.obj
 0001:00047593       ??0?$basic_istream@DU?$char_traits@D@std@@@std@@QAE@W4_Uninitialized@1@@Z 00448593 f i libcp:iostream.obj
 0001:000475f2       ??0?$basic_filebuf@DU?$char_traits@D@std@@@std@@QAE@W4_Uninitialized@1@@Z 004485f2 f i libcp:iostream.obj
 0001:000475fd       ?_Gndec@?$basic_streambuf@DU?$char_traits@D@std@@@std@@IAEPADXZ 004485fd f i libcp:iostream.obj
 0001:0004760d       ?_Gninc@?$basic_streambuf@DU?$char_traits@D@std@@@std@@IAEPADXZ 0044860d f i libcp:iostream.obj
 0001:0004761d       ?_Pninc@?$basic_streambuf@DU?$char_traits@D@std@@@std@@IAEPADXZ 0044861d f i libcp:iostream.obj
 0001:0004762d       ?_Ungetc@std@@YA_NABDPAU_iobuf@@I@Z 0044862d f i libcp:iostream.obj
 0001:000477c6       ??_D?$basic_istream@GU?$char_traits@G@std@@@std@@QAEXXZ 004487c6 f i libcp:wiostrea.obj
 0001:0004780a       ??_D?$basic_ostream@GU?$char_traits@G@std@@@std@@QAEXXZ 0044880a f i libcp:wiostrea.obj
 0001:0004787d       ??0_Winit@std@@QAE@XZ      0044887d f   libcp:wiostrea.obj
 0001:000479e4       ??1_Winit@std@@QAE@XZ      004489e4 f   libcp:wiostrea.obj
 0001:00047a0b       ??0?$basic_ostream@GU?$char_traits@G@std@@@std@@QAE@PAV?$basic_streambuf@GU?$char_traits@G@std@@@1@_N1@Z 00448a0b f i libcp:wiostrea.obj
 0001:00047a75       ??0?$basic_ostream@GU?$char_traits@G@std@@@std@@QAE@W4_Uninitialized@1@@Z 00448a75 f i libcp:wiostrea.obj
 0001:00047ad4       ?flush@?$basic_ostream@GU?$char_traits@G@std@@@std@@QAEAAV12@XZ 00448ad4 f i libcp:wiostrea.obj
 0001:00047b1e       ??1?$basic_ios@GU?$char_traits@G@std@@@std@@UAE@XZ 00448b1e f i libcp:wiostrea.obj
 0001:00047b29       ??0?$basic_istream@GU?$char_traits@G@std@@@std@@QAE@PAV?$basic_streambuf@GU?$char_traits@G@std@@@1@_N@Z 00448b29 f i libcp:wiostrea.obj
 0001:00047b91       ??0?$basic_istream@GU?$char_traits@G@std@@@std@@QAE@W4_Uninitialized@1@@Z 00448b91 f i libcp:wiostrea.obj
 0001:00047bf0       ??0?$basic_filebuf@GU?$char_traits@G@std@@@std@@QAE@PAU_iobuf@@@Z 00448bf0 f i libcp:wiostrea.obj
 0001:00047c50       ??1?$basic_streambuf@GU?$char_traits@G@std@@@std@@UAE@XZ 00448c50 f i libcp:wiostrea.obj
 0001:00047c5e       ?overflow@?$basic_streambuf@GU?$char_traits@G@std@@@std@@MAEGG@Z 00448c5e f i libcp:wiostrea.obj
 0001:00047c65       ?pbackfail@?$basic_streambuf@GU?$char_traits@G@std@@@std@@MAEGG@Z 00448c65 f i libcp:wiostrea.obj
 0001:00047c6c       ?showmanyc@?$basic_streambuf@GU?$char_traits@G@std@@@std@@MAEHXZ 00448c6c f i libcp:wiostrea.obj
 0001:00047c6f       ?underflow@?$basic_streambuf@GU?$char_traits@G@std@@@std@@MAEGXZ 00448c6f f i libcp:wiostrea.obj
 0001:00047c74       ?uflow@?$basic_streambuf@GU?$char_traits@G@std@@@std@@MAEGXZ 00448c74 f i libcp:wiostrea.obj
 0001:00047c95       ?xsgetn@?$basic_streambuf@GU?$char_traits@G@std@@@std@@MAEHPAGH@Z 00448c95 f i libcp:wiostrea.obj
 0001:00047d1c       ?xsputn@?$basic_streambuf@GU?$char_traits@G@std@@@std@@MAEHPBGH@Z 00448d1c f i libcp:wiostrea.obj
 0001:00047da4       ?seekoff@?$basic_streambuf@GU?$char_traits@G@std@@@std@@MAE?AV?$fpos@H@2@JW4seekdir@ios_base@2@H@Z 00448da4 f i libcp:wiostrea.obj
 0001:00047ddb       ?seekpos@?$basic_streambuf@GU?$char_traits@G@std@@@std@@MAE?AV?$fpos@H@2@V32@H@Z 00448ddb f i libcp:wiostrea.obj
 0001:00047e12       ?setbuf@?$basic_streambuf@GU?$char_traits@G@std@@@std@@MAEPAV12@PAGH@Z 00448e12 f i libcp:wiostrea.obj
 0001:00047e17       ?sync@?$basic_streambuf@GU?$char_traits@G@std@@@std@@MAEHXZ 00448e17 f i libcp:wiostrea.obj
 0001:00047e1a       ?imbue@?$basic_streambuf@GU?$char_traits@G@std@@@std@@MAEXABVlocale@2@@Z 00448e1a f i libcp:wiostrea.obj
 0001:00047e1d       ??0?$basic_filebuf@GU?$char_traits@G@std@@@std@@QAE@W4_Uninitialized@1@@Z 00448e1d f i libcp:wiostrea.obj
 0001:00047e28       ??1?$basic_filebuf@GU?$char_traits@G@std@@@std@@UAE@XZ 00448e28 f i libcp:wiostrea.obj
 0001:00047e8d       ?overflow@?$basic_filebuf@GU?$char_traits@G@std@@@std@@MAEGG@Z 00448e8d f i libcp:wiostrea.obj
 0001:00047fd5       ?pbackfail@?$basic_filebuf@GU?$char_traits@G@std@@@std@@MAEGG@Z 00448fd5 f i libcp:wiostrea.obj
 0001:0004808c       ?underflow@?$basic_filebuf@GU?$char_traits@G@std@@@std@@MAEGXZ 0044908c f i libcp:wiostrea.obj
 0001:000480ba       ?uflow@?$basic_filebuf@GU?$char_traits@G@std@@@std@@MAEGXZ 004490ba f i libcp:wiostrea.obj
 0001:000481d8       ?seekoff@?$basic_filebuf@GU?$char_traits@G@std@@@std@@MAE?AV?$fpos@H@2@JW4seekdir@ios_base@2@H@Z 004491d8 f i libcp:wiostrea.obj
 0001:0004825a       ?seekpos@?$basic_filebuf@GU?$char_traits@G@std@@@std@@MAE?AV?$fpos@H@2@V32@H@Z 0044925a f i libcp:wiostrea.obj
 0001:0004831c       ?setbuf@?$basic_filebuf@GU?$char_traits@G@std@@@std@@MAEPAV?$basic_streambuf@GU?$char_traits@G@std@@@2@PAGH@Z 0044931c f i libcp:wiostrea.obj
 0001:0004834a       ?sync@?$basic_filebuf@GU?$char_traits@G@std@@@std@@MAEHXZ 0044934a f i libcp:wiostrea.obj
 0001:00048363       ??_G?$basic_ostream@GU?$char_traits@G@std@@@std@@UAEPAXI@Z 00449363 f i libcp:wiostrea.obj
 0001:00048363       ??_E?$basic_ostream@GU?$char_traits@G@std@@@std@@UAEPAXI@Z 00449363 f i libcp:wiostrea.obj
 0001:00048382       ??_G?$basic_ios@GU?$char_traits@G@std@@@std@@UAEPAXI@Z 00449382 f i libcp:wiostrea.obj
 0001:00048382       ??_E?$basic_ios@GU?$char_traits@G@std@@@std@@UAEPAXI@Z 00449382 f i libcp:wiostrea.obj
 0001:0004839e       ??_G?$basic_istream@GU?$char_traits@G@std@@@std@@UAEPAXI@Z 0044939e f i libcp:wiostrea.obj
 0001:0004839e       ??_E?$basic_istream@GU?$char_traits@G@std@@@std@@UAEPAXI@Z 0044939e f i libcp:wiostrea.obj
 0001:000483bd       ??_E?$basic_streambuf@GU?$char_traits@G@std@@@std@@UAEPAXI@Z 004493bd f i libcp:wiostrea.obj
 0001:000483bd       ??_G?$basic_streambuf@GU?$char_traits@G@std@@@std@@UAEPAXI@Z 004493bd f i libcp:wiostrea.obj
 0001:000483d9       ??_G?$basic_filebuf@GU?$char_traits@G@std@@@std@@UAEPAXI@Z 004493d9 f i libcp:wiostrea.obj
 0001:000483d9       ??_E?$basic_filebuf@GU?$char_traits@G@std@@@std@@UAEPAXI@Z 004493d9 f i libcp:wiostrea.obj
 0001:000483f5       ?init@?$basic_ios@GU?$char_traits@G@std@@@std@@IAEXPAV?$basic_streambuf@GU?$char_traits@G@std@@@2@_N@Z 004493f5 f i libcp:wiostrea.obj
 0001:0004843f       ?gbump@?$basic_streambuf@GU?$char_traits@G@std@@@std@@IAEXH@Z 0044943f f i libcp:wiostrea.obj
 0001:00048453       ?_Gndec@?$basic_streambuf@GU?$char_traits@G@std@@@std@@IAEPAGXZ 00449453 f i libcp:wiostrea.obj
 0001:00048464       ?_Gninc@?$basic_streambuf@GU?$char_traits@G@std@@@std@@IAEPAGXZ 00449464 f i libcp:wiostrea.obj
 0001:00048474       ?pbump@?$basic_streambuf@GU?$char_traits@G@std@@@std@@IAEXH@Z 00449474 f i libcp:wiostrea.obj
 0001:00048488       ?_Pninc@?$basic_streambuf@GU?$char_traits@G@std@@@std@@IAEPAGXZ 00449488 f i libcp:wiostrea.obj
 0001:00048498       ?close@?$basic_filebuf@GU?$char_traits@G@std@@@std@@QAEPAV12@XZ 00449498 f i libcp:wiostrea.obj
 0001:000484bf       ?_Init@?$basic_filebuf@GU?$char_traits@G@std@@@std@@IAEXPAU_iobuf@@W4_Initfl@12@@Z 004494bf f i libcp:wiostrea.obj
 0001:00048515       ?_Init@?$basic_streambuf@GU?$char_traits@G@std@@@std@@IAEXXZ 00449515 f i libcp:wiostrea.obj
 0001:00048599       ?clear@ios_base@std@@QAEXH_N@Z 00449599 f   libcp:ios.obj
 0001:00048635       ??0runtime_error@std@@QAE@ABV?$basic_string@DU?$char_traits@D@std@@V?$allocator@D@2@@1@@Z 00449635 f i libcp:ios.obj
 0001:00048699       ?what@runtime_error@std@@UBEPBDXZ 00449699 f i libcp:ios.obj
 0001:000486a6       ?_Doraise@runtime_error@std@@MBEXXZ 004496a6 f i libcp:ios.obj
 0001:000486c3       ??1runtime_error@std@@UAE@XZ 004496c3 f i libcp:ios.obj
 0001:00048700       ??_Eruntime_error@std@@UAEPAXI@Z 00449700 f i libcp:ios.obj
 0001:00048700       ??_Gruntime_error@std@@UAEPAXI@Z 00449700 f i libcp:ios.obj
 0001:0004871c       ??0runtime_error@std@@QAE@ABV01@@Z 0044971c f i libcp:ios.obj
 0001:00048779       ??1failure@ios_base@std@@UAE@XZ 00449779 f i libcp:ios.obj
 0001:000487b6       ?_Doraise@failure@ios_base@std@@MBEXXZ 004497b6 f i libcp:ios.obj
 0001:000487d3       ??_Efailure@ios_base@std@@UAEPAXI@Z 004497d3 f i libcp:ios.obj
 0001:000487d3       ??_Gfailure@ios_base@std@@UAEPAXI@Z 004497d3 f i libcp:ios.obj
 0001:000487ef       ??0failure@ios_base@std@@QAE@ABV012@@Z 004497ef f i libcp:ios.obj
 0001:00048807       ?copyfmt@ios_base@std@@QAEAAV12@ABV12@@Z 00449807 f   libcp:ios.obj
 0001:00048898       ??4locale@std@@QAEAAV01@ABV01@@Z 00449898 f i libcp:ios.obj
 0001:000488c7       ?imbue@ios_base@std@@QAE?AVlocale@2@ABV32@@Z 004498c7 f   libcp:ios.obj
 0001:00048930       ?register_callback@ios_base@std@@QAEXP6AXW4event@12@AAV12@H@ZH@Z 00449930 f   libcp:ios.obj
 0001:00048966       ??1ios_base@std@@UAE@XZ    00449966 f   libcp:ios.obj
 0001:000489b6       ?_Callfns@ios_base@std@@AAEXW4event@12@@Z 004499b6 f   libcp:ios.obj
 0001:000489d8       ?_Findarr@ios_base@std@@AAEAAU_Iosarray@12@H@Z 004499d8 f   libcp:ios.obj
 0001:00048aa9       ?_Addstd@ios_base@std@@IAEXXZ 00449aa9 f   libcp:ios.obj
 0001:00048ade       ?_Init@ios_base@std@@IAEXXZ 00449ade f   libcp:ios.obj
 0001:00048b16       ?_Tidy@ios_base@std@@AAEXXZ 00449b16 f   libcp:ios.obj
 0001:00048b58       ?__Fiopen@std@@YAPAU_iobuf@@PBDH@Z 00449b58 f   libcp:fiopen.obj
 0001:00048c13       ?uncaught_exception@std@@YA_NXZ 00449c13 f   libcp:uncaught.obj
 0001:00048c37       ?classic@locale@std@@SAABV12@XZ 00449c37 f   libcp:locale0.obj
 0001:00048c42       ?empty@locale@std@@SA?AV12@XZ 00449c42 f   libcp:locale0.obj
 0001:00048c89       ?_Getfacet@locale@std@@QBEPBVfacet@12@I_N@Z 00449c89 f   libcp:locale0.obj
 0001:00048cc8       ?_Iscloc@locale@std@@QBE_NXZ 00449cc8 f   libcp:locale0.obj
 0001:00048ce8       ??8locale@std@@QBE_NABV01@@Z 00449ce8 f   libcp:locale0.obj
 0001:00048db7       ?name@locale@std@@QBE?AV?$basic_string@DU?$char_traits@D@std@@V?$allocator@D@2@@2@XZ 00449db7 f i libcp:locale0.obj
 0001:00048dee       ?_Init@locale@std@@CAPAV_Locimp@12@XZ 00449dee f   libcp:locale0.obj
 0001:00048ea7       ?_Tidy@locale@std@@CAXXZ   00449ea7 f   libcp:locale0.obj
 0001:00048eef       ??0_Locimp@locale@std@@AAE@_N@Z 00449eef f   libcp:locale0.obj
 0001:00048f61       ??1facet@locale@std@@UAE@XZ 00449f61 f i libcp:locale0.obj
 0001:00048f68       ??_E_Locimp@locale@std@@UAEPAXI@Z 00449f68 f i libcp:locale0.obj
 0001:00048f68       ??_G_Locimp@locale@std@@UAEPAXI@Z 00449f68 f i libcp:locale0.obj
 0001:00048f84       ??1_Locimp@locale@std@@UAE@XZ 00449f84 f   libcp:locale0.obj
 0001:00049047       ??0locale@std@@QAE@ABV01@0H@Z 0044a047 f   libcp:locale.obj
 0001:000490ef       ??0locale@std@@QAE@PBDH@Z  0044a0ef f   libcp:locale.obj
 0001:000491fc       ?_Getname@_Locinfo@std@@QBE?AV?$basic_string@DU?$char_traits@D@std@@V?$allocator@D@2@@2@XZ 0044a1fc f i libcp:locale.obj
 0001:00049232       ??0locale@std@@QAE@ABV01@PBDH@Z 0044a232 f   libcp:locale.obj
 0001:00049353       ?_Addfac@locale@std@@QAEAAV12@PAVfacet@12@II@Z 0044a353 f   libcp:locale.obj
 0001:000493e1       ?global@locale@std@@SA?AV12@ABV12@@Z 0044a3e1 f   libcp:locale.obj
 0001:000494d5       ?_Makeloc@_Locimp@locale@std@@CAPAV123@ABV_Locinfo@3@HPAV123@PBV23@@Z 0044a4d5 f   libcp:locale.obj
 0001:000497fa       ?_Init@?$ctype@D@std@@IAEXABV_Locinfo@2@@Z 0044a7fa f i libcp:locale.obj
 0001:0004983f       ??0_Locimp@locale@std@@AAE@ABV012@@Z 0044a83f f   libcp:locale.obj
 0001:00049938       ?_Addfac@_Locimp@locale@std@@AAEXPAVfacet@23@I@Z 0044a938 f   libcp:locale.obj
 0001:000499e7       ??0_Locinfo@std@@QAE@PBD@Z 0044a9e7 f   libcp:locale.obj
 0001:00049aa0       ??0_Locinfo@std@@QAE@HPBD@Z 0044aaa0 f   libcp:locale.obj
 0001:00049b17       ??1_Locinfo@std@@QAE@XZ    0044ab17 f   libcp:locale.obj
 0001:00049b8c       ?_Addcats@_Locinfo@std@@QAEAAV12@HPBD@Z 0044ab8c f   libcp:locale.obj
 0001:00049bfb       ?do_get@?$num_get@DV?$istreambuf_iterator@DU?$char_traits@D@std@@@std@@@std@@MBE?AV?$istreambuf_iterator@DU?$char_traits@D@std@@@2@V32@0AAVios_base@2@AAHAA_N@Z 0044abfb f i libcp:locale.obj
 0001:00049da3       ?do_get@?$num_get@DV?$istreambuf_iterator@DU?$char_traits@D@std@@@std@@@std@@MBE?AV?$istreambuf_iterator@DU?$char_traits@D@std@@@2@V32@0AAVios_base@2@AAHAAG@Z 0044ada3 f i libcp:locale.obj
 0001:00049e6b       ?do_get@?$num_get@DV?$istreambuf_iterator@DU?$char_traits@D@std@@@std@@@std@@MBE?AV?$istreambuf_iterator@DU?$char_traits@D@std@@@2@V32@0AAVios_base@2@AAHAAI@Z 0044ae6b f i libcp:locale.obj
 0001:00049f2f       ?do_get@?$num_get@DV?$istreambuf_iterator@DU?$char_traits@D@std@@@std@@@std@@MBE?AV?$istreambuf_iterator@DU?$char_traits@D@std@@@2@V32@0AAVios_base@2@AAHAAJ@Z 0044af2f f i libcp:locale.obj
 0001:00049fd9       ?do_get@?$num_get@DV?$istreambuf_iterator@DU?$char_traits@D@std@@@std@@@std@@MBE?AV?$istreambuf_iterator@DU?$char_traits@D@std@@@2@V32@0AAVios_base@2@AAHAAK@Z 0044afd9 f i libcp:locale.obj
 0001:0004a083       ?do_get@?$num_get@DV?$istreambuf_iterator@DU?$char_traits@D@std@@@std@@@std@@MBE?AV?$istreambuf_iterator@DU?$char_traits@D@std@@@2@V32@0AAVios_base@2@AAHAAM@Z 0044b083 f i libcp:locale.obj
 0001:0004a129       ?do_get@?$num_get@DV?$istreambuf_iterator@DU?$char_traits@D@std@@@std@@@std@@MBE?AV?$istreambuf_iterator@DU?$char_traits@D@std@@@2@V32@0AAVios_base@2@AAHAAN@Z 0044b129 f i libcp:locale.obj
 0001:0004a1cf       ?do_get@?$num_get@DV?$istreambuf_iterator@DU?$char_traits@D@std@@@std@@@std@@MBE?AV?$istreambuf_iterator@DU?$char_traits@D@std@@@2@V32@0AAVios_base@2@AAHAAO@Z 0044b1cf f i libcp:locale.obj
 0001:0004a275       ?do_get@?$num_get@DV?$istreambuf_iterator@DU?$char_traits@D@std@@@std@@@std@@MBE?AV?$istreambuf_iterator@DU?$char_traits@D@std@@@2@V32@0AAVios_base@2@AAHAAPAX@Z 0044b275 f i libcp:locale.obj
 0001:0004a369       ?do_put@?$num_put@DV?$ostreambuf_iterator@DU?$char_traits@D@std@@@std@@@std@@MBE?AV?$ostreambuf_iterator@DU?$char_traits@D@std@@@2@V32@AAVios_base@2@D_N@Z 0044b369 f i libcp:locale.obj
 0001:0004a511       ?do_put@?$num_put@DV?$ostreambuf_iterator@DU?$char_traits@D@std@@@std@@@std@@MBE?AV?$ostreambuf_iterator@DU?$char_traits@D@std@@@2@V32@AAVios_base@2@DJ@Z 0044b511 f i libcp:locale.obj
 0001:0004a569       ?do_put@?$num_put@DV?$ostreambuf_iterator@DU?$char_traits@D@std@@@std@@@std@@MBE?AV?$ostreambuf_iterator@DU?$char_traits@D@std@@@2@V32@AAVios_base@2@DK@Z 0044b569 f i libcp:locale.obj
 0001:0004a5c1       ?do_put@?$num_put@DV?$ostreambuf_iterator@DU?$char_traits@D@std@@@std@@@std@@MBE?AV?$ostreambuf_iterator@DU?$char_traits@D@std@@@2@V32@AAVios_base@2@DN@Z 0044b5c1 f i libcp:locale.obj
 0001:0004a63f       ?do_put@?$num_put@DV?$ostreambuf_iterator@DU?$char_traits@D@std@@@std@@@std@@MBE?AV?$ostreambuf_iterator@DU?$char_traits@D@std@@@2@V32@AAVios_base@2@DO@Z 0044b63f f i libcp:locale.obj
 0001:0004a6bd       ?do_put@?$num_put@DV?$ostreambuf_iterator@DU?$char_traits@D@std@@@std@@@std@@MBE?AV?$ostreambuf_iterator@DU?$char_traits@D@std@@@2@V32@AAVios_base@2@DPBX@Z 0044b6bd f i libcp:locale.obj
 0001:0004a787       ?do_decimal_point@?$numpunct@D@std@@MBEDXZ 0044b787 f i libcp:locale.obj
 0001:0004a78b       ?do_thousands_sep@?$numpunct@D@std@@MBEDXZ 0044b78b f i libcp:locale.obj
 0001:0004a78f       ?do_grouping@?$numpunct@D@std@@MBE?AV?$basic_string@DU?$char_traits@D@std@@V?$allocator@D@2@@2@XZ 0044b78f f i libcp:locale.obj
 0001:0004a7c5       ?do_falsename@?$numpunct@D@std@@MBE?AV?$basic_string@DU?$char_traits@D@std@@V?$allocator@D@2@@2@XZ 0044b7c5 f i libcp:locale.obj
 0001:0004a7fb       ?do_truename@?$numpunct@D@std@@MBE?AV?$basic_string@DU?$char_traits@D@std@@V?$allocator@D@2@@2@XZ 0044b7fb f i libcp:locale.obj
 0001:0004a831       ??_G?$num_get@DV?$istreambuf_iterator@DU?$char_traits@D@std@@@std@@@std@@UAEPAXI@Z 0044b831 f i libcp:locale.obj
 0001:0004a831       ??_E?$num_get@DV?$istreambuf_iterator@DU?$char_traits@D@std@@@std@@@std@@UAEPAXI@Z 0044b831 f i libcp:locale.obj
 0001:0004a84d       ??1?$num_get@DV?$istreambuf_iterator@DU?$char_traits@D@std@@@std@@@std@@UAE@XZ 0044b84d f i libcp:locale.obj
 0001:0004a854       ??_E?$num_put@DV?$ostreambuf_iterator@DU?$char_traits@D@std@@@std@@@std@@UAEPAXI@Z 0044b854 f i libcp:locale.obj
 0001:0004a854       ??_G?$num_put@DV?$ostreambuf_iterator@DU?$char_traits@D@std@@@std@@@std@@UAEPAXI@Z 0044b854 f i libcp:locale.obj
 0001:0004a870       ??1?$num_put@DV?$ostreambuf_iterator@DU?$char_traits@D@std@@@std@@@std@@UAE@XZ 0044b870 f i libcp:locale.obj
 0001:0004a877       ??_E?$numpunct@D@std@@UAEPAXI@Z 0044b877 f i libcp:locale.obj
 0001:0004a877       ??_G?$numpunct@D@std@@UAEPAXI@Z 0044b877 f i libcp:locale.obj
 0001:0004a893       ??1?$numpunct@D@std@@UAE@XZ 0044b893 f i libcp:locale.obj
 0001:0004a8bf       ?_Getifld@?$num_get@DV?$istreambuf_iterator@DU?$char_traits@D@std@@@std@@@std@@CAHPADAAV?$istreambuf_iterator@DU?$char_traits@D@std@@@2@1HABVlocale@2@@Z 0044b8bf f i libcp:locale.obj
 0001:0004ac54       ?_Getffld@?$num_get@DV?$istreambuf_iterator@DU?$char_traits@D@std@@@std@@@std@@CAHPADAAV?$istreambuf_iterator@DU?$char_traits@D@std@@@2@1ABVlocale@2@@Z 0044bc54 f i libcp:locale.obj
 0001:0004af40       ?_Ffmt@?$num_put@DV?$ostreambuf_iterator@DU?$char_traits@D@std@@@std@@@std@@KAPADPADDH@Z 0044bf40 f i libcp:locale.obj
 0001:0004af9e       ?_Fput@?$num_put@DV?$ostreambuf_iterator@DU?$char_traits@D@std@@@std@@@std@@KA?AV?$ostreambuf_iterator@DU?$char_traits@D@std@@@2@V32@AAVios_base@2@DPBDII@Z 0044bf9e f i libcp:locale.obj
 0001:0004b251       ?_Ifmt@?$num_put@DV?$ostreambuf_iterator@DU?$char_traits@D@std@@@std@@@std@@KAPADPADDH@Z 0044c251 f i libcp:locale.obj
 0001:0004b2ab       ?_Iput@?$num_put@DV?$ostreambuf_iterator@DU?$char_traits@D@std@@@std@@@std@@KA?AV?$ostreambuf_iterator@DU?$char_traits@D@std@@@2@V32@AAVios_base@2@DPADI@Z 0044c2ab f i libcp:locale.obj
 0001:0004b540       ?falsename@?$numpunct@D@std@@QBE?AV?$basic_string@DU?$char_traits@D@std@@V?$allocator@D@2@@2@XZ 0044c540 f i libcp:locale.obj
 0001:0004b557       ?truename@?$numpunct@D@std@@QBE?AV?$basic_string@DU?$char_traits@D@std@@V?$allocator@D@2@@2@XZ 0044c557 f i libcp:locale.obj
 0001:0004b56e       ?_Init@?$numpunct@D@std@@IAEXABV_Locinfo@2@@Z 0044c56e f i libcp:locale.obj
 0001:0004b5b7       ?assign@?$basic_string@DU?$char_traits@D@std@@V?$allocator@D@2@@std@@QAEAAV12@ID@Z 0044c5b7 f i libcp:locale.obj
 0001:0004b5fd       ?_Inc@?$istreambuf_iterator@DU?$char_traits@D@std@@@std@@AAEXXZ 0044c5fd f i libcp:locale.obj
 0001:0004b61f       ?_Peek@?$istreambuf_iterator@DU?$char_traits@D@std@@@std@@AAEDXZ 0044c61f f i libcp:locale.obj
 0001:0004b643       ??4?$ostreambuf_iterator@DU?$char_traits@D@std@@@std@@QAEAAV01@D@Z 0044c643 f i libcp:locale.obj
 0001:0004b664       ?sputc@?$basic_streambuf@DU?$char_traits@D@std@@@std@@QAEHD@Z 0044c664 f i libcp:locale.obj
 0001:0004b696       ?grouping@?$numpunct@D@std@@QBE?AV?$basic_string@DU?$char_traits@D@std@@V?$allocator@D@2@@2@XZ 0044c696 f i libcp:locale.obj
 0001:0004b6ad       ?append@?$basic_string@DU?$char_traits@D@std@@V?$allocator@D@2@@std@@QAEAAV12@ABV12@II@Z 0044c6ad f i libcp:locale.obj
 0001:0004b735       ?use_facet@std@@YAABV?$ctype@D@1@ABVlocale@1@PBV21@_N@Z 0044c735 f i libcp:locale.obj
 0001:0004b7ef       ?use_facet@std@@YAABV?$num_get@DV?$istreambuf_iterator@DU?$char_traits@D@std@@@std@@@1@ABVlocale@1@PBV21@_N@Z 0044c7ef f i libcp:locale.obj
 0001:0004b8c0       ?use_facet@std@@YAABV?$num_put@DV?$ostreambuf_iterator@DU?$char_traits@D@std@@@std@@@1@ABVlocale@1@PBV21@_N@Z 0044c8c0 f i libcp:locale.obj
 0001:0004b991       ?use_facet@std@@YAABV?$numpunct@D@1@ABVlocale@1@PBV21@_N@Z 0044c991 f i libcp:locale.obj
 0001:0004ba48       ?use_facet@std@@YAABV?$codecvt@DDH@1@ABVlocale@1@PBV21@_N@Z 0044ca48 f i libcp:locale.obj
 0001:0004baff       ?_Getloctxt@std@@YAHAAV?$istreambuf_iterator@DU?$char_traits@D@std@@@1@0IPBD@Z 0044caff f i libcp:locale.obj
 0001:0004bcb8       ?isdigit@std@@YA_NDABVlocale@1@@Z 0044ccb8 f i libcp:locale.obj
 0001:0004bcd9       ?_Maklocstr@std@@YAPADPBDPAD@Z 0044ccd9 f i libcp:locale.obj
 0001:0004bd02       ?equal@?$istreambuf_iterator@DU?$char_traits@D@std@@@std@@QBE_NABV12@@Z 0044cd02 f i libcp:locale.obj
 0001:0004bd41       ??0?$numpunct@D@std@@QAE@I@Z 0044cd41 f i libcp:locale.obj
 0001:0004bd9a       ?_Save@?$_Tidyfac@V?$num_get@DV?$istreambuf_iterator@DU?$char_traits@D@std@@@std@@@std@@@std@@SAPAV?$num_get@DV?$istreambuf_iterator@DU?$char_traits@D@std@@@std@@@2@PAV32@@Z 0044cd9a f i libcp:locale.obj
 0001:0004bdc0       ?_Save@?$_Tidyfac@V?$num_put@DV?$ostreambuf_iterator@DU?$char_traits@D@std@@@std@@@std@@@std@@SAPAV?$num_put@DV?$ostreambuf_iterator@DU?$char_traits@D@std@@@std@@@2@PAV32@@Z 0044cdc0 f i libcp:locale.obj
 0001:0004bde6       ?_Save@?$_Tidyfac@V?$numpunct@D@std@@@std@@SAPAV?$numpunct@D@2@PAV32@@Z 0044cde6 f i libcp:locale.obj
 0001:0004be0c       ?_Tidy@?$_Tidyfac@V?$num_get@DV?$istreambuf_iterator@DU?$char_traits@D@std@@@std@@@std@@@std@@SAXXZ 0044ce0c f i libcp:locale.obj
 0001:0004be57       ?_Tidy@?$_Tidyfac@V?$num_put@DV?$ostreambuf_iterator@DU?$char_traits@D@std@@@std@@@std@@@std@@SAXXZ 0044ce57 f i libcp:locale.obj
 0001:0004bea2       ?_Tidy@?$_Tidyfac@V?$numpunct@D@std@@@std@@SAXXZ 0044cea2 f i libcp:locale.obj
 0001:0004bf2f       __Wcrtomb                  0044cf2f f   libcp:xwctomb.obj
 0001:0004bfa1       __Getcvt                   0044cfa1 f   libcp:xwctomb.obj
 0001:0004bfad       _wcrtomb                   0044cfad f   libcp:xwctomb.obj
 0001:0004bfcc       _wcsrtombs                 0044cfcc f   libcp:xwctomb.obj
 0001:0004c0b4       _wctob                     0044d0b4 f   libcp:xwctomb.obj
 0001:0004c0e2       __Tolower                  0044d0e2 f   libcp:_tolower.obj
 0001:0004c1ca       __Getctype                 0044d1ca f   libcp:_tolower.obj
 0001:0004c22a       __Toupper                  0044d22a f   libcp:_toupper.obj
 0001:0004c30b       __Mbrtowc                  0044d30b f   libcp:xmbtowc.obj
 0001:0004c41d       _btowc                     0044d41d f   libcp:xmbtowc.obj
 0001:0004c45e       _mbrlen                    0044d45e f   libcp:xmbtowc.obj
 0001:0004c481       _mbrtowc                   0044d481 f   libcp:xmbtowc.obj
 0001:0004c4c2       _mbsrtowcs                 0044d4c2 f   libcp:xmbtowc.obj
 0001:0004c54f       ?_Nomemory@std@@YAXXZ      0044d54f f   libcp:nomemory.obj
 0001:0004c59a       ??0bad_alloc@std@@QAE@PBD@Z 0044d59a f i libcp:nomemory.obj
 0001:0004c5b3       ??1bad_alloc@std@@UAE@XZ   0044d5b3 f i libcp:nomemory.obj
 0001:0004c5be       ?_Doraise@bad_alloc@std@@MBEXXZ 0044d5be f i libcp:nomemory.obj
 0001:0004c5db       ??_Ebad_alloc@std@@UAEPAXI@Z 0044d5db f i libcp:nomemory.obj
 0001:0004c5db       ??_Gbad_alloc@std@@UAEPAXI@Z 0044d5db f i libcp:nomemory.obj
 0001:0004c5f7       ??0bad_alloc@std@@QAE@ABV01@@Z 0044d5f7 f i libcp:nomemory.obj
 0001:0004c619       ?_Makewloc@_Locimp@locale@std@@CAXABV_Locinfo@3@HPAV123@PBV23@@Z 0044d619 f   libcp:wlocale.obj
 0001:0004cd56       ??1_Timevec@std@@QAE@XZ    0044dd56 f i libcp:wlocale.obj
 0001:0004cd5f       ?do_in@?$codecvt@GDH@std@@MBEHAAHPBD1AAPBDPAG3AAPAG@Z 0044dd5f f i libcp:wlocale.obj
 0001:0004cde1       ?do_out@?$codecvt@GDH@std@@MBEHAAHPBG1AAPBGPAD3AAPAD@Z 0044dde1 f i libcp:wlocale.obj
 0001:0004ceb4       ?do_length@?$codecvt@GDH@std@@MBEHAAHPBG1I@Z 0044deb4 f i libcp:wlocale.obj
 0001:0004cf03       ?do_always_noconv@?$codecvt@GDH@std@@MBE_NXZ 0044df03 f i libcp:wlocale.obj
 0001:0004cf06       ?do_max_length@?$codecvt@GDH@std@@MBEHXZ 0044df06 f i libcp:wlocale.obj
 0001:0004cf0a       ?do_encoding@?$codecvt@GDH@std@@MBEHXZ 0044df0a f i libcp:wlocale.obj
 0001:0004cf0d       ??_E?$codecvt@GDH@std@@UAEPAXI@Z 0044df0d f i libcp:wlocale.obj
 0001:0004cf0d       ??_G?$codecvt@GDH@std@@UAEPAXI@Z 0044df0d f i libcp:wlocale.obj
 0001:0004cf29       ??1?$codecvt@GDH@std@@UAE@XZ 0044df29 f i libcp:wlocale.obj
 0001:0004cf30       ??1time_base@std@@UAE@XZ   0044df30 f i libcp:wlocale.obj
 0001:0004cf37       ??1messages_base@std@@UAE@XZ 0044df37 f i libcp:wlocale.obj
 0001:0004cf3e       ?do_is@?$ctype@G@std@@MBE_NFG@Z 0044df3e f i libcp:wlocale.obj
 0001:0004cf65       ?do_is@?$ctype@G@std@@MBEPBGPBG0PAF@Z 0044df65 f i libcp:wlocale.obj
 0001:0004cfa4       ?do_scan_is@?$ctype@G@std@@MBEPBGFPBG0@Z 0044dfa4 f i libcp:wlocale.obj
 0001:0004cfd0       ?do_scan_not@?$ctype@G@std@@MBEPBGFPBG0@Z 0044dfd0 f i libcp:wlocale.obj
 0001:0004cffc       ?do_tolower@?$ctype@G@std@@MBEGG@Z 0044dffc f i libcp:wlocale.obj
 0001:0004d02d       ?do_tolower@?$ctype@G@std@@MBEPBGPAGPBG@Z 0044e02d f i libcp:wlocale.obj
 0001:0004d05a       ?do_toupper@?$ctype@G@std@@MBEGG@Z 0044e05a f i libcp:wlocale.obj
 0001:0004d08b       ?do_toupper@?$ctype@G@std@@MBEPBGPAGPBG@Z 0044e08b f i libcp:wlocale.obj
 0001:0004d0b8       ?do_widen@?$ctype@G@std@@MBEGD@Z 0044e0b8 f i libcp:wlocale.obj
 0001:0004d0c7       ?do_widen@?$ctype@G@std@@MBEPBDPBD0PAG@Z 0044e0c7 f i libcp:wlocale.obj
 0001:0004d0f4       ?do_narrow@?$ctype@G@std@@MBEDGD@Z 0044e0f4 f i libcp:wlocale.obj
 0001:0004d101       ?do_narrow@?$ctype@G@std@@MBEPBGPBG0DPAD@Z 0044e101 f i libcp:wlocale.obj
 0001:0004d12d       ?do_put@?$time_put@GV?$ostreambuf_iterator@GU?$char_traits@G@std@@@std@@@std@@MBE?AV?$ostreambuf_iterator@GU?$char_traits@G@std@@@2@V32@AAVios_base@2@PBUtm@@DD@Z 0044e12d f i libcp:wlocale.obj
 0001:0004d209       ?do_get@?$num_get@GV?$istreambuf_iterator@GU?$char_traits@G@std@@@std@@@std@@MBE?AV?$istreambuf_iterator@GU?$char_traits@G@std@@@2@V32@0AAVios_base@2@AAHAA_N@Z 0044e209 f i libcp:wlocale.obj
 0001:0004d3b1       ?do_get@?$num_get@GV?$istreambuf_iterator@GU?$char_traits@G@std@@@std@@@std@@MBE?AV?$istreambuf_iterator@GU?$char_traits@G@std@@@2@V32@0AAVios_base@2@AAHAAG@Z 0044e3b1 f i libcp:wlocale.obj
 0001:0004d479       ?do_get@?$num_get@GV?$istreambuf_iterator@GU?$char_traits@G@std@@@std@@@std@@MBE?AV?$istreambuf_iterator@GU?$char_traits@G@std@@@2@V32@0AAVios_base@2@AAHAAI@Z 0044e479 f i libcp:wlocale.obj
 0001:0004d53d       ?do_get@?$num_get@GV?$istreambuf_iterator@GU?$char_traits@G@std@@@std@@@std@@MBE?AV?$istreambuf_iterator@GU?$char_traits@G@std@@@2@V32@0AAVios_base@2@AAHAAJ@Z 0044e53d f i libcp:wlocale.obj
 0001:0004d5e7       ?do_get@?$num_get@GV?$istreambuf_iterator@GU?$char_traits@G@std@@@std@@@std@@MBE?AV?$istreambuf_iterator@GU?$char_traits@G@std@@@2@V32@0AAVios_base@2@AAHAAK@Z 0044e5e7 f i libcp:wlocale.obj
 0001:0004d691       ?do_get@?$num_get@GV?$istreambuf_iterator@GU?$char_traits@G@std@@@std@@@std@@MBE?AV?$istreambuf_iterator@GU?$char_traits@G@std@@@2@V32@0AAVios_base@2@AAHAAM@Z 0044e691 f i libcp:wlocale.obj
 0001:0004d737       ?do_get@?$num_get@GV?$istreambuf_iterator@GU?$char_traits@G@std@@@std@@@std@@MBE?AV?$istreambuf_iterator@GU?$char_traits@G@std@@@2@V32@0AAVios_base@2@AAHAAN@Z 0044e737 f i libcp:wlocale.obj
 0001:0004d7dd       ?do_get@?$num_get@GV?$istreambuf_iterator@GU?$char_traits@G@std@@@std@@@std@@MBE?AV?$istreambuf_iterator@GU?$char_traits@G@std@@@2@V32@0AAVios_base@2@AAHAAO@Z 0044e7dd f i libcp:wlocale.obj
 0001:0004d883       ?do_get@?$num_get@GV?$istreambuf_iterator@GU?$char_traits@G@std@@@std@@@std@@MBE?AV?$istreambuf_iterator@GU?$char_traits@G@std@@@2@V32@0AAVios_base@2@AAHAAPAX@Z 0044e883 f i libcp:wlocale.obj
 0001:0004d97f       ?do_put@?$num_put@GV?$ostreambuf_iterator@GU?$char_traits@G@std@@@std@@@std@@MBE?AV?$ostreambuf_iterator@GU?$char_traits@G@std@@@2@V32@AAVios_base@2@G_N@Z 0044e97f f i libcp:wlocale.obj
 0001:0004db32       ?do_put@?$num_put@GV?$ostreambuf_iterator@GU?$char_traits@G@std@@@std@@@std@@MBE?AV?$ostreambuf_iterator@GU?$char_traits@G@std@@@2@V32@AAVios_base@2@GJ@Z 0044eb32 f i libcp:wlocale.obj
 0001:0004db8a       ?do_put@?$num_put@GV?$ostreambuf_iterator@GU?$char_traits@G@std@@@std@@@std@@MBE?AV?$ostreambuf_iterator@GU?$char_traits@G@std@@@2@V32@AAVios_base@2@GK@Z 0044eb8a f i libcp:wlocale.obj
 0001:0004dbe2       ?do_put@?$num_put@GV?$ostreambuf_iterator@GU?$char_traits@G@std@@@std@@@std@@MBE?AV?$ostreambuf_iterator@GU?$char_traits@G@std@@@2@V32@AAVios_base@2@GN@Z 0044ebe2 f i libcp:wlocale.obj
 0001:0004dc60       ?do_put@?$num_put@GV?$ostreambuf_iterator@GU?$char_traits@G@std@@@std@@@std@@MBE?AV?$ostreambuf_iterator@GU?$char_traits@G@std@@@2@V32@AAVios_base@2@GO@Z 0044ec60 f i libcp:wlocale.obj
 0001:0004dcde       ?do_put@?$num_put@GV?$ostreambuf_iterator@GU?$char_traits@G@std@@@std@@@std@@MBE?AV?$ostreambuf_iterator@GU?$char_traits@G@std@@@2@V32@AAVios_base@2@GPBX@Z 0044ecde f i libcp:wlocale.obj
 0001:0004ddb0       ?do_decimal_point@?$numpunct@G@std@@MBEGXZ 0044edb0 f i libcp:wlocale.obj
 0001:0004ddb5       ?do_thousands_sep@?$numpunct@G@std@@MBEGXZ 0044edb5 f i libcp:wlocale.obj
 0001:0004ddba       ?do_grouping@?$numpunct@G@std@@MBE?AV?$basic_string@DU?$char_traits@D@std@@V?$allocator@D@2@@2@XZ 0044edba f i libcp:wlocale.obj
 0001:0004ddf0       ?do_falsename@?$numpunct@G@std@@MBE?AV?$basic_string@GU?$char_traits@G@std@@V?$allocator@G@2@@2@XZ 0044edf0 f i libcp:wlocale.obj
 0001:0004de26       ?do_truename@?$numpunct@G@std@@MBE?AV?$basic_string@GU?$char_traits@G@std@@V?$allocator@G@2@@2@XZ 0044ee26 f i libcp:wlocale.obj
 0001:0004de5c       ?do_compare@?$collate@G@std@@MBEHPBG000@Z 0044ee5c f i libcp:wlocale.obj
 0001:0004de9f       ?do_transform@?$collate@G@std@@MBE?AV?$basic_string@GU?$char_traits@G@std@@V?$allocator@G@2@@2@PBG0@Z 0044ee9f f i libcp:wlocale.obj
 0001:0004df76       ?do_hash@?$collate@G@std@@MBEJPBG0@Z 0044ef76 f i libcp:wlocale.obj
 0001:0004df98       ?do_open@?$messages@G@std@@MBEHABV?$basic_string@DU?$char_traits@D@std@@V?$allocator@D@2@@2@ABVlocale@2@@Z 0044ef98 f i libcp:wlocale.obj
 0001:0004df9d       ?do_get@?$messages@G@std@@MBE?AV?$basic_string@GU?$char_traits@G@std@@V?$allocator@G@2@@2@HHHABV32@@Z 0044ef9d f i libcp:wlocale.obj
 0001:0004e00e       ?do_close@?$messages@G@std@@MBEXH@Z 0044f00e f i libcp:wlocale.obj
 0001:0004e011       ?do_get@?$money_get@GV?$istreambuf_iterator@GU?$char_traits@G@std@@@std@@@std@@MBE?AV?$istreambuf_iterator@GU?$char_traits@G@std@@@2@V32@0_NAAVios_base@2@AAHAAO@Z 0044f011 f i libcp:wlocale.obj
 0001:0004e144       ?do_get@?$money_get@GV?$istreambuf_iterator@GU?$char_traits@G@std@@@std@@@std@@MBE?AV?$istreambuf_iterator@GU?$char_traits@G@std@@@2@V32@0_NAAVios_base@2@AAHAAV?$basic_string@GU?$char_traits@G@std@@V?$allocator@G@2@@2@@Z 0044f144 f i libcp:wlocale.obj
 0001:0004e1ce       ?do_put@?$money_put@GV?$ostreambuf_iterator@GU?$char_traits@G@std@@@std@@@std@@MBE?AV?$ostreambuf_iterator@GU?$char_traits@G@std@@@2@V32@_NAAVios_base@2@GO@Z 0044f1ce f i libcp:wlocale.obj
 0001:0004e302       ?do_put@?$money_put@GV?$ostreambuf_iterator@GU?$char_traits@G@std@@@std@@@std@@MBE?AV?$ostreambuf_iterator@GU?$char_traits@G@std@@@2@V32@_NAAVios_base@2@GABV?$basic_string@GU?$char_traits@G@std@@V?$allocator@G@2@@2@@Z 0044f302 f i libcp:wlocale.obj
 0001:0004e43e       ?do_decimal_point@?$_Mpunct@G@std@@MBEGXZ 0044f43e f i libcp:wlocale.obj
 0001:0004e443       ?do_thousands_sep@?$_Mpunct@G@std@@MBEGXZ 0044f443 f i libcp:wlocale.obj
 0001:0004e448       ?do_grouping@?$_Mpunct@G@std@@MBE?AV?$basic_string@DU?$char_traits@D@std@@V?$allocator@D@2@@2@XZ 0044f448 f i libcp:wlocale.obj
 0001:0004e47e       ?do_curr_symbol@?$_Mpunct@G@std@@MBE?AV?$basic_string@GU?$char_traits@G@std@@V?$allocator@G@2@@2@XZ 0044f47e f i libcp:wlocale.obj
 0001:0004e4b4       ?do_positive_sign@?$_Mpunct@G@std@@MBE?AV?$basic_string@GU?$char_traits@G@std@@V?$allocator@G@2@@2@XZ 0044f4b4 f i libcp:wlocale.obj
 0001:0004e4ea       ?do_negative_sign@?$_Mpunct@G@std@@MBE?AV?$basic_string@GU?$char_traits@G@std@@V?$allocator@G@2@@2@XZ 0044f4ea f i libcp:wlocale.obj
 0001:0004e520       ?do_frac_digits@?$_Mpunct@G@std@@MBEHXZ 0044f520 f i libcp:wlocale.obj
 0001:0004e524       ?do_pos_format@?$_Mpunct@G@std@@MBE?AUpattern@money_base@2@XZ 0044f524 f i libcp:wlocale.obj
 0001:0004e530       ?do_neg_format@?$_Mpunct@G@std@@MBE?AUpattern@money_base@2@XZ 0044f530 f i libcp:wlocale.obj
 0001:0004e53c       ?do_date_order@?$time_get@GV?$istreambuf_iterator@GU?$char_traits@G@std@@@std@@@std@@MBEHXZ 0044f53c f i libcp:wlocale.obj
 0001:0004e540       ?do_get_time@?$time_get@GV?$istreambuf_iterator@GU?$char_traits@G@std@@@std@@@std@@MBE?AV?$istreambuf_iterator@GU?$char_traits@G@std@@@2@V32@0AAVios_base@2@AAHPAUtm@@@Z 0044f540 f i libcp:wlocale.obj
 0001:0004e604       ?do_get_date@?$time_get@GV?$istreambuf_iterator@GU?$char_traits@G@std@@@std@@@std@@MBE?AV?$istreambuf_iterator@GU?$char_traits@G@std@@@2@V32@0AAVios_base@2@AAHPAUtm@@@Z 0044f604 f i libcp:wlocale.obj
 0001:0004e735       ?do_get_weekday@?$time_get@GV?$istreambuf_iterator@GU?$char_traits@G@std@@@std@@@std@@MBE?AV?$istreambuf_iterator@GU?$char_traits@G@std@@@2@V32@0AAVios_base@2@AAHPAUtm@@@Z 0044f735 f i libcp:wlocale.obj
 0001:0004e773       ?do_get_monthname@?$time_get@GV?$istreambuf_iterator@GU?$char_traits@G@std@@@std@@@std@@MBE?AV?$istreambuf_iterator@GU?$char_traits@G@std@@@2@V32@0AAVios_base@2@AAHPAUtm@@@Z 0044f773 f i libcp:wlocale.obj
 0001:0004e7b1       ?do_get_year@?$time_get@GV?$istreambuf_iterator@GU?$char_traits@G@std@@@std@@@std@@MBE?AV?$istreambuf_iterator@GU?$char_traits@G@std@@@2@V32@0AAVios_base@2@AAHPAUtm@@@Z 0044f7b1 f i libcp:wlocale.obj
 0001:0004e817       ??_E?$ctype@G@std@@UAEPAXI@Z 0044f817 f i libcp:wlocale.obj
 0001:0004e817       ??_G?$ctype@G@std@@UAEPAXI@Z 0044f817 f i libcp:wlocale.obj
 0001:0004e833       ??1?$ctype@G@std@@UAE@XZ   0044f833 f i libcp:wlocale.obj
 0001:0004e853       ??_G?$time_put@GV?$ostreambuf_iterator@GU?$char_traits@G@std@@@std@@@std@@UAEPAXI@Z 0044f853 f i libcp:wlocale.obj
 0001:0004e853       ??_E?$time_put@GV?$ostreambuf_iterator@GU?$char_traits@G@std@@@std@@@std@@UAEPAXI@Z 0044f853 f i libcp:wlocale.obj
 0001:0004e86f       ??1?$time_put@GV?$ostreambuf_iterator@GU?$char_traits@G@std@@@std@@@std@@UAE@XZ 0044f86f f i libcp:wlocale.obj
 0001:0004e889       ??_E?$num_get@GV?$istreambuf_iterator@GU?$char_traits@G@std@@@std@@@std@@UAEPAXI@Z 0044f889 f i libcp:wlocale.obj
 0001:0004e889       ??_G?$num_get@GV?$istreambuf_iterator@GU?$char_traits@G@std@@@std@@@std@@UAEPAXI@Z 0044f889 f i libcp:wlocale.obj
 0001:0004e8a5       ??1?$num_get@GV?$istreambuf_iterator@GU?$char_traits@G@std@@@std@@@std@@UAE@XZ 0044f8a5 f i libcp:wlocale.obj
 0001:0004e8ac       ??_G?$num_put@GV?$ostreambuf_iterator@GU?$char_traits@G@std@@@std@@@std@@UAEPAXI@Z 0044f8ac f i libcp:wlocale.obj
 0001:0004e8ac       ??_E?$num_put@GV?$ostreambuf_iterator@GU?$char_traits@G@std@@@std@@@std@@UAEPAXI@Z 0044f8ac f i libcp:wlocale.obj
 0001:0004e8c8       ??1?$num_put@GV?$ostreambuf_iterator@GU?$char_traits@G@std@@@std@@@std@@UAE@XZ 0044f8c8 f i libcp:wlocale.obj
 0001:0004e8cf       ??_G?$numpunct@G@std@@UAEPAXI@Z 0044f8cf f i libcp:wlocale.obj
 0001:0004e8cf       ??_E?$numpunct@G@std@@UAEPAXI@Z 0044f8cf f i libcp:wlocale.obj
 0001:0004e8eb       ??1?$numpunct@G@std@@UAE@XZ 0044f8eb f i libcp:wlocale.obj
 0001:0004e917       ??_E?$collate@G@std@@UAEPAXI@Z 0044f917 f i libcp:wlocale.obj
 0001:0004e917       ??_G?$collate@G@std@@UAEPAXI@Z 0044f917 f i libcp:wlocale.obj
 0001:0004e933       ??1?$collate@G@std@@UAE@XZ 0044f933 f i libcp:wlocale.obj
 0001:0004e93a       ??_E?$messages@G@std@@UAEPAXI@Z 0044f93a f i libcp:wlocale.obj
 0001:0004e93a       ??_G?$messages@G@std@@UAEPAXI@Z 0044f93a f i libcp:wlocale.obj
 0001:0004e956       ??1?$messages@G@std@@UAE@XZ 0044f956 f i libcp:wlocale.obj
 0001:0004e979       ??_E?$money_get@GV?$istreambuf_iterator@GU?$char_traits@G@std@@@std@@@std@@UAEPAXI@Z 0044f979 f i libcp:wlocale.obj
 0001:0004e979       ??_G?$money_get@GV?$istreambuf_iterator@GU?$char_traits@G@std@@@std@@@std@@UAEPAXI@Z 0044f979 f i libcp:wlocale.obj
 0001:0004e995       ??1?$money_get@GV?$istreambuf_iterator@GU?$char_traits@G@std@@@std@@@std@@UAE@XZ 0044f995 f i libcp:wlocale.obj
 0001:0004e99c       ??_E?$money_put@GV?$ostreambuf_iterator@GU?$char_traits@G@std@@@std@@@std@@UAEPAXI@Z 0044f99c f i libcp:wlocale.obj
 0001:0004e99c       ??_G?$money_put@GV?$ostreambuf_iterator@GU?$char_traits@G@std@@@std@@@std@@UAEPAXI@Z 0044f99c f i libcp:wlocale.obj
 0001:0004e9b8       ??1?$money_put@GV?$ostreambuf_iterator@GU?$char_traits@G@std@@@std@@@std@@UAE@XZ 0044f9b8 f i libcp:wlocale.obj
 0001:0004e9bf       ??_E?$moneypunct@G$0A@@std@@UAEPAXI@Z 0044f9bf f i libcp:wlocale.obj
 0001:0004e9bf       ??_G?$moneypunct@G$0A@@std@@UAEPAXI@Z 0044f9bf f i libcp:wlocale.obj
 0001:0004e9db       ??_G?$moneypunct@G$00@std@@UAEPAXI@Z 0044f9db f i libcp:wlocale.obj
 0001:0004e9db       ??_E?$moneypunct@G$00@std@@UAEPAXI@Z 0044f9db f i libcp:wlocale.obj
 0001:0004e9f7       ??_E?$time_get@GV?$istreambuf_iterator@GU?$char_traits@G@std@@@std@@@std@@UAEPAXI@Z 0044f9f7 f i libcp:wlocale.obj
 0001:0004e9f7       ??_G?$time_get@GV?$istreambuf_iterator@GU?$char_traits@G@std@@@std@@@std@@UAEPAXI@Z 0044f9f7 f i libcp:wlocale.obj
 0001:0004ea13       ??1?$time_get@GV?$istreambuf_iterator@GU?$char_traits@G@std@@@std@@@std@@UAE@XZ 0044fa13 f i libcp:wlocale.obj
 0001:0004ea36       ??1?$moneypunct@G$0A@@std@@UAE@XZ 0044fa36 f i libcp:wlocale.obj
 0001:0004ea3b       ??1?$_Mpunct@G@std@@UAE@XZ 0044fa3b f i libcp:wlocale.obj
 0001:0004ea6f       ??_G?$_Mpunct@G@std@@UAEPAXI@Z 0044fa6f f i libcp:wlocale.obj
 0001:0004ea6f       ??_E?$_Mpunct@G@std@@UAEPAXI@Z 0044fa6f f i libcp:wlocale.obj
 0001:0004ea8b       ??1?$moneypunct@G$00@std@@UAE@XZ 0044fa8b f i libcp:wlocale.obj
 0001:0004ea90       ?_Init@?$time_put@GV?$ostreambuf_iterator@GU?$char_traits@G@std@@@std@@@std@@IAEXABV_Locinfo@2@@Z 0044fa90 f i libcp:wlocale.obj
 0001:0004eab8       ?_Gettnames@_Locinfo@std@@QBE?AV_Timevec@2@XZ 0044fab8 f i libcp:wlocale.obj
 0001:0004ead0       ??4?$ostreambuf_iterator@GU?$char_traits@G@std@@@std@@QAEAAV01@G@Z 0044fad0 f i libcp:wlocale.obj
 0001:0004eaf2       ?sputc@?$basic_streambuf@GU?$char_traits@G@std@@@std@@QAEGG@Z 0044faf2 f i libcp:wlocale.obj
 0001:0004eb23       ?_Getifld@?$num_get@GV?$istreambuf_iterator@GU?$char_traits@G@std@@@std@@@std@@CAHPADAAV?$istreambuf_iterator@GU?$char_traits@G@std@@@2@1HABVlocale@2@@Z 0044fb23 f i libcp:wlocale.obj
 0001:0004eef2       ?_Getffld@?$num_get@GV?$istreambuf_iterator@GU?$char_traits@G@std@@@std@@@std@@CAHPADAAV?$istreambuf_iterator@GU?$char_traits@G@std@@@2@1ABVlocale@2@@Z 0044fef2 f i libcp:wlocale.obj
 0001:0004f23d       ?_Ffmt@?$num_put@GV?$ostreambuf_iterator@GU?$char_traits@G@std@@@std@@@std@@KAPADPADDH@Z 0045023d f i libcp:wlocale.obj
 0001:0004f29b       ?_Fput@?$num_put@GV?$ostreambuf_iterator@GU?$char_traits@G@std@@@std@@@std@@KA?AV?$ostreambuf_iterator@GU?$char_traits@G@std@@@2@V32@AAVios_base@2@GPBDII@Z 0045029b f i libcp:wlocale.obj
 0001:0004f580       ?_Ifmt@?$num_put@GV?$ostreambuf_iterator@GU?$char_traits@G@std@@@std@@@std@@KAPADPADDH@Z 00450580 f i libcp:wlocale.obj
 0001:0004f5da       ?_Iput@?$num_put@GV?$ostreambuf_iterator@GU?$char_traits@G@std@@@std@@@std@@KA?AV?$ostreambuf_iterator@GU?$char_traits@G@std@@@2@V32@AAVios_base@2@GPADI@Z 004505da f i libcp:wlocale.obj
 0001:0004f888       ?falsename@?$numpunct@G@std@@QBE?AV?$basic_string@GU?$char_traits@G@std@@V?$allocator@G@2@@2@XZ 00450888 f i libcp:wlocale.obj
 0001:0004f89f       ?truename@?$numpunct@G@std@@QBE?AV?$basic_string@GU?$char_traits@G@std@@V?$allocator@G@2@@2@XZ 0045089f f i libcp:wlocale.obj
 0001:0004f8b6       ?_Init@?$numpunct@G@std@@IAEXABV_Locinfo@2@@Z 004508b6 f i libcp:wlocale.obj
 0001:0004f913       ?_Init@?$messages@G@std@@IAEXABV_Locinfo@2@@Z 00450913 f i libcp:wlocale.obj
 0001:0004f93b       ?_Getmfld@?$money_get@GV?$istreambuf_iterator@GU?$char_traits@G@std@@@std@@@std@@ABE?AV?$basic_string@GU?$char_traits@G@std@@V?$allocator@G@2@@2@AAV?$istreambuf_iterator@GU?$char_traits@G@std@@@2@0_NAAVios_base@2@@Z 0045093b f i libcp:wlocale.obj
 0001:000501dc       ?_Putmfld@?$money_put@GV?$ostreambuf_iterator@GU?$char_traits@G@std@@@std@@@std@@ABE?AV?$ostreambuf_iterator@GU?$char_traits@G@std@@@2@V32@_NAAVios_base@2@G1V?$basic_string@GU?$char_traits@G@std@@V?$allocator@G@2@@2@@Z 004511dc f i libcp:wlocale.obj
 0001:000507aa       ??1?$basic_string@GU?$char_traits@G@std@@V?$allocator@G@2@@std@@QAE@XZ 004517aa f i libcp:wlocale.obj
 0001:000507b2       ?append@?$basic_string@GU?$char_traits@G@std@@V?$allocator@G@2@@std@@QAEAAV12@IG@Z 004517b2 f i libcp:wlocale.obj
 0001:0005081b       ?resize@?$basic_string@GU?$char_traits@G@std@@V?$allocator@G@2@@std@@QAEXI@Z 0045181b f i libcp:wlocale.obj
 0001:00050841       ??0?$_Mpunct@G@std@@QAE@ABV_Locinfo@1@I_N@Z 00451841 f i libcp:wlocale.obj
 0001:00050881       ??1money_base@std@@UAE@XZ  00451881 f i libcp:wlocale.obj
 0001:00050888       ?_Init@?$time_get@GV?$istreambuf_iterator@GU?$char_traits@G@std@@@std@@@std@@IAEXABV_Locinfo@2@@Z 00451888 f i libcp:wlocale.obj
 0001:000508bb       ?_Getdays@_Locinfo@std@@QBEPBDXZ 004518bb f i libcp:wlocale.obj
 0001:00050901       ?_Getmonths@_Locinfo@std@@QBEPBDXZ 00451901 f i libcp:wlocale.obj
 0001:00050948       ?_Getint@?$time_get@GV?$istreambuf_iterator@GU?$char_traits@G@std@@@std@@@std@@CAHAAV?$istreambuf_iterator@GU?$char_traits@G@std@@@2@0HHAAH@Z 00451948 f i libcp:wlocale.obj
 0001:00050a9d       ?_Inc@?$istreambuf_iterator@GU?$char_traits@G@std@@@std@@AAEXXZ 00451a9d f i libcp:wlocale.obj
 0001:00050ac0       ?sbumpc@?$basic_streambuf@GU?$char_traits@G@std@@@std@@QAEGXZ 00451ac0 f i libcp:wlocale.obj
 0001:00050ae4       ?_Peek@?$istreambuf_iterator@GU?$char_traits@G@std@@@std@@AAEGXZ 00451ae4 f i libcp:wlocale.obj
 0001:00050b0b       ?sgetc@?$basic_streambuf@GU?$char_traits@G@std@@@std@@QAEGXZ 00451b0b f i libcp:wlocale.obj
 0001:00050b2a       ?grouping@?$numpunct@G@std@@QBE?AV?$basic_string@DU?$char_traits@D@std@@V?$allocator@D@2@@2@XZ 00451b2a f i libcp:wlocale.obj
 0001:00050b41       ?assign@?$basic_string@GU?$char_traits@G@std@@V?$allocator@G@2@@std@@QAEAAV12@ABV12@II@Z 00451b41 f i libcp:wlocale.obj
 0001:00050c1f       ?assign@?$basic_string@GU?$char_traits@G@std@@V?$allocator@G@2@@std@@QAEAAV12@PBGI@Z 00451c1f f i libcp:wlocale.obj
 0001:00050c61       ?assign@?$basic_string@GU?$char_traits@G@std@@V?$allocator@G@2@@std@@QAEAAV12@IG@Z 00451c61 f i libcp:wlocale.obj
 0001:00050cb9       ?insert@?$basic_string@GU?$char_traits@G@std@@V?$allocator@G@2@@std@@QAEAAV12@IIG@Z 00451cb9 f i libcp:wlocale.obj
 0001:00050d4e       _wmemmove                  00451d4e f i libcp:wlocale.obj
 0001:00050d93       ?erase@?$basic_string@GU?$char_traits@G@std@@V?$allocator@G@2@@std@@QAEAAV12@II@Z 00451d93 f i libcp:wlocale.obj
 0001:00050dff       ?_Freeze@?$basic_string@GU?$char_traits@G@std@@V?$allocator@G@2@@std@@AAEXXZ 00451dff f i libcp:wlocale.obj
 0001:00050e2b       ?_Grow@?$basic_string@GU?$char_traits@G@std@@V?$allocator@G@2@@std@@AAE_NI_N@Z 00451e2b f i libcp:wlocale.obj
 0001:00050eb4       ?_Tidy@?$basic_string@GU?$char_traits@G@std@@V?$allocator@G@2@@std@@AAEX_N@Z 00451eb4 f i libcp:wlocale.obj
 0001:00050ef1       ?grouping@?$_Mpunct@G@std@@QBE?AV?$basic_string@DU?$char_traits@D@std@@V?$allocator@D@2@@2@XZ 00451ef1 f i libcp:wlocale.obj
 0001:00050f08       ?curr_symbol@?$_Mpunct@G@std@@QBE?AV?$basic_string@GU?$char_traits@G@std@@V?$allocator@G@2@@2@XZ 00451f08 f i libcp:wlocale.obj
 0001:00050f1f       ?positive_sign@?$_Mpunct@G@std@@QBE?AV?$basic_string@GU?$char_traits@G@std@@V?$allocator@G@2@@2@XZ 00451f1f f i libcp:wlocale.obj
 0001:00050f36       ?negative_sign@?$_Mpunct@G@std@@QBE?AV?$basic_string@GU?$char_traits@G@std@@V?$allocator@G@2@@2@XZ 00451f36 f i libcp:wlocale.obj
 0001:00050f4d       ?_Init@?$_Mpunct@G@std@@IAEXABV_Locinfo@2@@Z 00451f4d f i libcp:wlocale.obj
 0001:00051038       ?append@?$basic_string@GU?$char_traits@G@std@@V?$allocator@G@2@@std@@QAEAAV12@ABV12@II@Z 00452038 f i libcp:wlocale.obj
 0001:000510ca       ?_Copy@?$basic_string@GU?$char_traits@G@std@@V?$allocator@G@2@@std@@AAEXI@Z 004520ca f i libcp:wlocale.obj
 0001:0005119c       ?_Split@?$basic_string@GU?$char_traits@G@std@@V?$allocator@G@2@@std@@AAEXXZ 0045219c f i libcp:wlocale.obj
 0001:000511cc       ?_Makpat@?$_Mpunct@G@std@@AAEXAAUpattern@money_base@2@DDD@Z 004521cc f i libcp:wlocale.obj
 0001:0005122d       ?use_facet@std@@YAABV?$ctype@G@1@ABVlocale@1@PBV21@_N@Z 0045222d f i libcp:wlocale.obj
 0001:000512e4       ?use_facet@std@@YAABV?$num_get@GV?$istreambuf_iterator@GU?$char_traits@G@std@@@std@@@1@ABVlocale@1@PBV21@_N@Z 004522e4 f i libcp:wlocale.obj
 0001:000513b5       ?use_facet@std@@YAABV?$num_put@GV?$ostreambuf_iterator@GU?$char_traits@G@std@@@std@@@1@ABVlocale@1@PBV21@_N@Z 004523b5 f i libcp:wlocale.obj
 0001:00051486       ?use_facet@std@@YAABV?$numpunct@G@1@ABVlocale@1@PBV21@_N@Z 00452486 f i libcp:wlocale.obj
 0001:0005153d       ?use_facet@std@@YAABV?$collate@G@1@ABVlocale@1@PBV21@_N@Z 0045253d f i libcp:wlocale.obj
 0001:000515f4       ?use_facet@std@@YAABV?$messages@G@1@ABVlocale@1@PBV21@_N@Z 004525f4 f i libcp:wlocale.obj
 0001:000516ab       ?use_facet@std@@YAABV?$money_get@GV?$istreambuf_iterator@GU?$char_traits@G@std@@@std@@@1@ABVlocale@1@PBV21@_N@Z 004526ab f i libcp:wlocale.obj
 0001:0005177c       ?use_facet@std@@YAABV?$money_put@GV?$ostreambuf_iterator@GU?$char_traits@G@std@@@std@@@1@ABVlocale@1@PBV21@_N@Z 0045277c f i libcp:wlocale.obj
 0001:0005184d       ?use_facet@std@@YAABV?$moneypunct@G$0A@@1@ABVlocale@1@PBV21@_N@Z 0045284d f i libcp:wlocale.obj
 0001:00051910       ?use_facet@std@@YAABV?$moneypunct@G$00@1@ABVlocale@1@PBV21@_N@Z 00452910 f i libcp:wlocale.obj
 0001:000519d3       ?use_facet@std@@YAABV?$time_get@GV?$istreambuf_iterator@GU?$char_traits@G@std@@@std@@@1@ABVlocale@1@PBV21@_N@Z 004529d3 f i libcp:wlocale.obj
 0001:00051a8a       ?use_facet@std@@YAABV?$time_put@GV?$ostreambuf_iterator@GU?$char_traits@G@std@@@std@@@1@ABVlocale@1@PBV21@_N@Z 00452a8a f i libcp:wlocale.obj
 0001:00051b41       ?use_facet@std@@YAABV?$codecvt@GDH@1@ABVlocale@1@PBV21@_N@Z 00452b41 f i libcp:wlocale.obj
 0001:00051bf8       ??0?$codecvt@GDH@std@@QAE@I@Z 00452bf8 f i libcp:wlocale.obj
 0001:00051c4c       ?_Getloctxt@std@@YAHAAV?$istreambuf_iterator@GU?$char_traits@G@std@@@1@0IPBG@Z 00452c4c f i libcp:wlocale.obj
 0001:00051e18       ?_Maklocstr@std@@YAPAGPBDPAG@Z 00452e18 f i libcp:wlocale.obj
 0001:00051e56       ??0?$ctype@G@std@@QAE@I@Z  00452e56 f i libcp:wlocale.obj
 0001:00051eb6       ??0?$time_put@GV?$ostreambuf_iterator@GU?$char_traits@G@std@@@std@@@std@@QAE@I@Z 00452eb6 f i libcp:wlocale.obj
 0001:00051f23       ?equal@?$istreambuf_iterator@GU?$char_traits@G@std@@@std@@QBE_NABV12@@Z 00452f23 f i libcp:wlocale.obj
 0001:00051f62       ??0?$numpunct@G@std@@QAE@I@Z 00452f62 f i libcp:wlocale.obj
 0001:00051fbb       ??0?$collate@G@std@@QAE@I@Z 00452fbb f i libcp:wlocale.obj
 0001:0005200f       ??0?$messages@G@std@@QAE@I@Z 0045300f f i libcp:wlocale.obj
 0001:00052081       ??0?$time_get@GV?$istreambuf_iterator@GU?$char_traits@G@std@@@std@@@std@@QAE@I@Z 00453081 f i libcp:wlocale.obj
 0001:000520da       ?_Save@?$_Tidyfac@V?$ctype@G@std@@@std@@SAPAV?$ctype@G@2@PAV32@@Z 004530da f i libcp:wlocale.obj
 0001:00052100       ?_Save@?$_Tidyfac@V?$num_get@GV?$istreambuf_iterator@GU?$char_traits@G@std@@@std@@@std@@@std@@SAPAV?$num_get@GV?$istreambuf_iterator@GU?$char_traits@G@std@@@std@@@2@PAV32@@Z 00453100 f i libcp:wlocale.obj
 0001:00052126       ?_Save@?$_Tidyfac@V?$num_put@GV?$ostreambuf_iterator@GU?$char_traits@G@std@@@std@@@std@@@std@@SAPAV?$num_put@GV?$ostreambuf_iterator@GU?$char_traits@G@std@@@std@@@2@PAV32@@Z 00453126 f i libcp:wlocale.obj
 0001:0005214c       ?_Save@?$_Tidyfac@V?$numpunct@G@std@@@std@@SAPAV?$numpunct@G@2@PAV32@@Z 0045314c f i libcp:wlocale.obj
 0001:00052172       ?_Save@?$_Tidyfac@V?$collate@G@std@@@std@@SAPAV?$collate@G@2@PAV32@@Z 00453172 f i libcp:wlocale.obj
 0001:00052198       ?_Save@?$_Tidyfac@V?$messages@G@std@@@std@@SAPAV?$messages@G@2@PAV32@@Z 00453198 f i libcp:wlocale.obj
 0001:000521be       ?_Save@?$_Tidyfac@V?$money_get@GV?$istreambuf_iterator@GU?$char_traits@G@std@@@std@@@std@@@std@@SAPAV?$money_get@GV?$istreambuf_iterator@GU?$char_traits@G@std@@@std@@@2@PAV32@@Z 004531be f i libcp:wlocale.obj
 0001:000521e4       ?_Save@?$_Tidyfac@V?$money_put@GV?$ostreambuf_iterator@GU?$char_traits@G@std@@@std@@@std@@@std@@SAPAV?$money_put@GV?$ostreambuf_iterator@GU?$char_traits@G@std@@@std@@@2@PAV32@@Z 004531e4 f i libcp:wlocale.obj
 0001:0005220a       ?_Save@?$_Tidyfac@V?$moneypunct@G$0A@@std@@@std@@SAPAV?$moneypunct@G$0A@@2@PAV32@@Z 0045320a f i libcp:wlocale.obj
 0001:00052230       ?_Save@?$_Tidyfac@V?$moneypunct@G$00@std@@@std@@SAPAV?$moneypunct@G$00@2@PAV32@@Z 00453230 f i libcp:wlocale.obj
 0001:00052256       ?_Save@?$_Tidyfac@V?$time_get@GV?$istreambuf_iterator@GU?$char_traits@G@std@@@std@@@std@@@std@@SAPAV?$time_get@GV?$istreambuf_iterator@GU?$char_traits@G@std@@@std@@@2@PAV32@@Z 00453256 f i libcp:wlocale.obj
 0001:0005227c       ?_Save@?$_Tidyfac@V?$time_put@GV?$ostreambuf_iterator@GU?$char_traits@G@std@@@std@@@std@@@std@@SAPAV?$time_put@GV?$ostreambuf_iterator@GU?$char_traits@G@std@@@std@@@2@PAV32@@Z 0045327c f i libcp:wlocale.obj
 0001:000522a2       ?_Save@?$_Tidyfac@V?$codecvt@GDH@std@@@std@@SAPAV?$codecvt@GDH@2@PAV32@@Z 004532a2 f i libcp:wlocale.obj
 0001:000522c8       ??0?$_Mpunct@G@std@@QAE@I_N@Z 004532c8 f i libcp:wlocale.obj
 0001:00052327       ?_Tidy@?$_Tidyfac@V?$ctype@G@std@@@std@@SAXXZ 00453327 f i libcp:wlocale.obj
 0001:00052372       ?_Tidy@?$_Tidyfac@V?$num_get@GV?$istreambuf_iterator@GU?$char_traits@G@std@@@std@@@std@@@std@@SAXXZ 00453372 f i libcp:wlocale.obj
 0001:000523bd       ?_Tidy@?$_Tidyfac@V?$num_put@GV?$ostreambuf_iterator@GU?$char_traits@G@std@@@std@@@std@@@std@@SAXXZ 004533bd f i libcp:wlocale.obj
 0001:00052408       ?_Tidy@?$_Tidyfac@V?$numpunct@G@std@@@std@@SAXXZ 00453408 f i libcp:wlocale.obj
 0001:00052453       ?_Tidy@?$_Tidyfac@V?$collate@G@std@@@std@@SAXXZ 00453453 f i libcp:wlocale.obj
 0001:0005249e       ?_Tidy@?$_Tidyfac@V?$messages@G@std@@@std@@SAXXZ 0045349e f i libcp:wlocale.obj
 0001:000524e9       ?_Tidy@?$_Tidyfac@V?$money_get@GV?$istreambuf_iterator@GU?$char_traits@G@std@@@std@@@std@@@std@@SAXXZ 004534e9 f i libcp:wlocale.obj
 0001:00052534       ?_Tidy@?$_Tidyfac@V?$money_put@GV?$ostreambuf_iterator@GU?$char_traits@G@std@@@std@@@std@@@std@@SAXXZ 00453534 f i libcp:wlocale.obj
 0001:0005257f       ?_Tidy@?$_Tidyfac@V?$moneypunct@G$0A@@std@@@std@@SAXXZ 0045357f f i libcp:wlocale.obj
 0001:000525ca       ?_Tidy@?$_Tidyfac@V?$moneypunct@G$00@std@@@std@@SAXXZ 004535ca f i libcp:wlocale.obj
 0001:00052615       ?_Tidy@?$_Tidyfac@V?$time_get@GV?$istreambuf_iterator@GU?$char_traits@G@std@@@std@@@std@@@std@@SAXXZ 00453615 f i libcp:wlocale.obj
 0001:00052660       ?_Tidy@?$_Tidyfac@V?$time_put@GV?$ostreambuf_iterator@GU?$char_traits@G@std@@@std@@@std@@@std@@SAXXZ 00453660 f i libcp:wlocale.obj
 0001:000526ab       ?_Tidy@?$_Tidyfac@V?$codecvt@GDH@std@@@std@@SAXXZ 004536ab f i libcp:wlocale.obj
 0001:00052717       ?_Makexloc@_Locimp@locale@std@@CAXABV_Locinfo@3@HPAV123@PBV23@@Z 00453717 f   libcp:xlocale.obj
 0001:00052b93       ?do_compare@?$collate@D@std@@MBEHPBD000@Z 00453b93 f i libcp:xlocale.obj
 0001:00052bd1       ?do_transform@?$collate@D@std@@MBE?AV?$basic_string@DU?$char_traits@D@std@@V?$allocator@D@2@@2@PBD0@Z 00453bd1 f i libcp:xlocale.obj
 0001:00052ca0       ?do_hash@?$collate@D@std@@MBEJPBD0@Z 00453ca0 f i libcp:xlocale.obj
 0001:00052cc1       ?do_open@?$messages@D@std@@MBEHABV?$basic_string@DU?$char_traits@D@std@@V?$allocator@D@2@@2@ABVlocale@2@@Z 00453cc1 f i libcp:xlocale.obj
 0001:00052cc6       ?do_get@?$messages@D@std@@MBE?AV?$basic_string@DU?$char_traits@D@std@@V?$allocator@D@2@@2@HHHABV32@@Z 00453cc6 f i libcp:xlocale.obj
 0001:00052d37       ?do_close@?$messages@D@std@@MBEXH@Z 00453d37 f i libcp:xlocale.obj
 0001:00052d3a       ?do_get@?$money_get@DV?$istreambuf_iterator@DU?$char_traits@D@std@@@std@@@std@@MBE?AV?$istreambuf_iterator@DU?$char_traits@D@std@@@2@V32@0_NAAVios_base@2@AAHAAO@Z 00453d3a f i libcp:xlocale.obj
 0001:00052e66       ?do_get@?$money_get@DV?$istreambuf_iterator@DU?$char_traits@D@std@@@std@@@std@@MBE?AV?$istreambuf_iterator@DU?$char_traits@D@std@@@2@V32@0_NAAVios_base@2@AAHAAV?$basic_string@DU?$char_traits@D@std@@V?$allocator@D@2@@2@@Z 00453e66 f i libcp:xlocale.obj
 0001:00052ef0       ?do_put@?$money_put@DV?$ostreambuf_iterator@DU?$char_traits@D@std@@@std@@@std@@MBE?AV?$ostreambuf_iterator@DU?$char_traits@D@std@@@2@V32@_NAAVios_base@2@DO@Z 00453ef0 f i libcp:xlocale.obj
 0001:0005301a       ?do_put@?$money_put@DV?$ostreambuf_iterator@DU?$char_traits@D@std@@@std@@@std@@MBE?AV?$ostreambuf_iterator@DU?$char_traits@D@std@@@2@V32@_NAAVios_base@2@DABV?$basic_string@DU?$char_traits@D@std@@V?$allocator@D@2@@2@@Z 0045401a f i libcp:xlocale.obj
 0001:00053132       ?do_decimal_point@?$_Mpunct@D@std@@MBEDXZ 00454132 f i libcp:xlocale.obj
 0001:00053136       ?do_thousands_sep@?$_Mpunct@D@std@@MBEDXZ 00454136 f i libcp:xlocale.obj
 0001:0005313a       ?do_grouping@?$_Mpunct@D@std@@MBE?AV?$basic_string@DU?$char_traits@D@std@@V?$allocator@D@2@@2@XZ 0045413a f i libcp:xlocale.obj
 0001:00053170       ?do_curr_symbol@?$_Mpunct@D@std@@MBE?AV?$basic_string@DU?$char_traits@D@std@@V?$allocator@D@2@@2@XZ 00454170 f i libcp:xlocale.obj
 0001:000531a6       ?do_positive_sign@?$_Mpunct@D@std@@MBE?AV?$basic_string@DU?$char_traits@D@std@@V?$allocator@D@2@@2@XZ 004541a6 f i libcp:xlocale.obj
 0001:000531dc       ?do_negative_sign@?$_Mpunct@D@std@@MBE?AV?$basic_string@DU?$char_traits@D@std@@V?$allocator@D@2@@2@XZ 004541dc f i libcp:xlocale.obj
 0001:00053212       ?do_frac_digits@?$_Mpunct@D@std@@MBEHXZ 00454212 f i libcp:xlocale.obj
 0001:00053216       ?do_pos_format@?$_Mpunct@D@std@@MBE?AUpattern@money_base@2@XZ 00454216 f i libcp:xlocale.obj
 0001:00053222       ?do_neg_format@?$_Mpunct@D@std@@MBE?AUpattern@money_base@2@XZ 00454222 f i libcp:xlocale.obj
 0001:0005322e       ?do_date_order@?$time_get@DV?$istreambuf_iterator@DU?$char_traits@D@std@@@std@@@std@@MBEHXZ 0045422e f i libcp:xlocale.obj
 0001:00053232       ?do_get_time@?$time_get@DV?$istreambuf_iterator@DU?$char_traits@D@std@@@std@@@std@@MBE?AV?$istreambuf_iterator@DU?$char_traits@D@std@@@2@V32@0AAVios_base@2@AAHPAUtm@@@Z 00454232 f i libcp:xlocale.obj
 0001:000532e3       ?do_get_date@?$time_get@DV?$istreambuf_iterator@DU?$char_traits@D@std@@@std@@@std@@MBE?AV?$istreambuf_iterator@DU?$char_traits@D@std@@@2@V32@0AAVios_base@2@AAHPAUtm@@@Z 004542e3 f i libcp:xlocale.obj
 0001:000533f8       ?do_get_weekday@?$time_get@DV?$istreambuf_iterator@DU?$char_traits@D@std@@@std@@@std@@MBE?AV?$istreambuf_iterator@DU?$char_traits@D@std@@@2@V32@0AAVios_base@2@AAHPAUtm@@@Z 004543f8 f i libcp:xlocale.obj
 0001:00053436       ?do_get_monthname@?$time_get@DV?$istreambuf_iterator@DU?$char_traits@D@std@@@std@@@std@@MBE?AV?$istreambuf_iterator@DU?$char_traits@D@std@@@2@V32@0AAVios_base@2@AAHPAUtm@@@Z 00454436 f i libcp:xlocale.obj
 0001:00053474       ?do_get_year@?$time_get@DV?$istreambuf_iterator@DU?$char_traits@D@std@@@std@@@std@@MBE?AV?$istreambuf_iterator@DU?$char_traits@D@std@@@2@V32@0AAVios_base@2@AAHPAUtm@@@Z 00454474 f i libcp:xlocale.obj
 0001:000534da       ?do_put@?$time_put@DV?$ostreambuf_iterator@DU?$char_traits@D@std@@@std@@@std@@MBE?AV?$ostreambuf_iterator@DU?$char_traits@D@std@@@2@V32@AAVios_base@2@PBUtm@@DD@Z 004544da f i libcp:xlocale.obj
 0001:000535b3       ??_G?$collate@D@std@@UAEPAXI@Z 004545b3 f i libcp:xlocale.obj
 0001:000535b3       ??_E?$collate@D@std@@UAEPAXI@Z 004545b3 f i libcp:xlocale.obj
 0001:000535cf       ??1?$collate@D@std@@UAE@XZ 004545cf f i libcp:xlocale.obj
 0001:000535d6       ??_G?$messages@D@std@@UAEPAXI@Z 004545d6 f i libcp:xlocale.obj
 0001:000535d6       ??_E?$messages@D@std@@UAEPAXI@Z 004545d6 f i libcp:xlocale.obj
 0001:000535f2       ??1?$messages@D@std@@UAE@XZ 004545f2 f i libcp:xlocale.obj
 0001:00053615       ??_G?$money_get@DV?$istreambuf_iterator@DU?$char_traits@D@std@@@std@@@std@@UAEPAXI@Z 00454615 f i libcp:xlocale.obj
 0001:00053615       ??_E?$money_get@DV?$istreambuf_iterator@DU?$char_traits@D@std@@@std@@@std@@UAEPAXI@Z 00454615 f i libcp:xlocale.obj
 0001:00053631       ??1?$money_get@DV?$istreambuf_iterator@DU?$char_traits@D@std@@@std@@@std@@UAE@XZ 00454631 f i libcp:xlocale.obj
 0001:00053638       ??_G?$money_put@DV?$ostreambuf_iterator@DU?$char_traits@D@std@@@std@@@std@@UAEPAXI@Z 00454638 f i libcp:xlocale.obj
 0001:00053638       ??_E?$money_put@DV?$ostreambuf_iterator@DU?$char_traits@D@std@@@std@@@std@@UAEPAXI@Z 00454638 f i libcp:xlocale.obj
 0001:00053654       ??1?$money_put@DV?$ostreambuf_iterator@DU?$char_traits@D@std@@@std@@@std@@UAE@XZ 00454654 f i libcp:xlocale.obj
 0001:0005365b       ??_G?$moneypunct@D$0A@@std@@UAEPAXI@Z 0045465b f i libcp:xlocale.obj
 0001:0005365b       ??_E?$moneypunct@D$0A@@std@@UAEPAXI@Z 0045465b f i libcp:xlocale.obj
 0001:00053677       ??_E?$moneypunct@D$00@std@@UAEPAXI@Z 00454677 f i libcp:xlocale.obj
 0001:00053677       ??_G?$moneypunct@D$00@std@@UAEPAXI@Z 00454677 f i libcp:xlocale.obj
 0001:00053693       ??_G?$time_get@DV?$istreambuf_iterator@DU?$char_traits@D@std@@@std@@@std@@UAEPAXI@Z 00454693 f i libcp:xlocale.obj
 0001:00053693       ??_E?$time_get@DV?$istreambuf_iterator@DU?$char_traits@D@std@@@std@@@std@@UAEPAXI@Z 00454693 f i libcp:xlocale.obj
 0001:000536af       ??1?$time_get@DV?$istreambuf_iterator@DU?$char_traits@D@std@@@std@@@std@@UAE@XZ 004546af f i libcp:xlocale.obj
 0001:000536d2       ??_G?$time_put@DV?$ostreambuf_iterator@DU?$char_traits@D@std@@@std@@@std@@UAEPAXI@Z 004546d2 f i libcp:xlocale.obj
 0001:000536d2       ??_E?$time_put@DV?$ostreambuf_iterator@DU?$char_traits@D@std@@@std@@@std@@UAEPAXI@Z 004546d2 f i libcp:xlocale.obj
 0001:000536ee       ??1?$time_put@DV?$ostreambuf_iterator@DU?$char_traits@D@std@@@std@@@std@@UAE@XZ 004546ee f i libcp:xlocale.obj
 0001:00053708       ??1?$moneypunct@D$0A@@std@@UAE@XZ 00454708 f i libcp:xlocale.obj
 0001:0005370d       ??1?$_Mpunct@D@std@@UAE@XZ 0045470d f i libcp:xlocale.obj
 0001:00053741       ??_G?$_Mpunct@D@std@@UAEPAXI@Z 00454741 f i libcp:xlocale.obj
 0001:00053741       ??_E?$_Mpunct@D@std@@UAEPAXI@Z 00454741 f i libcp:xlocale.obj
 0001:0005375d       ??1?$moneypunct@D$00@std@@UAE@XZ 0045475d f i libcp:xlocale.obj
 0001:00053762       ?resize@?$basic_string@DU?$char_traits@D@std@@V?$allocator@D@2@@std@@QAEXI@Z 00454762 f i libcp:xlocale.obj
 0001:00053788       ?_Init@?$messages@D@std@@IAEXABV_Locinfo@2@@Z 00454788 f i libcp:xlocale.obj
 0001:000537b0       ?_Getmfld@?$money_get@DV?$istreambuf_iterator@DU?$char_traits@D@std@@@std@@@std@@ABE?AV?$basic_string@DU?$char_traits@D@std@@V?$allocator@D@2@@2@AAV?$istreambuf_iterator@DU?$char_traits@D@std@@@2@0_NAAVios_base@2@@Z 004547b0 f i libcp:xlocale.obj
 0001:0005401d       ?_Putmfld@?$money_put@DV?$ostreambuf_iterator@DU?$char_traits@D@std@@@std@@@std@@ABE?AV?$ostreambuf_iterator@DU?$char_traits@D@std@@@2@V32@_NAAVios_base@2@D1V?$basic_string@DU?$char_traits@D@std@@V?$allocator@D@2@@2@@Z 0045501d f i libcp:xlocale.obj
 0001:000545c8       ??0?$_Mpunct@D@std@@QAE@ABV_Locinfo@1@I_N@Z 004555c8 f i libcp:xlocale.obj
 0001:00054608       ?_Init@?$time_get@DV?$istreambuf_iterator@DU?$char_traits@D@std@@@std@@@std@@IAEXABV_Locinfo@2@@Z 00455608 f i libcp:xlocale.obj
 0001:0005463b       ?_Getint@?$time_get@DV?$istreambuf_iterator@DU?$char_traits@D@std@@@std@@@std@@CAHAAV?$istreambuf_iterator@DU?$char_traits@D@std@@@2@0HHAAH@Z 0045563b f i libcp:xlocale.obj
 0001:00054770       ?_Init@?$time_put@DV?$ostreambuf_iterator@DU?$char_traits@D@std@@@std@@@std@@IAEXABV_Locinfo@2@@Z 00455770 f i libcp:xlocale.obj
 0001:00054798       ?insert@?$basic_string@DU?$char_traits@D@std@@V?$allocator@D@2@@std@@QAEAAV12@IID@Z 00455798 f i libcp:xlocale.obj
 0001:00054817       ?grouping@?$_Mpunct@D@std@@QBE?AV?$basic_string@DU?$char_traits@D@std@@V?$allocator@D@2@@2@XZ 00455817 f i libcp:xlocale.obj
 0001:0005482e       ?curr_symbol@?$_Mpunct@D@std@@QBE?AV?$basic_string@DU?$char_traits@D@std@@V?$allocator@D@2@@2@XZ 0045582e f i libcp:xlocale.obj
 0001:00054845       ?positive_sign@?$_Mpunct@D@std@@QBE?AV?$basic_string@DU?$char_traits@D@std@@V?$allocator@D@2@@2@XZ 00455845 f i libcp:xlocale.obj
 0001:0005485c       ?negative_sign@?$_Mpunct@D@std@@QBE?AV?$basic_string@DU?$char_traits@D@std@@V?$allocator@D@2@@2@XZ 0045585c f i libcp:xlocale.obj
 0001:00054873       ?_Init@?$_Mpunct@D@std@@IAEXABV_Locinfo@2@@Z 00455873 f i libcp:xlocale.obj
 0001:0005494d       ?_Makpat@?$_Mpunct@D@std@@AAEXAAUpattern@money_base@2@DDD@Z 0045594d f i libcp:xlocale.obj
 0001:000549ae       ?use_facet@std@@YAABV?$collate@D@1@ABVlocale@1@PBV21@_N@Z 004559ae f i libcp:xlocale.obj
 0001:00054a65       ?use_facet@std@@YAABV?$messages@D@1@ABVlocale@1@PBV21@_N@Z 00455a65 f i libcp:xlocale.obj
 0001:00054b1c       ?use_facet@std@@YAABV?$money_get@DV?$istreambuf_iterator@DU?$char_traits@D@std@@@std@@@1@ABVlocale@1@PBV21@_N@Z 00455b1c f i libcp:xlocale.obj
 0001:00054bed       ?use_facet@std@@YAABV?$money_put@DV?$ostreambuf_iterator@DU?$char_traits@D@std@@@std@@@1@ABVlocale@1@PBV21@_N@Z 00455bed f i libcp:xlocale.obj
 0001:00054cbe       ?use_facet@std@@YAABV?$moneypunct@D$0A@@1@ABVlocale@1@PBV21@_N@Z 00455cbe f i libcp:xlocale.obj
 0001:00054d81       ?use_facet@std@@YAABV?$moneypunct@D$00@1@ABVlocale@1@PBV21@_N@Z 00455d81 f i libcp:xlocale.obj
 0001:00054e44       ?use_facet@std@@YAABV?$time_get@DV?$istreambuf_iterator@DU?$char_traits@D@std@@@std@@@1@ABVlocale@1@PBV21@_N@Z 00455e44 f i libcp:xlocale.obj
 0001:00054efb       ?use_facet@std@@YAABV?$time_put@DV?$ostreambuf_iterator@DU?$char_traits@D@std@@@std@@@1@ABVlocale@1@PBV21@_N@Z 00455efb f i libcp:xlocale.obj
 0001:00054fb2       ??0?$collate@D@std@@QAE@I@Z 00455fb2 f i libcp:xlocale.obj
 0001:00055006       ??0?$messages@D@std@@QAE@I@Z 00456006 f i libcp:xlocale.obj
 0001:00055078       ??0?$time_get@DV?$istreambuf_iterator@DU?$char_traits@D@std@@@std@@@std@@QAE@I@Z 00456078 f i libcp:xlocale.obj
 0001:000550d1       ??0?$time_put@DV?$ostreambuf_iterator@DU?$char_traits@D@std@@@std@@@std@@QAE@I@Z 004560d1 f i libcp:xlocale.obj
 0001:0005513e       ?_Save@?$_Tidyfac@V?$collate@D@std@@@std@@SAPAV?$collate@D@2@PAV32@@Z 0045613e f i libcp:xlocale.obj
 0001:00055164       ?_Save@?$_Tidyfac@V?$messages@D@std@@@std@@SAPAV?$messages@D@2@PAV32@@Z 00456164 f i libcp:xlocale.obj
 0001:0005518a       ?_Save@?$_Tidyfac@V?$money_get@DV?$istreambuf_iterator@DU?$char_traits@D@std@@@std@@@std@@@std@@SAPAV?$money_get@DV?$istreambuf_iterator@DU?$char_traits@D@std@@@std@@@2@PAV32@@Z 0045618a f i libcp:xlocale.obj
 0001:000551b0       ?_Save@?$_Tidyfac@V?$money_put@DV?$ostreambuf_iterator@DU?$char_traits@D@std@@@std@@@std@@@std@@SAPAV?$money_put@DV?$ostreambuf_iterator@DU?$char_traits@D@std@@@std@@@2@PAV32@@Z 004561b0 f i libcp:xlocale.obj
 0001:000551d6       ?_Save@?$_Tidyfac@V?$moneypunct@D$0A@@std@@@std@@SAPAV?$moneypunct@D$0A@@2@PAV32@@Z 004561d6 f i libcp:xlocale.obj
 0001:000551fc       ?_Save@?$_Tidyfac@V?$moneypunct@D$00@std@@@std@@SAPAV?$moneypunct@D$00@2@PAV32@@Z 004561fc f i libcp:xlocale.obj
 0001:00055222       ?_Save@?$_Tidyfac@V?$time_get@DV?$istreambuf_iterator@DU?$char_traits@D@std@@@std@@@std@@@std@@SAPAV?$time_get@DV?$istreambuf_iterator@DU?$char_traits@D@std@@@std@@@2@PAV32@@Z 00456222 f i libcp:xlocale.obj
 0001:00055248       ?_Save@?$_Tidyfac@V?$time_put@DV?$ostreambuf_iterator@DU?$char_traits@D@std@@@std@@@std@@@std@@SAPAV?$time_put@DV?$ostreambuf_iterator@DU?$char_traits@D@std@@@std@@@2@PAV32@@Z 00456248 f i libcp:xlocale.obj
 0001:0005526e       ??0?$_Mpunct@D@std@@QAE@I_N@Z 0045626e f i libcp:xlocale.obj
 0001:000552cd       ?_Tidy@?$_Tidyfac@V?$collate@D@std@@@std@@SAXXZ 004562cd f i libcp:xlocale.obj
 0001:00055318       ?_Tidy@?$_Tidyfac@V?$messages@D@std@@@std@@SAXXZ 00456318 f i libcp:xlocale.obj
 0001:00055363       ?_Tidy@?$_Tidyfac@V?$money_get@DV?$istreambuf_iterator@DU?$char_traits@D@std@@@std@@@std@@@std@@SAXXZ 00456363 f i libcp:xlocale.obj
 0001:000553ae       ?_Tidy@?$_Tidyfac@V?$money_put@DV?$ostreambuf_iterator@DU?$char_traits@D@std@@@std@@@std@@@std@@SAXXZ 004563ae f i libcp:xlocale.obj
 0001:000553f9       ?_Tidy@?$_Tidyfac@V?$moneypunct@D$0A@@std@@@std@@SAXXZ 004563f9 f i libcp:xlocale.obj
 0001:00055444       ?_Tidy@?$_Tidyfac@V?$moneypunct@D$00@std@@@std@@SAXXZ 00456444 f i libcp:xlocale.obj
 0001:0005548f       ?_Tidy@?$_Tidyfac@V?$time_get@DV?$istreambuf_iterator@DU?$char_traits@D@std@@@std@@@std@@@std@@SAXXZ 0045648f f i libcp:xlocale.obj
 0001:000554da       ?_Tidy@?$_Tidyfac@V?$time_put@DV?$ostreambuf_iterator@DU?$char_traits@D@std@@@std@@@std@@@std@@SAXXZ 004564da f i libcp:xlocale.obj
 0001:00055546       __Stod                     00456546 f   libcp:xstod.obj
 0001:00055582       __Stof                     00456582 f   libcp:xstod.obj
 0001:00055597       __Stold                    00456597 f   libcp:xstod.obj
 0001:000555ac       __Strcoll                  004565ac f   libcp:xstrcoll.obj
 0001:0005562c       __Getcoll                  0045662c f   libcp:xstrcoll.obj
 0001:00055638       ??1type_info@@UAE@XZ       00456638 f   LIBC:typinfo.obj
 0001:0005564d       ??_Etype_info@@UAEPAXI@Z   0045664d f i LIBC:typinfo.obj
 0001:0005564d       ??_Gtype_info@@UAEPAXI@Z   0045664d f i LIBC:typinfo.obj
 0001:00055669       ??8type_info@@QBEHABV0@@Z  00456669 f   LIBC:typinfo.obj
 0001:00055684       ??9type_info@@QBEHABV0@@Z  00456684 f   LIBC:typinfo.obj
 0001:000556a0       ?before@type_info@@QBEHABV1@@Z 004566a0 f   LIBC:typinfo.obj
 0001:000556bf       ?raw_name@type_info@@QBEPBDXZ 004566bf f   LIBC:typinfo.obj
 0001:000556c3       ??0type_info@@AAE@ABV0@@Z  004566c3 f   LIBC:typinfo.obj
 0001:000556ce       ??4type_info@@AAEAAV0@ABV0@@Z 004566ce f   LIBC:typinfo.obj
 0001:000556d3       ??2@YAPAXI@Z               004566d3 f   LIBC:new.obj
 0001:000556e1       __fpmath                   004566e1 f   LIBC:fpinit.obj
 0001:000556f8       __fpclear                  004566f8 f   LIBC:fpinit.obj
 0001:000556f9       __cfltcvt_init             004566f9 f   LIBC:fpinit.obj
 0001:00055731       ___setfflag                00456731 f   LIBC:fpinit.obj
 0001:00055741       ?_JumpToContinuation@@YGXPAXPAUEHRegistrationNode@@@Z 00456741 f   LIBC:trnsctrl.obj
 0001:00055775       ?_CallMemberFunction0@@YGXPAX0@Z 00456775 f   LIBC:trnsctrl.obj
 0001:0005577c       ?_CallMemberFunction1@@YGXPAX00@Z 0045677c f   LIBC:trnsctrl.obj
 0001:00055783       ?_CallMemberFunction2@@YGXPAX00H@Z 00456783 f   LIBC:trnsctrl.obj
 0001:0005578a       ?_UnwindNestedFrames@@YGXPAUEHRegistrationNode@@PAUEHExceptionRecord@@@Z 0045678a f   LIBC:trnsctrl.obj
 0001:000557d9       ___CxxFrameHandler         004567d9 f   LIBC:trnsctrl.obj
 0001:0005580f       ___CxxLongjmpUnwind@4      0045680f f   LIBC:trnsctrl.obj
 0001:00055829       ?_CallCatchBlock2@@YAPAXPAUEHRegistrationNode@@PBU_s_FuncInfo@@PAXHK@Z 00456829 f   LIBC:trnsctrl.obj
 0001:000558a2       ?_CallSETranslator@@YAHPAUEHExceptionRecord@@PAUEHRegistrationNode@@PAX2PBU_s_FuncInfo@@H1@Z 004568a2 f   LIBC:trnsctrl.obj
 0001:000559cb       ?_GetRangeOfTrysToCheck@@YAPBU_s_TryBlockMapEntry@@PBU_s_FuncInfo@@HHPAI1@Z 004569cb f   LIBC:trnsctrl.obj
 0001:00055a48       __global_unwind2           00456a48 f   LIBC:exsup.obj
 0001:00055a8a       __local_unwind2            00456a8a f   LIBC:exsup.obj
 0001:00055ae2       __NLG_Return2              00456ae2 f   LIBC:exsup.obj
 0001:00055af2       __abnormal_termination     00456af2 f   LIBC:exsup.obj
 0001:00055b15       __NLG_Notify1              00456b15 f   LIBC:exsup.obj
 0001:00055b1e       __NLG_Notify               00456b1e f   LIBC:exsup.obj
 0001:00055b31       __NLG_Dispatch             00456b31 f   LIBC:exsup.obj
 0001:00055b36       ??_M@YGXPAXIHP6EX0@Z@Z     00456b36 f   LIBC:ehvecdtr.obj
 0001:00055bb6       ?__ArrayUnwind@@YGXPAXIHP6EX0@Z@Z 00456bb6 f   LIBC:ehvecdtr.obj
 0001:00055c2a       ??_L@YGXPAXIHP6EX0@Z1@Z    00456c2a f   LIBC:ehvecctr.obj
 0001:00055cb0       _memmove                   00456cb0 f   LIBC:memmove.obj
 0001:00055ff0       _memchr                    00456ff0 f   LIBC:memchr.obj
 0001:00056095       __onexit                   00457095 f   LIBC:onexit.obj
 0001:00056102       _atexit                    00457102 f   LIBC:onexit.obj
 0001:00056114       ___onexitinit              00457114 f   LIBC:onexit.obj
 0001:00056143       _free                      00457143 f   LIBC:free.obj
 0001:000561ac       _fclose                    004571ac f   LIBC:fclose.obj
 0001:00056202       __fsopen                   00457202 f   LIBC:fopen.obj
 0001:00056222       _fopen                     00457222 f   LIBC:fopen.obj
 0001:00056235       _fwrite                    00457235 f   LIBC:fwrite.obj
 0001:0005633f       _fputc                     0045733f f   LIBC:fputc.obj
 0001:00056363       _putc                      00457363 f   LIBC:fputc.obj
 0001:00056373       _fgetc                     00457373 f   LIBC:fgetc.obj
 0001:0005638d       _getc                      0045738d f   LIBC:fgetc.obj
 0001:00056398       _ungetc                    00457398 f   LIBC:ungetc.obj
 0001:00056406       _fgetpos                   00457406 f   LIBC:fgetpos.obj
 0001:00056428       _fseek                     00457428 f   LIBC:fseek.obj
 0001:000564b4       _fsetpos                   004574b4 f   LIBC:fsetpos.obj
 0001:000564cc       _setvbuf                   004574cc f   LIBC:setvbuf.obj
 0001:0005656d       _fflush                    0045756d f   LIBC:fflush.obj
 0001:000565a8       __flush                    004575a8 f   LIBC:fflush.obj
 0001:00056604       __flushall                 00457604 f   LIBC:fflush.obj
 0001:0005667a       ??0exception@@QAE@XZ       0045767a f   LIBC:stdexcpt.obj
 0001:0005668b       ??_Gexception@@UAEPAXI@Z   0045768b f i LIBC:stdexcpt.obj
 0001:0005668b       ??_Eexception@@UAEPAXI@Z   0045768b f i LIBC:stdexcpt.obj
 0001:000566a7       ??0exception@@QAE@ABQBD@Z  004576a7 f   LIBC:stdexcpt.obj
 0001:000566e4       ??0exception@@QAE@ABV0@@Z  004576e4 f   LIBC:stdexcpt.obj
 0001:0005672e       ??4exception@@QAEAAV0@ABV0@@Z 0045772e f   LIBC:stdexcpt.obj
 0001:0005674d       ??1exception@@UAE@XZ       0045774d f   LIBC:stdexcpt.obj
 0001:00056763       ?what@exception@@UBEPBDXZ  00457763 f   LIBC:stdexcpt.obj
 0001:00056770       __CxxThrowException@8      00457770 f   LIBC:throw.obj
 0001:000567aa       _clock                     004577aa f   LIBC:clock.obj
 0001:000567ed       ___inittime                004577ed f   LIBC:clock.obj
 0001:00056822       _time                      00457822 f   LIBC:time.obj
 0001:000568fe       __statusfp                 004578fe f   LIBC:ieee87.obj
 0001:00056911       __clearfp                  00457911 f   LIBC:ieee87.obj
 0001:00056925       __control87                00457925 f   LIBC:ieee87.obj
 0001:0005695a       __controlfp                0045795a f   LIBC:ieee87.obj
 0001:00056970       __fpreset                  00457970 f   LIBC:ieee87.obj
 0001:00056aea       _difftime                  00457aea f   LIBC:difftime.obj
 0001:00056afb       _sprintf                   00457afb f   LIBC:sprintf.obj
 0001:00056b50       __chkstk                   00457b50 f   LIBC:chkstk.obj
 0001:00056b50       __alloca_probe             00457b50 f   LIBC:chkstk.obj
 0001:00056b7f       _vsprintf                  00457b7f f   LIBC:vsprintf.obj
 0001:00056bd0       _floor                     00457bd0 f   LIBC:floor.obj
 0001:00056ca0       __ftol                     00457ca0 f   LIBC:ftol.obj
 0001:00056cc7       _srand                     00457cc7 f   LIBC:rand.obj
 0001:00056cd1       _rand                      00457cd1 f   LIBC:rand.obj
 0001:00056cef       _atol                      00457cef f   LIBC:atox.obj
 0001:00056d7a       _atoi                      00457d7a f   LIBC:atox.obj
 0001:00056d85       __atoi64                   00457d85 f   LIBC:atox.obj
 0001:00056e3f       __findfirst                00457e3f f   LIBC:findfile.obj
 0001:00056f09       __findnext                 00457f09 f   LIBC:findfile.obj
 0001:00056fce       __findclose                00457fce f   LIBC:findfile.obj
 0001:00056fed       ___timet_from_ft           00457fed f   LIBC:findfile.obj
 0001:00057060       _strncpy                   00458060 f   LIBC:strncpy.obj
 0001:00057160       _strstr                    00458160 f   LIBC:strstr.obj
 0001:000571e0       _strncmp                   004581e0 f   LIBC:strncmp.obj
 0001:00057230       _strchr                    00458230 f   LIBC:strchr.obj
 0001:00057236       ___from_strstr_to_strchr   00458236 f   LIBC:strchr.obj
 0001:000572ec       _qsort                     004582ec f   LIBC:qsort.obj
 0001:000574ba       _atof                      004584ba f   LIBC:atof.obj
 0001:00057510       __CIpow                    00458510 f   LIBC:pow.obj
 0001:00057529       _pow                       00458529 f   LIBC:pow.obj
 0001:0005772d       _WinMainCRTStartup         0045872d f   LIBC:wincrt0.obj
 0001:00057823       __amsg_exit                00458823 f   LIBC:wincrt0.obj
 0001:0005786c       _malloc                    0045886c f   LIBC:malloc.obj
 0001:0005787e       __nh_malloc                0045887e f   LIBC:malloc.obj
 0001:000578aa       __heap_alloc               004588aa f   LIBC:malloc.obj
 0001:0005791e       _sscanf                    0045891e f   LIBC:sscanf.obj
 0001:00057952       _fread                     00458952 f   LIBC:fread.obj
 0001:00057a3a       __cinit                    00458a3a f   LIBC:crt0dat.obj
 0001:00057a67       _exit                      00458a67 f   LIBC:crt0dat.obj
 0001:00057a78       __exit                     00458a78 f   LIBC:crt0dat.obj
 0001:00057a89       __cexit                    00458a89 f   LIBC:crt0dat.obj
 0001:00057a98       __c_exit                   00458a98 f   LIBC:crt0dat.obj
 0001:00057b5a       _fprintf                   00458b5a f   LIBC:fprintf.obj
 0001:00057b8c       ___initstdio               00458b8c f   LIBC:_file.obj
 0001:00057c31       ___endstdio                00458c31 f   LIBC:_file.obj
 0001:00057c45       _getenv                    00458c45 f   LIBC:getenv.obj
 0001:00057cc2       _tmpnam                    00458cc2 f   LIBC:tmpfile.obj
 0001:00057d11       _tmpfile                   00458d11 f   LIBC:tmpfile.obj
 0001:00057e6f       ___inc_tmpoff              00458e6f f   LIBC:tmpfile.obj
 0001:00057e80       _strlen                    00458e80 f   LIBC:strlen.obj
 0001:00057efc       __EH_prolog                00458efc f   LIBC:ehprolog.obj
 0001:00057f20       _memcpy                    00458f20 f   LIBC:memcpy.obj
 0001:00058260       _memset                    00459260 f   LIBC:memset.obj
 0001:000582b8       _fputwc                    004592b8 f   LIBC:fputwc.obj
 0001:000583ad       _putwc                     004593ad f   LIBC:fputwc.obj
 0001:000583bd       _ungetwc                   004593bd f   LIBC:ungetwc.obj
 0001:000584a6       _fgetwc                    004594a6 f   LIBC:fgetwc.obj
 0001:00058593       _getwc                     00459593 f   LIBC:fgetwc.obj
 0001:000585a0       _memcmp                    004595a0 f   LIBC:memcmp.obj
 0001:0005864c       _setlocale                 0045964c f   LIBC:setlocal.obj
 0001:00058a26       __expandlocale             00459a26 f   LIBC:setlocal.obj
 0001:00058b3e       ___init_dummy              00459b3e f   LIBC:setlocal.obj
 0001:00058b41       __strcats                  00459b41 f   LIBC:setlocal.obj
 0001:00058b66       ___lc_strtolc              00459b66 f   LIBC:setlocal.obj
 0001:00058c32       ___lc_lctostr              00459c32 f   LIBC:setlocal.obj
 0001:00058c85       _realloc                   00459c85 f   LIBC:realloc.obj
 0001:00058f25       _strtol                    00459f25 f   LIBC:strtol.obj
 0001:00059144       _strtoul                   0045a144 f   LIBC:strtol.obj
 0001:0005915b       _localeconv                0045a15b f   LIBC:lconv.obj
 0001:00059170       _strcspn                   0045a170 f   LIBC:strcspn.obj
 0001:000591ae       ___crtLCMapStringA         0045a1ae f   LIBC:a_map.obj
 0001:000593fd       __isctype                  0045a3fd f   LIBC:isctype.obj
 0001:00059472       __Getdays                  0045a472 f   LIBC:strftime.obj
 0001:00059501       __Getmonths                0045a501 f   LIBC:strftime.obj
 0001:00059596       __Gettnames                0045a596 f   LIBC:strftime.obj
 0001:000597c8       _strftime                  0045a7c8 f   LIBC:strftime.obj
 0001:000597e3       __Strftime                 0045a7e3 f   LIBC:strftime.obj
 0001:0005a030       _wcslen                    0045b030 f   LIBC:wcslen.obj
 0001:0005a04d       _strtod                    0045b04d f   LIBC:strtod.obj
 0001:0005a0e7       ___crtCompareStringA       0045b0e7 f   LIBC:a_cmp.obj
 0001:0005a390       _strcmp                    0045b390 f   LIBC:strcmp.obj
 0001:0005a414       __setdefaultprecision      0045b414 f   LIBC:fp8.obj
 0001:0005a426       __ms_p5_test_fdiv          0045b426 f   LIBC:testfdiv.obj
 0001:0005a464       __ms_p5_mp_test_fdiv       0045b464 f   LIBC:testfdiv.obj
 0001:0005a48d       __forcdecpt                0045b48d f   LIBC:cvt.obj
 0001:0005a4e7       __cropzeros                0045b4e7 f   LIBC:cvt.obj
 0001:0005a535       __positive                 0045b535 f   LIBC:cvt.obj
 0001:0005a54d       __fassign                  0045b54d f   LIBC:cvt.obj
 0001:0005a58b       __cftoe                    0045b58b f   LIBC:cvt.obj
 0001:0005a68f       __cftof                    0045b68f f   LIBC:cvt.obj
 0001:0005a76d       __cftog                    0045b76d f   LIBC:cvt.obj
 0001:0005a852       __cfltcvt                  0045b852 f   LIBC:cvt.obj
 0001:0005a8c8       ___InternalCxxFrameHandler 0045b8c8 f   LIBC:frame.obj
 0001:0005ac0f       ___FrameUnwindToState      0045bc0f f   LIBC:frame.obj
 0001:0005b038       ?_DestructExceptionObject@@YAXPAUEHExceptionRecord@@E@Z 0045c038 f   LIBC:frame.obj
 0001:0005b0d0       __CallSettingFrame@12      0045c0d0 f   LIBC:lowhelpr.obj
 0001:0005b0f7       __NLG_Return               0045c0f7 f   LIBC:lowhelpr.obj
 0001:0005b11c       ?terminate@@YAXXZ          0045c11c f   LIBC:hooks.obj
 0001:0005b172       ?unexpected@@YAXXZ         0045c172 f   LIBC:hooks.obj
 0001:0005b182       ?_inconsistency@@YAXXZ     0045c182 f   LIBC:hooks.obj
 0001:0005b1e0       __except_handler3          0045c1e0 f   LIBC:exsup3.obj
 0001:0005b29d       __seh_longjmp_unwind@4     0045c29d f   LIBC:exsup3.obj
 0001:0005b2b8       __msize                    0045c2b8 f   LIBC:msize.obj
 0001:0005b319       __GetLinkerVersion         0045c319 f   LIBC:heapinit.obj
 0001:0005b346       ___heap_select             0045c346 f   LIBC:heapinit.obj
 0001:0005b48e       __heap_init                0045c48e f   LIBC:heapinit.obj
 0001:0005b4eb       __heap_term                0045c4eb f   LIBC:heapinit.obj
 0001:0005b593       __get_sbh_threshold        0045c593 f   LIBC:sbheap.obj
 0001:0005b5b2       __set_sbh_threshold        0045c5b2 f   LIBC:sbheap.obj
 0001:0005b665       ___sbh_heap_init           0045c665 f   LIBC:sbheap.obj
 0001:0005b6ad       ___sbh_find_block          0045c6ad f   LIBC:sbheap.obj
 0001:0005b6d8       ___sbh_free_block          0045c6d8 f   LIBC:sbheap.obj
 0001:0005ba01       ___sbh_alloc_block         0045ca01 f   LIBC:sbheap.obj
 0001:0005bd0a       ___sbh_alloc_new_region    0045cd0a f   LIBC:sbheap.obj
 0001:0005bdbb       ___sbh_alloc_new_group     0045cdbb f   LIBC:sbheap.obj
 0001:0005beb6       ___sbh_resize_block        0045ceb6 f   LIBC:sbheap.obj
 0001:0005c1ac       ___sbh_heapmin             0045d1ac f   LIBC:sbheap.obj
 0001:0005c27d       ___sbh_heap_check          0045d27d f   LIBC:sbheap.obj
 0001:0005c5ac       __get_old_sbh_threshold    0045d5ac f   LIBC:sbheap.obj
 0001:0005c5b2       __set_old_sbh_threshold    0045d5b2 f   LIBC:sbheap.obj
 0001:0005c5ce       ___old_sbh_new_region      0045d5ce f   LIBC:sbheap.obj
 0001:0005c712       ___old_sbh_release_region  0045d712 f   LIBC:sbheap.obj
 0001:0005c768       ___old_sbh_decommit_pages  0045d768 f   LIBC:sbheap.obj
 0001:0005c82a       ___old_sbh_find_block      0045d82a f   LIBC:sbheap.obj
 0001:0005c881       ___old_sbh_free_block      0045d881 f   LIBC:sbheap.obj
 0001:0005c8c6       ___old_sbh_alloc_block     0045d8c6 f   LIBC:sbheap.obj
 0001:0005cace       ___old_sbh_alloc_block_from_page 0045dace f   LIBC:sbheap.obj
 0001:0005cbf2       ___old_sbh_resize_block    0045dbf2 f   LIBC:sbheap.obj
 0001:0005cc9b       ___old_sbh_heap_check      0045dc9b f   LIBC:sbheap.obj
 0001:0005cdf9       __close                    0045ddf9 f   LIBC:close.obj
 0001:0005ceac       __freebuf                  0045deac f   LIBC:_freebuf.obj
 0001:0005ced7       __openfile                 0045ded7 f   LIBC:_open.obj
 0001:0005d047       __getstream                0045e047 f   LIBC:stream.obj
 0001:0005d0bf       __flsbuf                   0045e0bf f   LIBC:_flsbuf.obj
 0001:0005d1d4       __write                    0045e1d4 f   LIBC:write.obj
 0001:0005d381       __filbuf                   0045e381 f   LIBC:_filbuf.obj
 0001:0005d45a       __getbuf                   0045e45a f   LIBC:_getbuf.obj
 0001:0005d49e       __ftelli64                 0045e49e f   LIBC:ftelli64.obj
 0001:0005d625       __lseek                    0045e625 f   LIBC:lseek.obj
 0001:0005d6bf       _ftell                     0045e6bf f   LIBC:ftell.obj
 0001:0005d817       __fseeki64                 0045e817 f   LIBC:fseeki64.obj
 0001:0005d8a7       __commit                   0045e8a7 f   LIBC:commit.obj
 0001:0005d900       _strcpy                    0045e900 f   LIBC:strcat.obj
 0001:0005d910       _strcat                    0045e910 f   LIBC:strcat.obj
 0001:0005d9f0       ?__CxxUnhandledExceptionFilter@@YGJPAU_EXCEPTION_POINTERS@@@Z 0045e9f0 f   LIBC:unhandld.obj
 0001:0005da36       ?__CxxSetUnhandledExceptionFilter@@YAXXZ 0045ea36 f   LIBC:unhandld.obj
 0001:0005da47       ?__CxxRestoreUnhandledExceptionFilter@@YAXXZ 0045ea47 f   LIBC:unhandld.obj
 0001:0005da60       __aulldiv                  0045ea60 f   LIBC:ulldiv.obj
 0001:0005dad0       __allmul                   0045ead0 f   LIBC:llmul.obj
 0001:0005db04       ___loctotime_t             0045eb04 f   LIBC:dtoxtime.obj
 0001:0005dbc6       __XcptFilter               0045ebc6 f   LIBC:winxfltr.obj
 0001:0005dd4a       __output                   0045ed4a f   LIBC:output.obj
 0001:0005e554       __handle_qnan1             0045f554 f   LIBC:fpexcept.obj
 0001:0005e5a7       __handle_qnan2             0045f5a7 f   LIBC:fpexcept.obj
 0001:0005e606       __except1                  0045f606 f   LIBC:fpexcept.obj
 0001:0005e69e       __except2                  0045f69e f   LIBC:fpexcept.obj
 0001:0005e743       __raise_exc                0045f743 f   LIBC:fpexcept.obj
 0001:0005e9f6       __handle_exc               0045f9f6 f   LIBC:fpexcept.obj
 0001:0005ec0d       __umatherr                 0045fc0d f   LIBC:fpexcept.obj
 0001:0005ec95       __set_errno                0045fc95 f   LIBC:fpexcept.obj
 0001:0005ece0       __errcode                  0045fce0 f   LIBC:fpexcept.obj
 0001:0005ed0d       __frnd                     0045fd0d f   LIBC:frnd.obj
 0001:0005ed1f       __set_exp                  0045fd1f f   LIBC:util.obj
 0001:0005ed48       __get_exp                  0045fd48 f   LIBC:util.obj
 0001:0005ed5c       __add_exp                  0045fd5c f   LIBC:util.obj
 0001:0005ed88       __set_bexp                 0045fd88 f   LIBC:util.obj
 0001:0005edac       __sptype                   0045fdac f   LIBC:util.obj
 0001:0005ee06       __decomp                   0045fe06 f   LIBC:util.obj
 0001:0005eec7       __statfp                   0045fec7 f   LIBC:fpctrl.obj
 0001:0005eed5       __clrfp                    0045fed5 f   LIBC:fpctrl.obj
 0001:0005eee4       __ctrlfp                   0045fee4 f   LIBC:fpctrl.obj
 0001:0005ef07       __set_statfp               0045ff07 f   LIBC:fpctrl.obj
 0001:0005ef5d       __fltin                    0045ff5d f   LIBC:cfin.obj
 0001:0005f001       __fFEXP                    00460001 f   LIBC:87tran.obj
 0001:0005f068       __rtinfpopse               00460068 f   LIBC:87tran.obj
 0001:0005f06a       __rtinfnpopse              0046006a f   LIBC:87tran.obj
 0001:0005f07a       __fFLN                     0046007a f   LIBC:87tran.obj
 0001:0005f12f       __rtinfpop                 0046012f f   LIBC:87tran.obj
 0001:0005f131       __rtinfnpop                00460131 f   LIBC:87tran.obj
 0001:0005f14e       __ffexpm1                  0046014e f   LIBC:87tran.obj
 0001:0005f200       __trandisp1                00460200 f   LIBC:87disp.obj
 0001:0005f267       __trandisp2                00460267 f   LIBC:87disp.obj
 0001:0005f2f3       __rttospopde               004602f3 f   LIBC:87disp.obj
 0001:0005f2f8       __rttospop                 004602f8 f   LIBC:87disp.obj
 0001:0005f2fa       __rtnospop                 004602fa f   LIBC:87disp.obj
 0001:0005f2fc       __rttosnpop                004602fc f   LIBC:87disp.obj
 0001:0005f2fd       __rtnospopde               004602fd f   LIBC:87disp.obj
 0001:0005f304       __rtzeropop                00460304 f   LIBC:87disp.obj
 0001:0005f306       __rtzeronpop               00460306 f   LIBC:87disp.obj
 0001:0005f30b       __rtonepop                 0046030b f   LIBC:87disp.obj
 0001:0005f30d       __rtonenpop                0046030d f   LIBC:87disp.obj
 0001:0005f312       __tosnan1                  00460312 f   LIBC:87disp.obj
 0001:0005f33d       __nosnan2                  0046033d f   LIBC:87disp.obj
 0001:0005f33f       __tosnan2                  0046033f f   LIBC:87disp.obj
 0001:0005f367       __nan2                     00460367 f   LIBC:87disp.obj
 0001:0005f3a6       __rtindfpop                004603a6 f   LIBC:87disp.obj
 0001:0005f3a8       __rtindfnpop               004603a8 f   LIBC:87disp.obj
 0001:0005f3b9       __rttosnpopde              004603b9 f   LIBC:87disp.obj
 0001:0005f3c3       __rtchsifneg               004603c3 f   LIBC:87disp.obj
 0001:0005f3d0       __startTwoArgErrorHandling 004603d0 f   LIBC:genexcep.obj
 0001:0005f3e7       __startOneArgErrorHandling 004603e7 f   LIBC:genexcep.obj
 0001:0005f430       __twoToTOS                 00460430 f   LIBC:common.obj
 0001:0005f445       __load_CW                  00460445 f   LIBC:common.obj
 0001:0005f45c       __convertTOStoQNaN         0046045c f   LIBC:common.obj
 0001:0005f475       __fload_withFB             00460475 f   LIBC:common.obj
 0001:0005f4b8       __checkTOS_withFB          004604b8 f   LIBC:common.obj
 0001:0005f4ce       __fast_exit                004604ce f   LIBC:common.obj
 0001:0005f4db       __math_exit                004604db f   LIBC:common.obj
 0001:0005f505       __check_overflow_exit      00460505 f   LIBC:common.obj
 0001:0005f519       __check_range_exit         00460519 f   LIBC:common.obj
 0001:0005f5bc       __powhlp                   004605bc f   LIBC:powhlp.obj
 0001:0005f6ec       __d_inttype                004606ec f   LIBC:powhlp.obj
 0001:0005f751       __wincmdln                 00460751 f   LIBC:wincmdln.obj
 0001:0005f7a9       __setenvp                  004607a9 f   LIBC:stdenvp.obj
 0001:0005f862       __setargv                  00460862 f   LIBC:stdargv.obj
 0001:0005faaf       ___crtGetEnvironmentStringsA 00460aaf f   LIBC:a_env.obj
 0001:0005fbe1       __ioinit                   00460be1 f   LIBC:ioinit.obj
 0001:0005fd8c       __ioterm                   00460d8c f   LIBC:ioinit.obj
 0001:0005fdaf       __FF_MSGBANNER             00460daf f   LIBC:crt0msg.obj
 0001:0005fde8       __NMSG_WRITE               00460de8 f   LIBC:crt0msg.obj
 0001:0005ff3b       __GET_RTERRMSG             00460f3b f   LIBC:crt0msg.obj
 0001:0005ff6c       ?_set_new_handler@@YAP6AHI@ZP6AHI@Z@Z 00460f6c f   LIBC:handler.obj
 0001:0005ff7c       ?_query_new_handler@@YAP6AHI@ZXZ 00460f7c f   LIBC:handler.obj
 0001:0005ff82       __callnewh                 00460f82 f   LIBC:handler.obj
 0001:0005ff9d       __input                    00460f9d f   LIBC:input.obj
 0001:00060a4e       __read                     00461a4e f   LIBC:read.obj
 0001:00060c44       __stbuf                    00461c44 f   LIBC:_sftbuf.obj
 0001:00060cd1       __ftbuf                    00461cd1 f   LIBC:_sftbuf.obj
 0001:00060d0e       _calloc                    00461d0e f   LIBC:calloc.obj
 0001:00060dbf       __fcloseall                00461dbf f   LIBC:closeall.obj
 0001:00060e17       __mbsnbicoll               00461e17 f   LIBC:mbsnbico.obj
 0001:00060e56       ___wtomb_environ           00461e56 f   LIBC:wtombenv.obj
 0001:00060ec4       __access                   00461ec4 f   LIBC:access.obj
 0001:00060f08       __strdup                   00461f08 f   LIBC:strdup.obj
 0001:00060f08       _strdup                    00461f08 f   LIBC:strdup.obj
 0001:00060f33       __open                     00461f33 f   LIBC:open.obj
 0001:00060f4a       __sopen                    00461f4a f   LIBC:open.obj
 0001:00061203       __itoa                     00462203 f   LIBC:xtoa.obj
 0001:00061203       _itoa                      00462203 f   LIBC:xtoa.obj
 0001:0006128c       __ltoa                     0046228c f   LIBC:xtoa.obj
 0001:000612b6       __ultoa                    004622b6 f   LIBC:xtoa.obj
 0001:000612d1       __i64toa                   004622d1 f   LIBC:xtoa.obj
 0001:00061388       __ui64toa                  00462388 f   LIBC:xtoa.obj
 0001:000613a3       __getpid                   004623a3 f   LIBC:getpid.obj
 0001:000613a9       __mbsrchr                  004623a9 f   LIBC:mbsrchr.obj
 0001:00061409       __rmtmp                    00462409 f   LIBC:rmtmp.obj
 0001:00061445       __flswbuf                  00462445 f   LIBC:_flswbuf.obj
 0001:00061569       _wctomb                    00462569 f   LIBC:wctomb.obj
 0001:000615d1       __filwbuf                  004625d1 f   LIBC:_filwbuf.obj
 0001:000616b5       _mbtowc                    004626b5 f   LIBC:mbtowc.obj
 0001:0006177d       ___init_time               0046277d f   LIBC:inittime.obj
 0001:00061cec       ___init_numeric            00462cec f   LIBC:initnum.obj
 0001:00061ef8       ___init_monetary           00462ef8 f   LIBC:initmon.obj
 0001:0006216a       ___init_ctype              0046316a f   LIBC:initctyp.obj
 0001:000623af       ___init_collate            004633af f   LIBC:initcoll.obj
 0001:000623c0       _strpbrk                   004633c0 f   LIBC:strpbrk.obj
 0001:000623fa       ___get_qualified_locale    004633fa f   LIBC:getqloc.obj
 0001:00062ca1       __toupper                  00463ca1 f   LIBC:toupper.obj
 0001:00062ca9       _toupper                   00463ca9 f   LIBC:toupper.obj
 0001:00062d75       ___crtGetStringTypeA       00463d75 f   LIBC:a_str.obj
 0001:00062ebe       ___tzset                   00463ebe f   LIBC:tzset.obj
 0001:00062ed3       __tzset                    00463ed3 f   LIBC:tzset.obj
 0001:00063131       __isindst                  00464131 f   LIBC:tzset.obj
 0001:00063420       __strcmpi                  00464420 f   LIBC:stricmp.obj
 0001:00063420       __stricmp                  00464420 f   LIBC:stricmp.obj
 0001:000634ac       __tolower                  004644ac f   LIBC:tolower.obj
 0001:000634b4       _tolower                   004644b4 f   LIBC:tolower.obj
 0001:0006357f       __ZeroTail                 0046457f f   LIBC:intrncvt.obj
 0001:000635c8       __IncMan                   004645c8 f   LIBC:intrncvt.obj
 0001:0006361e       __RoundMan                 0046461e f   LIBC:intrncvt.obj
 0001:000636aa       __CopyMan                  004646aa f   LIBC:intrncvt.obj
 0001:000636c5       __FillZeroMan              004646c5 f   LIBC:intrncvt.obj
 0001:000636d1       __IsZeroMan                004646d1 f   LIBC:intrncvt.obj
 0001:000636ec       __ShrMan                   004646ec f   LIBC:intrncvt.obj
 0001:00063779       __ld12cvt                  00464779 f   LIBC:intrncvt.obj
 0001:000638e5       __ld12tod                  004648e5 f   LIBC:intrncvt.obj
 0001:000638fb       __ld12tof                  004648fb f   LIBC:intrncvt.obj
 0001:00063911       __ld12told                 00464911 f   LIBC:intrncvt.obj
 0001:0006398b       __atodbl                   0046498b f   LIBC:intrncvt.obj
 0001:000639b8       __atoldbl                  004649b8 f   LIBC:intrncvt.obj
 0001:000639e6       __atoflt                   004649e6 f   LIBC:intrncvt.obj
 0001:00063a13       __fptostr                  00464a13 f   LIBC:_fptostr.obj
 0001:00063a8a       __fltout                   00464a8a f   LIBC:cfout.obj
 0001:00063aee       ___dtold                   00464aee f   LIBC:cfout.obj
 0001:00063ba4       __fptrap                   00464ba4 f   LIBC:crt0fp.obj
 0001:00063bad       ?_ValidateRead@@YAHPBXI@Z  00464bad f   LIBC:validate.obj
 0001:00063bc9       ?_ValidateWrite@@YAHPAXI@Z 00464bc9 f   LIBC:validate.obj
 0001:00063be5       ?_ValidateExecute@@YAHP6GHXZ@Z 00464be5 f   LIBC:validate.obj
 0001:00063bfd       _abort                     00464bfd f   LIBC:abort.obj
 0001:00063c14       __dosmaperr                00464c14 f   LIBC:dosmap.obj
 0001:00063c7b       __alloc_osfhnd             00464c7b f   LIBC:osfinfo.obj
 0001:00063d10       __set_osfhnd               00464d10 f   LIBC:osfinfo.obj
 0001:00063d87       __free_osfhnd              00464d87 f   LIBC:osfinfo.obj
 0001:00063e01       __get_osfhandle            00464e01 f   LIBC:osfinfo.obj
 0001:00063e3e       __open_osfhandle           00464e3e f   LIBC:osfinfo.obj
 0001:00063edb       __isatty                   00464edb f   LIBC:isatty.obj
 0001:00063f01       __lseeki64                 00464f01 f   LIBC:lseeki64.obj
 0001:00063fc0       __aullrem                  00464fc0 f   LIBC:ullrem.obj
 0001:00064035       __matherr                  00465035 f   LIBC:matherr.obj
 0001:00064038       ___strgtold12              00465038 f   LIBC:strgtold.obj
 0001:00064509       ___STRINGTOLD              00465509 f   LIBC:strgtold.obj
 0001:00064550       _fdiv_main_routine         00465550 f   LIBC:adj_fdiv.obj
 0001:00064667       __adj_fdiv_r               00465667 f   LIBC:adj_fdiv.obj
 0001:00064b06       __fdivp_sti_st             00465b06 f   LIBC:adj_fdiv.obj
 0001:00064b19       __fdivrp_sti_st            00465b19 f   LIBC:adj_fdiv.obj
 0001:00064b2c       __adj_fdiv_m32             00465b2c f   LIBC:adj_fdiv.obj
 0001:00064b78       __adj_fdiv_m64             00465b78 f   LIBC:adj_fdiv.obj
 0001:00064bc4       __adj_fdiv_m16i            00465bc4 f   LIBC:adj_fdiv.obj
 0001:00064bf8       __adj_fdiv_m32i            00465bf8 f   LIBC:adj_fdiv.obj
 0001:00064c2c       __adj_fdivr_m32            00465c2c f   LIBC:adj_fdiv.obj
 0001:00064c78       __adj_fdivr_m64            00465c78 f   LIBC:adj_fdiv.obj
 0001:00064cc4       __adj_fdivr_m16i           00465cc4 f   LIBC:adj_fdiv.obj
 0001:00064cf8       __adj_fdivr_m32i           00465cf8 f   LIBC:adj_fdiv.obj
 0001:00064d2c       __safe_fdiv                00465d2c f   LIBC:adj_fdiv.obj
 0001:00064d41       __safe_fdivr               00465d41 f   LIBC:adj_fdiv.obj
 0001:00064d56       __fprem_common             00465d56 f   LIBC:adj_fdiv.obj
 0001:00064f5c       __adj_fprem                00465f5c f   LIBC:adj_fdiv.obj
 0001:0006500e       __fprem1_common            0046600e f   LIBC:adj_fdiv.obj
 0001:00065214       __adj_fprem1               00466214 f   LIBC:adj_fdiv.obj
 0001:000652c9       __safe_fprem               004662c9 f   LIBC:adj_fdiv.obj
 0001:000652cf       __safe_fprem1              004662cf f   LIBC:adj_fdiv.obj
 0001:000652d5       __adj_fpatan               004662d5 f   LIBC:adj_fdiv.obj
 0001:000652d8       __adj_fptan                004662d8 f   LIBC:adj_fdiv.obj
 0001:000652db       __87except                 004662db f   LIBC:87except.obj
 0001:000653ab       __copysign                 004663ab f   LIBC:ieeemisc.obj
 0001:000653cc       __chgsign                  004663cc f   LIBC:ieeemisc.obj
 0001:000653f1       __scalb                    004663f1 f   LIBC:ieeemisc.obj
 0001:00065407       __logb                     00466407 f   LIBC:ieeemisc.obj
 0001:000654ee       __nextafter                004664ee f   LIBC:ieeemisc.obj
 0001:00065783       __finite                   00466783 f   LIBC:ieeemisc.obj
 0001:00065797       __isnan                    00466797 f   LIBC:ieeemisc.obj
 0001:000657c5       __fpclass                  004667c5 f   LIBC:ieeemisc.obj
 0001:00065857       __ismbbkalnum              00466857 f   LIBC:ismbbyte.obj
 0001:00065868       __ismbbkprint              00466868 f   LIBC:ismbbyte.obj
 0001:00065879       __ismbbkpunct              00466879 f   LIBC:ismbbyte.obj
 0001:0006588a       __ismbbalnum               0046688a f   LIBC:ismbbyte.obj
 0001:0006589e       __ismbbalpha               0046689e f   LIBC:ismbbyte.obj
 0001:000658b2       __ismbbgraph               004668b2 f   LIBC:ismbbyte.obj
 0001:000658c6       __ismbbprint               004668c6 f   LIBC:ismbbyte.obj
 0001:000658da       __ismbbpunct               004668da f   LIBC:ismbbyte.obj
 0001:000658eb       __ismbblead                004668eb f   LIBC:ismbbyte.obj
 0001:000658fc       __ismbbtrail               004668fc f   LIBC:ismbbyte.obj
 0001:0006590d       __ismbbkana                0046690d f   LIBC:ismbbyte.obj
 0001:00065965       __setmbcp                  00466965 f   LIBC:mbctype.obj
 0001:00065d29       __getmbcp                  00466d29 f   LIBC:mbctype.obj
 0001:00065d39       ___initmbctable            00466d39 f   LIBC:mbctype.obj
 0001:00065d55       ___crtMessageBoxA          00466d55 f   LIBC:crtmbox.obj
 0001:00065dde       _isalpha                   00466dde f   LIBC:_ctype.obj
 0001:00065e0c       _isupper                   00466e0c f   LIBC:_ctype.obj
 0001:00065e34       _islower                   00466e34 f   LIBC:_ctype.obj
 0001:00065e5c       _isdigit                   00466e5c f   LIBC:_ctype.obj
 0001:00065e84       _isxdigit                  00466e84 f   LIBC:_ctype.obj
 0001:00065eb1       _isspace                   00466eb1 f   LIBC:_ctype.obj
 0001:00065ed9       _ispunct                   00466ed9 f   LIBC:_ctype.obj
 0001:00065f01       _isalnum                   00466f01 f   LIBC:_ctype.obj
 0001:00065f2f       _isprint                   00466f2f f   LIBC:_ctype.obj
 0001:00065f5d       _isgraph                   00466f5d f   LIBC:_ctype.obj
 0001:00065f8b       _iscntrl                   00466f8b f   LIBC:_ctype.obj
 0001:00065fb3       ___isascii                 00466fb3 f   LIBC:_ctype.obj
 0001:00065fc0       ___toascii                 00466fc0 f   LIBC:_ctype.obj
 0001:00065fc8       ___iscsymf                 00466fc8 f   LIBC:_ctype.obj
 0001:00066005       ___iscsym                  00467005 f   LIBC:_ctype.obj
 0001:00066050       __allshl                   00467050 f   LIBC:llshl.obj
 0001:0006606f       ___crtsetenv               0046706f f   LIBC:setenv.obj
 0001:000662b5       __chsize                   004672b5 f   LIBC:chsize.obj
 0001:00066400       _strrchr                   00467400 f   LIBC:strrchr.obj
 0001:00066427       ___getlocaleinfo           00467427 f   LIBC:inithelp.obj
 0001:0006655f       ___crtGetStringTypeW       0046755f f   LIBC:w_str.obj
 0001:00066730       __strnicmp                 00467730 f   LIBC:strnicmp.obj
 0001:000667dd       ___addl                    004677dd f   LIBC:mantold.obj
 0001:000667fe       ___add_12                  004677fe f   LIBC:mantold.obj
 0001:0006685c       ___shl_12                  0046785c f   LIBC:mantold.obj
 0001:0006688a       ___shr_12                  0046788a f   LIBC:mantold.obj
 0001:000668b7       ___mtold12                 004678b7 f   LIBC:mantold.obj
 0001:0006697e       _$I10_OUTPUT               0046797e f   LIBC:x10fout.obj
 0001:00066c11       _signal                    00467c11 f   LIBC:winsig.obj
 0001:00066d55       _raise                     00467d55 f   LIBC:winsig.obj
 0001:00066ec7       ___ld12mul                 00467ec7 f   LIBC:tenpow.obj
 0001:000670e7       ___multtenpow12            004680e7 f   LIBC:tenpow.obj
 0001:00067163       _ldexp                     00468163 f   LIBC:ldexp.obj
 0001:00067349       __mbschr                   00468349 f   LIBC:mbschr.obj
 0001:000673bc       __setmode                  004683bc f   LIBC:setmode.obj
 0001:00067432       ___crtGetLocaleInfoW       00468432 f   LIBC:w_loc.obj
 0001:00067545       ___crtGetLocaleInfoA       00468545 f   LIBC:a_loc.obj
 0001:00067670       ??0ios@@IAE@XZ             00468670 f   libci:_ios.obj
 0001:000676a2       ??_Gios@@UAEPAXI@Z         004686a2 f i libci:_ios.obj
 0001:000676a2       ??_Eios@@UAEPAXI@Z         004686a2 f i libci:_ios.obj
 0001:000676be       ??0ios@@QAE@PAVstreambuf@@@Z 004686be f   libci:_ios.obj
 0001:000676fc       ??0ios@@IAE@ABV0@@Z        004686fc f   libci:_ios.obj
 0001:0006771c       ??1ios@@UAE@XZ             0046871c f   libci:_ios.obj
 0001:00067745       ?init@ios@@IAEXPAVstreambuf@@@Z 00468745 f   libci:_ios.obj
 0001:00067774       ??4ios@@IAEAAV0@ABV0@@Z    00468774 f   libci:_ios.obj
 0001:000677af       ?xalloc@ios@@SAHXZ         004687af f   libci:_ios.obj
 0001:00067819       ?bitalloc@ios@@SAJXZ       00468819 f   libci:_ios.obj
 0001:00067825       ??0ifstream@@QAE@XZ        00468825 f   libci:ifstream.obj
 0001:000678ab       ??_Gifstream@@UAEPAXI@Z    004688ab f i libci:ifstream.obj
 0001:000678ab       ??_Eifstream@@UAEPAXI@Z    004688ab f i libci:ifstream.obj
 0001:000678d6       ??0ifstream@@QAE@PBDHH@Z   004688d6 f   libci:ifstream.obj
 0001:0006798d       ??0ifstream@@QAE@H@Z       0046898d f   libci:ifstream.obj
 0001:00067a16       ??0ifstream@@QAE@HPADH@Z   00468a16 f   libci:ifstream.obj
 0001:00067aa5       ??1ifstream@@UAE@XZ        00468aa5 f   libci:ifstream.obj
 0001:00067ab8       ?setbuf@ifstream@@QAEPAVstreambuf@@PADH@Z 00468ab8 f   libci:ifstream.obj
 0001:00067afa       ?attach@ifstream@@QAEXH@Z  00468afa f   libci:ifstream.obj
 0001:00067b25       ?open@ifstream@@QAEXPBDHH@Z 00468b25 f   libci:ifstream.obj
 0001:00067b61       ?close@ifstream@@QAEXXZ    00468b61 f   libci:ifstream.obj
 0001:00067b90       ?get@istream@@QAEHXZ       00468b90 f   libci:istrget.obj
 0001:00067bcb       ?get@istream@@QAEAAV1@AAD@Z 00468bcb f   libci:istrget.obj
 0001:00067c0b       ?read@istream@@QAEAAV1@PADH@Z 00468c0b f   libci:istrget.obj
 0001:00067c4c       ??0filebuf@@QAE@XZ         00468c4c f   libci:filebuf.obj
 0001:00067c66       ??_Gfilebuf@@UAEPAXI@Z     00468c66 f i libci:filebuf.obj
 0001:00067c66       ??_Efilebuf@@UAEPAXI@Z     00468c66 f i libci:filebuf.obj
 0001:00067c82       ??0filebuf@@QAE@H@Z        00468c82 f   libci:filebuf.obj
 0001:00067ca1       ??0filebuf@@QAE@HPADH@Z    00468ca1 f   libci:filebuf.obj
 0001:00067ce9       ??1filebuf@@UAE@XZ         00468ce9 f   libci:filebuf.obj
 0001:00067d2e       ?close@filebuf@@QAEPAV1@XZ 00468d2e f   libci:filebuf.obj
 0001:00067d5f       ?overflow@filebuf@@UAEHH@Z 00468d5f f   libci:filebuf.obj
 0001:00067dd0       ?sputc@streambuf@@QAEHH@Z  00468dd0 f i libci:filebuf.obj
 0001:00067df2       ?underflow@filebuf@@UAEHXZ 00468df2 f   libci:filebuf.obj
 0001:00067e82       ?in_avail@streambuf@@QBEHXZ 00468e82 f i libci:filebuf.obj
 0001:00067e92       ?seekoff@filebuf@@UAEJJW4seek_dir@ios@@H@Z 00468e92 f   libci:filebuf.obj
 0001:00067ed6       ?sync@filebuf@@UAEHXZ      00468ed6 f   libci:filebuf.obj
 0001:00067fae       ?setbuf@filebuf@@UAEPAVstreambuf@@PADH@Z 00468fae f   libci:filebuf.obj
 0001:00067fed       ??0istream@@IAE@XZ         00468fed f   libci:istream.obj
 0001:00068035       ??_Eistream@@UAEPAXI@Z     00469035 f i libci:istream.obj
 0001:00068035       ??_Gistream@@UAEPAXI@Z     00469035 f i libci:istream.obj
 0001:00068060       ??0istream@@QAE@PAVstreambuf@@@Z 00469060 f   libci:istream.obj
 0001:000680d6       ??0istream@@IAE@ABV0@@Z    004690d6 f   libci:istream.obj
 0001:00068155       ??1istream@@UAE@XZ         00469155 f   libci:istream.obj
 0001:00068164       ??4istream@@IAEAAV0@PAVstreambuf@@@Z 00469164 f   libci:istream.obj
 0001:000681fc       ?ipfx@istream@@QAEHH@Z     004691fc f   libci:istream.obj
 0001:0006827e       ??5istream@@QAEAAV0@PAD@Z  0046927e f   libci:istream.obj
 0001:00068333       ?peek@istream@@QAEHXZ      00469333 f   libci:istream.obj
 0001:00068356       ?putback@istream@@QAEAAV1@D@Z 00469356 f   libci:istream.obj
 0001:0006838b       ?sputbackc@streambuf@@QAEHD@Z 0046938b f i libci:istream.obj
 0001:000683b0       ?sync@istream@@QAEHXZ      004693b0 f   libci:istream.obj
 0001:000683d6       ?eatwhite@istream@@QAEXXZ  004693d6 f   libci:istream.obj
 0001:00068417       ??0istream_withassign@@QAE@XZ 00469417 f   libci:istream.obj
 0001:00068472       ??_Eistream_withassign@@UAEPAXI@Z 00469472 f i libci:istream.obj
 0001:00068472       ??_Gistream_withassign@@UAEPAXI@Z 00469472 f i libci:istream.obj
 0001:0006849d       ??0istream_withassign@@QAE@PAVstreambuf@@@Z 0046949d f   libci:istream.obj
 0001:000684fb       ??1istream_withassign@@UAE@XZ 004694fb f   libci:istream.obj
 0001:0006850e       ?attach@filebuf@@QAEPAV1@H@Z 0046950e f   libci:filebuf1.obj
 0001:00068562       ?open@filebuf@@QAEPAV1@PBDHH@Z 00469562 f   libci:filebuf1.obj
 0001:000686ab       ?setmode@filebuf@@QAEHH@Z  004696ab f   libci:filebuf1.obj
 0001:000686ea       ?snextc@streambuf@@QAEHXZ  004696ea f   libci:streamb1.obj
 0001:00068736       ?sbumpc@streambuf@@QAEHXZ  00469736 f   libci:streamb1.obj
 0001:0006876d       ?stossc@streambuf@@QAEXXZ  0046976d f   libci:streamb1.obj
 0001:000687a6       ?sgetc@streambuf@@QAEHXZ   004697a6 f   libci:streamb1.obj
 0001:000687cb       ??0streambuf@@IAE@XZ       004697cb f   libci:streamb.obj
 0001:000687f8       ??_Estreambuf@@UAEPAXI@Z   004697f8 f i libci:streamb.obj
 0001:000687f8       ??_Gstreambuf@@UAEPAXI@Z   004697f8 f i libci:streamb.obj
 0001:00068814       ??0streambuf@@IAE@PADH@Z   00469814 f   libci:streamb.obj
 0001:00068867       ??1streambuf@@UAE@XZ       00469867 f   libci:streamb.obj
 0001:0006888b       ?setbuf@streambuf@@UAEPAV1@PADH@Z 0046988b f   libci:streamb.obj
 0001:000688bf       ?xsputn@streambuf@@UAEHPBDH@Z 004698bf f   libci:streamb.obj
 0001:00068915       ?xsgetn@streambuf@@UAEHPADH@Z 00469915 f   libci:streamb.obj
 0001:000689ac       ?sync@streambuf@@UAEHXZ    004699ac f   libci:streamb.obj
 0001:000689c3       ?allocate@streambuf@@IAEHXZ 004699c3 f   libci:streamb.obj
 0001:000689e1       ?doallocate@streambuf@@MAEHXZ 004699e1 f   libci:streamb.obj
 0001:00068a0e       ?setb@streambuf@@IAEXPAD0H@Z 00469a0e f   libci:streamb.obj
 0001:00068a3e       ?seekoff@streambuf@@UAEJJW4seek_dir@ios@@H@Z 00469a3e f   libci:streamb.obj
 0001:00068a44       ?seekpos@streambuf@@UAEJJH@Z 00469a44 f   libci:streamb.obj
 0001:00068a56       ?pbackfail@streambuf@@UAEHH@Z 00469a56 f   libci:streamb.obj
 0001:00068ab2       ?opfx@ostream@@QAEHXZ      00469ab2 f   libci:ostream.obj
 0001:00068adb       ?osfx@ostream@@QAEXXZ      00469adb f   libci:ostream.obj
 0001:00068b5b       ??6ostream@@QAEAAV0@PBD@Z  00469b5b f   libci:ostream.obj
 0001:00068b84       ?flush@ostream@@QAEAAV1@XZ 00469b84 f   libci:ostream.obj
 0001:00068bac       ??0ostream@@IAE@XZ         00469bac f   libci:ostream.obj
 0001:00068be2       ??_Gostream@@UAEPAXI@Z     00469be2 f i libci:ostream.obj
 0001:00068be2       ??_Eostream@@UAEPAXI@Z     00469be2 f i libci:ostream.obj
 0001:00068c0d       ??0ostream@@QAE@PAVstreambuf@@@Z 00469c0d f   libci:ostream.obj
 0001:00068c72       ??0ostream@@IAE@ABV0@@Z    00469c72 f   libci:ostream.obj
 0001:00068ce0       ??1ostream@@UAE@XZ         00469ce0 f   libci:ostream.obj
 0001:00068cef       ??4ostream@@IAEAAV0@PAVstreambuf@@@Z 00469cef f   libci:ostream.obj
 0001:00068d75       ??0ostream_withassign@@QAE@XZ 00469d75 f   libci:ostream.obj
 0001:00068dd0       ??_Eostream_withassign@@UAEPAXI@Z 00469dd0 f i libci:ostream.obj
 0001:00068dd0       ??_Gostream_withassign@@UAEPAXI@Z 00469dd0 f i libci:ostream.obj
 0001:00068dfb       ??0ostream_withassign@@QAE@PAVstreambuf@@@Z 00469dfb f   libci:ostream.obj
 0001:00068e59       ??1ostream_withassign@@UAE@XZ 00469e59 f   libci:ostream.obj
 0001:00068e6c       ?writepad@ostream@@AAEAAV1@PBD0@Z 00469e6c f   libci:ostream.obj
 0001:00068fd8       _WideCharToMultiByte@32    00469fd8 f   kernel32:KERNEL32.dll
 0001:00068fde       _MultiByteToWideChar@24    00469fde f   kernel32:KERNEL32.dll
 0001:00068fe4       _RtlUnwind@16              00469fe4 f   kernel32:KERNEL32.dll
 0001:00068fea       _HeapFree@12               00469fea f   kernel32:KERNEL32.dll
 0001:00068ff0       _RaiseException@16         00469ff0 f   kernel32:KERNEL32.dll
 0001:00068ff6       _GetSystemTimeAsFileTime@4 00469ff6 f   kernel32:KERNEL32.dll
 0001:00068ffc       _GetTimeZoneInformation@4  00469ffc f   kernel32:KERNEL32.dll
 0001:00069002       _GetSystemTime@4           0046a002 f   kernel32:KERNEL32.dll
 0001:00069008       _GetLocalTime@4            0046a008 f   kernel32:KERNEL32.dll
 0001:0006900e       _FindFirstFileA@8          0046a00e f   kernel32:KERNEL32.dll
 0001:00069014       _FindNextFileA@8           0046a014 f   kernel32:KERNEL32.dll
 0001:0006901a       _FindClose@4               0046a01a f   kernel32:KERNEL32.dll
 0001:00069020       _FileTimeToSystemTime@8    0046a020 f   kernel32:KERNEL32.dll
 0001:00069026       _FileTimeToLocalFileTime@8 0046a026 f   kernel32:KERNEL32.dll
 0001:0006902c       _GetStartupInfoA@4         0046a02c f   kernel32:KERNEL32.dll
 0001:00069032       _GetCommandLineA@0         0046a032 f   kernel32:KERNEL32.dll
 0001:00069038       _GetVersion@0              0046a038 f   kernel32:KERNEL32.dll
 0001:0006903e       _HeapAlloc@12              0046a03e f   kernel32:KERNEL32.dll
 0001:00069044       _TerminateProcess@8        0046a044 f   kernel32:KERNEL32.dll
 0001:0006904a       _GetCurrentProcess@0       0046a04a f   kernel32:KERNEL32.dll
 0001:00069050       _HeapReAlloc@16            0046a050 f   kernel32:KERNEL32.dll
 0001:00069056       _LCMapStringA@24           0046a056 f   kernel32:KERNEL32.dll
 0001:0006905c       _LCMapStringW@24           0046a05c f   kernel32:KERNEL32.dll
 0001:00069062       _GetCPInfo@8               0046a062 f   kernel32:KERNEL32.dll
 0001:00069068       _CompareStringA@24         0046a068 f   kernel32:KERNEL32.dll
 0001:0006906e       _CompareStringW@24         0046a06e f   kernel32:KERNEL32.dll
 0001:00069074       _HeapSize@12               0046a074 f   kernel32:KERNEL32.dll
 0001:0006907a       _GetModuleFileNameA@12     0046a07a f   kernel32:KERNEL32.dll
 0001:00069080       _GetEnvironmentVariableA@12 0046a080 f   kernel32:KERNEL32.dll
 0001:00069086       _HeapDestroy@4             0046a086 f   kernel32:KERNEL32.dll
 0001:0006908c       _HeapCreate@12             0046a08c f   kernel32:KERNEL32.dll
 0001:00069092       _VirtualFree@12            0046a092 f   kernel32:KERNEL32.dll
 0001:00069098       _VirtualAlloc@16           0046a098 f   kernel32:KERNEL32.dll
 0001:0006909e       _IsBadWritePtr@8           0046a09e f   kernel32:KERNEL32.dll
 0001:000690a4       _WriteFile@20              0046a0a4 f   kernel32:KERNEL32.dll
 0001:000690aa       _FlushFileBuffers@4        0046a0aa f   kernel32:KERNEL32.dll
 0001:000690b0       _SetUnhandledExceptionFilter@4 0046a0b0 f   kernel32:KERNEL32.dll
 0001:000690b6       _UnhandledExceptionFilter@4 0046a0b6 f   kernel32:KERNEL32.dll
 0001:000690bc       _FreeEnvironmentStringsA@4 0046a0bc f   kernel32:KERNEL32.dll
 0001:000690c2       _FreeEnvironmentStringsW@4 0046a0c2 f   kernel32:KERNEL32.dll
 0001:000690c8       _GetEnvironmentStrings@0   0046a0c8 f   kernel32:KERNEL32.dll
 0001:000690ce       _GetEnvironmentStringsW@0  0046a0ce f   kernel32:KERNEL32.dll
 0001:000690d4       _SetHandleCount@4          0046a0d4 f   kernel32:KERNEL32.dll
 0001:000690da       _GetStdHandle@4            0046a0da f   kernel32:KERNEL32.dll
 0001:000690e0       _GetFileType@4             0046a0e0 f   kernel32:KERNEL32.dll
 0001:000690e6       _GetFileAttributesA@4      0046a0e6 f   kernel32:KERNEL32.dll
 0001:000690ec       _GetCurrentProcessId@0     0046a0ec f   kernel32:KERNEL32.dll
 0001:000690f2       _IsValidLocale@8           0046a0f2 f   kernel32:KERNEL32.dll
 0001:000690f8       _IsValidCodePage@4         0046a0f8 f   kernel32:KERNEL32.dll
 0001:000690fe       _GetLocaleInfoA@16         0046a0fe f   kernel32:KERNEL32.dll
 0001:00069104       _EnumSystemLocalesA@8      0046a104 f   kernel32:KERNEL32.dll
 0001:0006910a       _GetUserDefaultLCID@0      0046a10a f   kernel32:KERNEL32.dll
 0001:00069110       _GetStringTypeA@20         0046a110 f   kernel32:KERNEL32.dll
 0001:00069116       _GetStringTypeW@16         0046a116 f   kernel32:KERNEL32.dll
 0001:0006911c       _IsBadReadPtr@8            0046a11c f   kernel32:KERNEL32.dll
 0001:00069122       _IsBadCodePtr@4            0046a122 f   kernel32:KERNEL32.dll
 0001:00069128       _SetStdHandle@8            0046a128 f   kernel32:KERNEL32.dll
 0001:0006912e       _GetACP@0                  0046a12e f   kernel32:KERNEL32.dll
 0001:00069134       _GetOEMCP@0                0046a134 f   kernel32:KERNEL32.dll
 0001:0006913a       _SetEnvironmentVariableA@8 0046a13a f   kernel32:KERNEL32.dll
 0001:00069140       _SetEndOfFile@4            0046a140 f   kernel32:KERNEL32.dll
 0001:00069146       _SetConsoleCtrlHandler@8   0046a146 f   kernel32:KERNEL32.dll
 0001:0006914c       _GetLocaleInfoW@16         0046a14c f   kernel32:KERNEL32.dll
 0001:00069152       __purecall                 0046a152 f   LIBC:purevirt.obj
 0002:00000000       __imp__RegOpenKeyExA@20    0046f000     advapi32:ADVAPI32.dll
 0002:00000004       __imp__RegQueryValueExA@24 0046f004     advapi32:ADVAPI32.dll
 0002:00000008       __imp__RegSetValueExA@24   0046f008     advapi32:ADVAPI32.dll
 0002:0000000c       __imp__RegCloseKey@4       0046f00c     advapi32:ADVAPI32.dll
 0002:00000010       __imp__RegCreateKeyA@12    0046f010     advapi32:ADVAPI32.dll
 0002:00000014       \177ADVAPI32_NULL_THUNK_DATA 0046f014     advapi32:ADVAPI32.dll
 0002:00000018       __imp__GetStockObject@4    0046f018     gdi32:GDI32.dll
 0002:0000001c       __imp__GetPixelFormat@4    0046f01c     gdi32:GDI32.dll
 0002:00000020       __imp__UnrealizeObject@4   0046f020     gdi32:GDI32.dll
 0002:00000024       __imp__DescribePixelFormat@16 0046f024     gdi32:GDI32.dll
 0002:00000028       __imp__CreatePalette@4     0046f028     gdi32:GDI32.dll
 0002:0000002c       __imp__SetSystemPaletteUse@8 0046f02c     gdi32:GDI32.dll
 0002:00000030       __imp__SelectPalette@12    0046f030     gdi32:GDI32.dll
 0002:00000034       __imp__RealizePalette@4    0046f034     gdi32:GDI32.dll
 0002:00000038       __imp__GetPaletteEntries@16 0046f038     gdi32:GDI32.dll
 0002:0000003c       __imp__SetPaletteEntries@16 0046f03c     gdi32:GDI32.dll
 0002:00000040       __imp__SwapBuffers@4       0046f040     gdi32:GDI32.dll
 0002:00000044       __imp__CreateCompatibleDC@4 0046f044     gdi32:GDI32.dll
 0002:00000048       __imp__CreateDIBSection@24 0046f048     gdi32:GDI32.dll
 0002:0000004c       __imp__SetDIBits@28        0046f04c     gdi32:GDI32.dll
 0002:00000050       __imp__GdiFlush@0          0046f050     gdi32:GDI32.dll
 0002:00000054       __imp__DeleteDC@4          0046f054     gdi32:GDI32.dll
 0002:00000058       __imp__DeleteObject@4      0046f058     gdi32:GDI32.dll
 0002:0000005c       __imp__ChoosePixelFormat@8 0046f05c     gdi32:GDI32.dll
 0002:00000060       __imp__SetPixelFormat@12   0046f060     gdi32:GDI32.dll
 0002:00000064       __imp__GetPixel@12         0046f064     gdi32:GDI32.dll
 0002:00000068       __imp__CreateFontA@56      0046f068     gdi32:GDI32.dll
 0002:0000006c       __imp__SelectObject@8      0046f06c     gdi32:GDI32.dll
 0002:00000070       __imp__GetCharWidthA@16    0046f070     gdi32:GDI32.dll
 0002:00000074       \177GDI32_NULL_THUNK_DATA  0046f074     gdi32:GDI32.dll
 0002:00000078       __imp__gluOrtho2D@32       0046f078     glu32:GLU32.dll
 0002:0000007c       __imp__gluBuild2DMipmaps@28 0046f07c     glu32:GLU32.dll
 0002:00000080       __imp__gluPerspective@32   0046f080     glu32:GLU32.dll
 0002:00000084       __imp__gluLookAt@72        0046f084     glu32:GLU32.dll
 0002:00000088       \177GLU32_NULL_THUNK_DATA  0046f088     glu32:GLU32.dll
 0002:0000008c       __imp__ExitProcess@4       0046f08c     kernel32:KERNEL32.dll
 0002:00000090       __imp__GetFileAttributesA@4 0046f090     kernel32:KERNEL32.dll
 0002:00000094       __imp__GetFileType@4       0046f094     kernel32:KERNEL32.dll
 0002:00000098       __imp__HeapAlloc@12        0046f098     kernel32:KERNEL32.dll
 0002:0000009c       __imp__GetVersion@0        0046f09c     kernel32:KERNEL32.dll
 0002:000000a0       __imp__TerminateProcess@8  0046f0a0     kernel32:KERNEL32.dll
 0002:000000a4       __imp__GetStartupInfoA@4   0046f0a4     kernel32:KERNEL32.dll
 0002:000000a8       __imp__FileTimeToLocalFileTime@8 0046f0a8     kernel32:KERNEL32.dll
 0002:000000ac       __imp__GetCommandLineA@0   0046f0ac     kernel32:KERNEL32.dll
 0002:000000b0       __imp__FindClose@4         0046f0b0     kernel32:KERNEL32.dll
 0002:000000b4       __imp__FindNextFileA@8     0046f0b4     kernel32:KERNEL32.dll
 0002:000000b8       __imp__FileTimeToSystemTime@8 0046f0b8     kernel32:KERNEL32.dll
 0002:000000bc       __imp__GetLocalTime@4      0046f0bc     kernel32:KERNEL32.dll
 0002:000000c0       __imp__GetSystemTime@4     0046f0c0     kernel32:KERNEL32.dll
 0002:000000c4       __imp__FindFirstFileA@8    0046f0c4     kernel32:KERNEL32.dll
 0002:000000c8       __imp__GetSystemTimeAsFileTime@4 0046f0c8     kernel32:KERNEL32.dll
 0002:000000cc       __imp__RaiseException@16   0046f0cc     kernel32:KERNEL32.dll
 0002:000000d0       __imp__GetTimeZoneInformation@4 0046f0d0     kernel32:KERNEL32.dll
 0002:000000d4       __imp__RtlUnwind@16        0046f0d4     kernel32:KERNEL32.dll
 0002:000000d8       __imp__MultiByteToWideChar@24 0046f0d8     kernel32:KERNEL32.dll
 0002:000000dc       __imp__HeapFree@12         0046f0dc     kernel32:KERNEL32.dll
 0002:000000e0       __imp__SetEndOfFile@4      0046f0e0     kernel32:KERNEL32.dll
 0002:000000e4       __imp__SetEnvironmentVariableA@8 0046f0e4     kernel32:KERNEL32.dll
 0002:000000e8       __imp__HeapReAlloc@16      0046f0e8     kernel32:KERNEL32.dll
 0002:000000ec       __imp__LCMapStringA@24     0046f0ec     kernel32:KERNEL32.dll
 0002:000000f0       __imp__LCMapStringW@24     0046f0f0     kernel32:KERNEL32.dll
 0002:000000f4       __imp__GetCPInfo@8         0046f0f4     kernel32:KERNEL32.dll
 0002:000000f8       __imp__CompareStringA@24   0046f0f8     kernel32:KERNEL32.dll
 0002:000000fc       __imp__CompareStringW@24   0046f0fc     kernel32:KERNEL32.dll
 0002:00000100       __imp__HeapSize@12         0046f100     kernel32:KERNEL32.dll
 0002:00000104       __imp__GetModuleFileNameA@12 0046f104     kernel32:KERNEL32.dll
 0002:00000108       __imp__GetEnvironmentVariableA@12 0046f108     kernel32:KERNEL32.dll
 0002:0000010c       __imp__HeapDestroy@4       0046f10c     kernel32:KERNEL32.dll
 0002:00000110       __imp__HeapCreate@12       0046f110     kernel32:KERNEL32.dll
 0002:00000114       __imp__VirtualFree@12      0046f114     kernel32:KERNEL32.dll
 0002:00000118       __imp__VirtualAlloc@16     0046f118     kernel32:KERNEL32.dll
 0002:0000011c       __imp__IsBadWritePtr@8     0046f11c     kernel32:KERNEL32.dll
 0002:00000120       __imp__WriteFile@20        0046f120     kernel32:KERNEL32.dll
 0002:00000124       __imp__QueryPerformanceFrequency@4 0046f124     kernel32:KERNEL32.dll
 0002:00000128       __imp__QueryPerformanceCounter@4 0046f128     kernel32:KERNEL32.dll
 0002:0000012c       __imp__GetLastError@0      0046f12c     kernel32:KERNEL32.dll
 0002:00000130       __imp__UnmapViewOfFile@4   0046f130     kernel32:KERNEL32.dll
 0002:00000134       __imp__MapViewOfFile@20    0046f134     kernel32:KERNEL32.dll
 0002:00000138       __imp__OpenFileMappingA@12 0046f138     kernel32:KERNEL32.dll
 0002:0000013c       __imp__GetProcAddress@8    0046f13c     kernel32:KERNEL32.dll
 0002:00000140       __imp__LoadLibraryA@4      0046f140     kernel32:KERNEL32.dll
 0002:00000144       __imp__FreeLibrary@4       0046f144     kernel32:KERNEL32.dll
 0002:00000148       __imp__Sleep@4             0046f148     kernel32:KERNEL32.dll
 0002:0000014c       __imp__SetFilePointer@16   0046f14c     kernel32:KERNEL32.dll
 0002:00000150       __imp__ReadFile@20         0046f150     kernel32:KERNEL32.dll
 0002:00000154       __imp__CreateFileA@28      0046f154     kernel32:KERNEL32.dll
 0002:00000158       __imp__CreateFileW@28      0046f158     kernel32:KERNEL32.dll
 0002:0000015c       __imp__CloseHandle@4       0046f15c     kernel32:KERNEL32.dll
 0002:00000160       __imp__LocalFree@4         0046f160     kernel32:KERNEL32.dll
 0002:00000164       __imp__LocalAlloc@8        0046f164     kernel32:KERNEL32.dll
 0002:00000168       __imp__CreateFileMappingA@24 0046f168     kernel32:KERNEL32.dll
 0002:0000016c       __imp__GetVersionExA@4     0046f16c     kernel32:KERNEL32.dll
 0002:00000170       __imp__GetModuleHandleA@4  0046f170     kernel32:KERNEL32.dll
 0002:00000174       __imp__GetCurrentProcess@0 0046f174     kernel32:KERNEL32.dll
 0002:00000178       __imp__SetConsoleCtrlHandler@8 0046f178     kernel32:KERNEL32.dll
 0002:0000017c       __imp__SetUnhandledExceptionFilter@4 0046f17c     kernel32:KERNEL32.dll
 0002:00000180       __imp__FlushFileBuffers@4  0046f180     kernel32:KERNEL32.dll
 0002:00000184       __imp__GetOEMCP@0          0046f184     kernel32:KERNEL32.dll
 0002:00000188       __imp__GetACP@0            0046f188     kernel32:KERNEL32.dll
 0002:0000018c       __imp__SetStdHandle@8      0046f18c     kernel32:KERNEL32.dll
 0002:00000190       __imp__IsBadCodePtr@4      0046f190     kernel32:KERNEL32.dll
 0002:00000194       __imp__IsBadReadPtr@8      0046f194     kernel32:KERNEL32.dll
 0002:00000198       __imp__GetStringTypeW@16   0046f198     kernel32:KERNEL32.dll
 0002:0000019c       __imp__GetStringTypeA@20   0046f19c     kernel32:KERNEL32.dll
 0002:000001a0       __imp__GetUserDefaultLCID@0 0046f1a0     kernel32:KERNEL32.dll
 0002:000001a4       __imp__EnumSystemLocalesA@8 0046f1a4     kernel32:KERNEL32.dll
 0002:000001a8       __imp__GetLocaleInfoA@16   0046f1a8     kernel32:KERNEL32.dll
 0002:000001ac       __imp__IsValidCodePage@4   0046f1ac     kernel32:KERNEL32.dll
 0002:000001b0       __imp__IsValidLocale@8     0046f1b0     kernel32:KERNEL32.dll
 0002:000001b4       __imp__GetCurrentProcessId@0 0046f1b4     kernel32:KERNEL32.dll
 0002:000001b8       __imp__GetEnvironmentStringsW@0 0046f1b8     kernel32:KERNEL32.dll
 0002:000001bc       __imp__WideCharToMultiByte@32 0046f1bc     kernel32:KERNEL32.dll
 0002:000001c0       __imp__GetStdHandle@4      0046f1c0     kernel32:KERNEL32.dll
 0002:000001c4       __imp__SetHandleCount@4    0046f1c4     kernel32:KERNEL32.dll
 0002:000001c8       __imp__GetLocaleInfoW@16   0046f1c8     kernel32:KERNEL32.dll
 0002:000001cc       __imp__GetEnvironmentStrings@0 0046f1cc     kernel32:KERNEL32.dll
 0002:000001d0       __imp__FreeEnvironmentStringsW@4 0046f1d0     kernel32:KERNEL32.dll
 0002:000001d4       __imp__FreeEnvironmentStringsA@4 0046f1d4     kernel32:KERNEL32.dll
 0002:000001d8       __imp__UnhandledExceptionFilter@4 0046f1d8     kernel32:KERNEL32.dll
 0002:000001dc       \177KERNEL32_NULL_THUNK_DATA 0046f1dc     kernel32:KERNEL32.dll
 0002:000001e0       __imp__glGetIntegerv@8     0046f1e0     opengl32:OPENGL32.dll
 0002:000001e4       __imp__glMaterialf@12      0046f1e4     opengl32:OPENGL32.dll
 0002:000001e8       __imp__glLightfv@12        0046f1e8     opengl32:OPENGL32.dll
 0002:000001ec       __imp__glReadPixels@28     0046f1ec     opengl32:OPENGL32.dll
 0002:000001f0       __imp__glDepthFunc@4       0046f1f0     opengl32:OPENGL32.dll
 0002:000001f4       __imp__glColorMaterial@8   0046f1f4     opengl32:OPENGL32.dll
 0002:000001f8       __imp__glColorPointer@16   0046f1f8     opengl32:OPENGL32.dll
 0002:000001fc       __imp__glNormalPointer@12  0046f1fc     opengl32:OPENGL32.dll
 0002:00000200       __imp__glVertexPointer@16  0046f200     opengl32:OPENGL32.dll
 0002:00000204       __imp__glTexCoordPointer@16 0046f204     opengl32:OPENGL32.dll
 0002:00000208       __imp__glEnableClientState@4 0046f208     opengl32:OPENGL32.dll
 0002:0000020c       __imp__glDrawArrays@12     0046f20c     opengl32:OPENGL32.dll
 0002:00000210       __imp__glDisableClientState@4 0046f210     opengl32:OPENGL32.dll
 0002:00000214       __imp__glPolygonMode@8     0046f214     opengl32:OPENGL32.dll
 0002:00000218       __imp__glGetError@0        0046f218     opengl32:OPENGL32.dll
 0002:0000021c       __imp__glRotatef@16        0046f21c     opengl32:OPENGL32.dll
 0002:00000220       __imp__glAlphaFunc@8       0046f220     opengl32:OPENGL32.dll
 0002:00000224       __imp__glLightModeli@8     0046f224     opengl32:OPENGL32.dll
 0002:00000228       __imp__glFogfv@8           0046f228     opengl32:OPENGL32.dll
 0002:0000022c       __imp__glFogf@8            0046f22c     opengl32:OPENGL32.dll
 0002:00000230       __imp__glFogi@8            0046f230     opengl32:OPENGL32.dll
 0002:00000234       __imp__glClearColor@16     0046f234     opengl32:OPENGL32.dll
 0002:00000238       __imp__glDepthMask@4       0046f238     opengl32:OPENGL32.dll
 0002:0000023c       __imp__glTexCoord2f@8      0046f23c     opengl32:OPENGL32.dll
 0002:00000240       __imp__glCallList@4        0046f240     opengl32:OPENGL32.dll
 0002:00000244       __imp__glDeleteTextures@8  0046f244     opengl32:OPENGL32.dll
 0002:00000248       __imp__glGenTextures@8     0046f248     opengl32:OPENGL32.dll
 0002:0000024c       __imp__glBindTexture@8     0046f24c     opengl32:OPENGL32.dll
 0002:00000250       __imp__glTexParameteri@12  0046f250     opengl32:OPENGL32.dll
 0002:00000254       __imp__glPushMatrix@0      0046f254     opengl32:OPENGL32.dll
 0002:00000258       __imp__glTranslatef@12     0046f258     opengl32:OPENGL32.dll
 0002:0000025c       __imp__glColor4f@16        0046f25c     opengl32:OPENGL32.dll
 0002:00000260       __imp__glScalef@12         0046f260     opengl32:OPENGL32.dll
 0002:00000264       __imp__glColor3ubv@4       0046f264     opengl32:OPENGL32.dll
 0002:00000268       __imp__glPopMatrix@0       0046f268     opengl32:OPENGL32.dll
 0002:0000026c       __imp__glMatrixMode@4      0046f26c     opengl32:OPENGL32.dll
 0002:00000270       __imp__glLoadIdentity@0    0046f270     opengl32:OPENGL32.dll
 0002:00000274       __imp__glVertex3f@12       0046f274     opengl32:OPENGL32.dll
 0002:00000278       __imp__glNormal3f@12       0046f278     opengl32:OPENGL32.dll
 0002:0000027c       __imp__glDisable@4         0046f27c     opengl32:OPENGL32.dll
 0002:00000280       __imp__glBegin@4           0046f280     opengl32:OPENGL32.dll
 0002:00000284       __imp__glEnd@0             0046f284     opengl32:OPENGL32.dll
 0002:00000288       __imp__glEnable@4          0046f288     opengl32:OPENGL32.dll
 0002:0000028c       __imp__glGenLists@4        0046f28c     opengl32:OPENGL32.dll
 0002:00000290       __imp__glNewList@8         0046f290     opengl32:OPENGL32.dll
 0002:00000294       __imp__glColor3f@12        0046f294     opengl32:OPENGL32.dll
 0002:00000298       __imp__glEndList@0         0046f298     opengl32:OPENGL32.dll
 0002:0000029c       __imp__glGetString@4       0046f29c     opengl32:OPENGL32.dll
 0002:000002a0       __imp__wglCreateContext@4  0046f2a0     opengl32:OPENGL32.dll
 0002:000002a4       __imp__wglGetProcAddress@4 0046f2a4     opengl32:OPENGL32.dll
 0002:000002a8       __imp__glVertex2f@8        0046f2a8     opengl32:OPENGL32.dll
 0002:000002ac       __imp__glShadeModel@4      0046f2ac     opengl32:OPENGL32.dll
 0002:000002b0       __imp__wglMakeCurrent@8    0046f2b0     opengl32:OPENGL32.dll
 0002:000002b4       __imp__wglDeleteContext@4  0046f2b4     opengl32:OPENGL32.dll
 0002:000002b8       __imp__glViewport@16       0046f2b8     opengl32:OPENGL32.dll
 0002:000002bc       __imp__glClearDepth@8      0046f2bc     opengl32:OPENGL32.dll
 0002:000002c0       __imp__glHint@8            0046f2c0     opengl32:OPENGL32.dll
 0002:000002c4       __imp__glPushAttrib@4      0046f2c4     opengl32:OPENGL32.dll
 0002:000002c8       __imp__glTexSubImage2D@36  0046f2c8     opengl32:OPENGL32.dll
 0002:000002cc       __imp__glTexEnvi@12        0046f2cc     opengl32:OPENGL32.dll
 0002:000002d0       __imp__glPopAttrib@0       0046f2d0     opengl32:OPENGL32.dll
 0002:000002d4       __imp__glListBase@4        0046f2d4     opengl32:OPENGL32.dll
 0002:000002d8       __imp__glCallLists@12      0046f2d8     opengl32:OPENGL32.dll
 0002:000002dc       __imp__glBlendFunc@8       0046f2dc     opengl32:OPENGL32.dll
 0002:000002e0       __imp__glTexImage2D@36     0046f2e0     opengl32:OPENGL32.dll
 0002:000002e4       __imp__glClear@4           0046f2e4     opengl32:OPENGL32.dll
 0002:000002e8       __imp__glDeleteLists@8     0046f2e8     opengl32:OPENGL32.dll
 0002:000002ec       \177OPENGL32_NULL_THUNK_DATA 0046f2ec     opengl32:OPENGL32.dll
 0002:000002f0       __imp__PeekMessageA@20     0046f2f0     user32:USER32.dll
 0002:000002f4       __imp__InvalidateRect@12   0046f2f4     user32:USER32.dll
 0002:000002f8       __imp__GetSysColor@4       0046f2f8     user32:USER32.dll
 0002:000002fc       __imp__SetSysColors@12     0046f2fc     user32:USER32.dll
 0002:00000300       __imp__PostMessageA@16     0046f300     user32:USER32.dll
 0002:00000304       __imp__BeginPaint@8        0046f304     user32:USER32.dll
 0002:00000308       __imp__EndPaint@8          0046f308     user32:USER32.dll
 0002:0000030c       __imp__GetKeyState@4       0046f30c     user32:USER32.dll
 0002:00000310       __imp__ReleaseCapture@0    0046f310     user32:USER32.dll
 0002:00000314       __imp__SetCapture@4        0046f314     user32:USER32.dll
 0002:00000318       __imp__GetCursorPos@4      0046f318     user32:USER32.dll
 0002:0000031c       __imp__RegisterClassW@4    0046f31c     user32:USER32.dll
 0002:00000320       __imp__AdjustWindowRect@12 0046f320     user32:USER32.dll
 0002:00000324       __imp__CreateWindowExW@48  0046f324     user32:USER32.dll
 0002:00000328       __imp__GetSystemMetrics@4  0046f328     user32:USER32.dll
 0002:0000032c       __imp__GetClientRect@8     0046f32c     user32:USER32.dll
 0002:00000330       __imp__GetMessageA@16      0046f330     user32:USER32.dll
 0002:00000334       __imp__GetFocus@0          0046f334     user32:USER32.dll
 0002:00000338       __imp__wsprintfA           0046f338     user32:USER32.dll
 0002:0000033c       __imp__GetWindowRect@8     0046f33c     user32:USER32.dll
 0002:00000340       __imp__SetCursorPos@8      0046f340     user32:USER32.dll
 0002:00000344       __imp__DispatchMessageA@4  0046f344     user32:USER32.dll
 0002:00000348       __imp__PostQuitMessage@4   0046f348     user32:USER32.dll
 0002:0000034c       __imp__DefWindowProcA@16   0046f34c     user32:USER32.dll
 0002:00000350       __imp__LoadIconA@8         0046f350     user32:USER32.dll
 0002:00000354       __imp__LoadCursorA@8       0046f354     user32:USER32.dll
 0002:00000358       __imp__RegisterClassA@4    0046f358     user32:USER32.dll
 0002:0000035c       __imp__CreateWindowExA@48  0046f35c     user32:USER32.dll
 0002:00000360       __imp__GetDC@4             0046f360     user32:USER32.dll
 0002:00000364       __imp__ShowWindow@8        0046f364     user32:USER32.dll
 0002:00000368       __imp__SetForegroundWindow@4 0046f368     user32:USER32.dll
 0002:0000036c       __imp__SetFocus@4          0046f36c     user32:USER32.dll
 0002:00000370       __imp__ChangeDisplaySettingsA@8 0046f370     user32:USER32.dll
 0002:00000374       __imp__ShowCursor@4        0046f374     user32:USER32.dll
 0002:00000378       __imp__ReleaseDC@8         0046f378     user32:USER32.dll
 0002:0000037c       __imp__DestroyWindow@4     0046f37c     user32:USER32.dll
 0002:00000380       __imp__DrawTextA@20        0046f380     user32:USER32.dll
 0002:00000384       __imp__OpenClipboard@4     0046f384     user32:USER32.dll
 0002:00000388       __imp__GetClipboardData@4  0046f388     user32:USER32.dll
 0002:0000038c       __imp__CloseClipboard@0    0046f38c     user32:USER32.dll
 0002:00000390       __imp__MessageBoxA@16      0046f390     user32:USER32.dll
 0002:00000394       __imp__TranslateMessage@4  0046f394     user32:USER32.dll
 0002:00000398       \177USER32_NULL_THUNK_DATA 0046f398     user32:USER32.dll
 0002:000003c0       ??_7C3DOParser@@6B@        0046f3c0     3DOParser.obj
 0002:000003c4       ?npos@?$basic_string@DU?$char_traits@D@std@@V?$allocator@D@2@@std@@2IB 0046f3c4     3DOParser.obj
 0002:000003c8       __real@8@3ffefd70a3d70a3d7000 0046f3c8     3DOParser.obj
 0002:000003d0       __real@4@bfff8000000000000000 0046f3d0     3DOParser.obj
 0002:000003d4       __real@4@00000000000000000000 0046f3d4     3DOParser.obj
 0002:000003d8       __real@4@3ff78080808080808000 0046f3d8     3DOParser.obj
 0002:000003dc       ?_C@?1??_Nullstr@?$basic_string@DU?$char_traits@D@std@@V?$allocator@D@2@@std@@CAPBDXZ@4DB 0046f3dc     3DOParser.obj
 0002:000003e4       ??_7CBitmap@@6B@           0046f3e4     Bitmap.obj
 0002:000003ec       ??_7?$basic_ostream@DU?$char_traits@D@std@@@std@@6B@ 0046f3ec     Bitmap.obj
 0002:000003f4       ??_7?$basic_filebuf@DU?$char_traits@D@std@@@std@@6B@ 0046f3f4     Bitmap.obj
 0002:0000042c       ??_7?$basic_ofstream@DU?$char_traits@D@std@@@std@@6B@ 0046f42c     Bitmap.obj
 0002:00000434       ??_7?$basic_ios@DU?$char_traits@D@std@@@std@@6B@ 0046f434     Bitmap.obj
 0002:00000438       ??_8?$basic_ofstream@DU?$char_traits@D@std@@@std@@7B@ 0046f438     Bitmap.obj
 0002:00000444       ??_7?$basic_streambuf@DU?$char_traits@D@std@@@std@@6B@ 0046f444     Bitmap.obj
 0002:00000478       ??_8?$basic_ostream@DU?$char_traits@D@std@@@std@@7B@ 0046f478     Bitmap.obj
 0002:00000484       ??_7ios_base@std@@6B@      0046f484     Bitmap.obj
 0002:0000048c       ??_7bad_cast@std@@6B@      0046f48c     Bitmap.obj
 0002:0000049c       ??_7?$codecvt@DDH@std@@6B@ 0046f49c     Bitmap.obj
 0002:000004bc       ??_7facet@locale@std@@6B@  0046f4bc     Bitmap.obj
 0002:000004c4       ??_7CCamera@@6B@           0046f4c4     Camera.obj
 0002:000004c8       __real@4@3ff8909575eebdd7b800 0046f4c8     Camera.obj
 0002:000004cc       __real@4@4003a000000000000000 0046f4cc     Camera.obj
 0002:000004d0       __real@4@3ff88efa333333333800 0046f4d0     Camera.obj
 0002:000004d8       ??_7CDrawUI@@6B@           0046f4d8     DrawUI.obj
 0002:000004dc       __real@4@4000c000000000000000 0046f4dc     DrawUI.obj
 0002:000004e0       __real@4@4002e000000000000000 0046f4e0     DrawUI.obj
 0002:000004e8       ??_7CDrawWater@@6B@        0046f4e8     DrawWater.obj
 0002:000004ec       __real@4@3fff8000000000000000 0046f4ec     DrawWater.obj
 0002:000004f0       __real@8@3fff851eb851eb852000 0046f4f0     DrawWater.obj
 0002:000004f8       __real@8@3fff828f5c28f5c29000 0046f4f8     DrawWater.obj
 0002:00000504       ??_7CFeatureHandler@@6B@   0046f504     FeatureHandler.obj
 0002:0000050c       ??_7CGame@@6B@             0046f50c     Game.obj
 0002:00000514       ??_7?$basic_istream@DU?$char_traits@D@std@@@std@@6B@ 0046f514     Game.obj
 0002:0000051c       ??_7?$basic_ifstream@DU?$char_traits@D@std@@@std@@6B@ 0046f51c     Game.obj
 0002:00000520       ??_8?$basic_ifstream@DU?$char_traits@D@std@@@std@@7B@ 0046f520     Game.obj
 0002:00000528       __real@4@3fff8666660000000000 0046f528     Game.obj
 0002:0000052c       __real@4@3ffef333330000000000 0046f52c     Game.obj
 0002:00000530       __real@4@4003f000000000000000 0046f530     Game.obj
 0002:00000538       __real@8@3fff8000000000000000 0046f538     Game.obj
 0002:00000540       __real@8@4005c800000000000000 0046f540     Game.obj
 0002:00000548       __real@8@00000000000000000000 0046f548     Game.obj
 0002:00000550       __real@4@40038000000000000000 0046f550     Game.obj
 0002:00000554       __real@4@40059000000000000000 0046f554     Game.obj
 0002:00000558       __real@4@c006c800000000000000 0046f558     Game.obj
 0002:0000055c       __real@4@4005c800000000000000 0046f55c     Game.obj
 0002:00000560       __real@4@4002a000000000000000 0046f560     Game.obj
 0002:00000564       __real@4@3ffbcccccd0000000000 0046f564     Game.obj
 0002:00000568       ??_8?$basic_istream@DU?$char_traits@D@std@@@std@@7B@ 0046f568     Game.obj
 0002:00000570       __real@4@3ff9a3d70a0000000000 0046f570     glFont.obj
 0002:00000574       __real@4@3ffa8000000000000000 0046f574     glFont.obj
 0002:0000057c       ??_7CglFont@@6B@           0046f57c     glFont.obj
 0002:00000580       __real@4@3ffe8000000000000000 0046f580     glFont.obj
 0002:00000584       __real@4@3ff9f5c28f0000000000 0046f584     glFont.obj
 0002:0000058c       ??_7?$ctype@D@std@@6B@     0046f58c     glFont.obj
 0002:000005a4       ??_7CglList@@6B@           0046f5a4     glList.obj
 0002:000005a8       __real@4@3ffde666660000000000 0046f5a8     glList.obj
 0002:000005b0       ??_7CGlobalStuff@@6B@      0046f5b0     GlobalStuff.obj
 0002:000005b8       ??_7CGround@@6B@           0046f5b8     Ground.obj
 0002:000005c0       __real@8@3feea7c5ac471b478800 0046f5c0     Ground.obj
 0002:000005c8       __real@8@40038000000000000000 0046f5c8     Ground.obj
 0002:000005d0       __real@8@3ffb8000000000000000 0046f5d0     Ground.obj
 0002:000005d8       __real@4@3ffb8000000000000000 0046f5d8     Ground.obj
 0002:000005dc       __real@4@c0008000000000000000 0046f5dc     Ground.obj
 0002:000005e0       __real@4@4008fa00000000000000 0046f5e0     Ground.obj
 0002:000005e4       __real@4@400bff80000000000000 0046f5e4     Ground.obj
 0002:000005e8       __real@4@4006c000000000000000 0046f5e8     Ground.obj
 0002:000005ec       __real@4@40058000000000000000 0046f5ec     Ground.obj
 0002:000005f0       __real@4@40068000000000000000 0046f5f0     Ground.obj
 0002:000005f4       __real@4@c0078000000000000000 0046f5f4     Ground.obj
 0002:000005f8       __real@4@40008000000000000000 0046f5f8     Ground.obj
 0002:000005fc       __real@4@4001c000000000000000 0046f5fc     Ground.obj
 0002:00000600       __real@4@3ff1c001800300060000 0046f600     Ground.obj
 0002:00000604       __real@4@3ff08001000200040000 0046f604     Ground.obj
 0002:00000608       __real@4@40029000000000000000 0046f608     Ground.obj
 0002:0000060c       __real@4@3ffc8000000000000000 0046f60c     Ground.obj
 0002:00000610       __real@8@3ffe8000000000000000 0046f610     Ground.obj
 0002:00000618       __real@4@40028000000000000000 0046f618     Ground.obj
 0002:0000061c       __real@4@3ff78000000000000000 0046f61c     GroundDrawer.obj
 0002:00000624       ??_7CGroundDrawer@@6B@     0046f624     GroundDrawer.obj
 0002:00000628       __real@4@3ff88000000000000000 0046f628     GroundDrawer.obj
 0002:0000062c       __real@4@3ffa978d500000000000 0046f62c     GroundDrawer.obj
 0002:00000630       __real@8@3ffdd808a42f87056000 0046f630     GroundDrawer.obj
 0002:00000638       __real@4@400591b6db0000000000 0046f638     GroundDrawer.obj
 0002:00000640       __real@8@3ff1d1b71758e2196800 0046f640     GroundDrawer.obj
 0002:00000648       __real@4@4004b400000000000000 0046f648     GroundDrawer.obj
 0002:0000064c       __real@4@4007c800000000000000 0046f64c     GroundDrawer.obj
 0002:00000650       __real@4@40069600000000000000 0046f650     GroundDrawer.obj
 0002:00000658       ??_7CGuiKeyReader@@6B@     0046f658     GuiKeyReader.obj
 0002:00000660       ??_7CHpiHandler@@6B@       0046f660     HpiHandler.obj
 0002:00000668       ??_7CInfoConsole@@6B@      0046f668     InfoConsole.obj
 0002:0000066c       __real@4@4001e000000000000000 0046f66c     MiniMap.obj
 0002:00000670       __real@8@4001f000000000000000 0046f670     MiniMap.obj
 0002:0000067c       ??_7CMiniMap@@6B@          0046f67c     MiniMap.obj
 0002:00000680       __real@4@c00c9c40000000000000 0046f680     MiniMap.obj
 0002:00000684       __real@4@400e9ca0000000000000 0046f684     MiniMap.obj
 0002:00000688       __real@8@3fef8000000000000000 0046f688     MiniMap.obj
 0002:00000690       __real@8@3ffccccccd0000000000 0046f690     MiniMap.obj
 0002:00000698       __real@4@40048000000000000000 0046f698     MiniMap.obj
 0002:000006a0       __real@8@3ffbccccccccccccd000 0046f6a0     MouseHandler.obj
 0002:000006a8       __real@8@3ff2d1b71758e2196800 0046f6a8     MouseHandler.obj
 0002:000006b4       ??_7CMouseHandler@@6B@     0046f6b4     MouseHandler.obj
 0002:000006b8       __real@8@bfffc90fd80000000000 0046f6b8     MouseHandler.obj
 0002:000006c0       __real@8@3fffc90fd80000000000 0046f6c0     MouseHandler.obj
 0002:000006c8       __real@8@3ff8a3d70a3d70a3d800 0046f6c8     MouseHandler.obj
 0002:000006d0       __real@4@4000c90fd80000000000 0046f6d0     MouseHandler.obj
 0002:000006d4       __real@4@3ff8a3d70a0000000000 0046f6d4     myGL.obj
 0002:000006dc       ??_7CObject@@6B@           0046f6dc     Object.obj
 0002:00000708       ??_7CProjectileHandler@@6B@ 0046f708     ProjectileHandler.obj
 0002:0000070c       __real@4@3ff7b400000000000000 0046f70c     ProjectileHandler.obj
 0002:00000710       __real@4@3fef8000000000000000 0046f710     ProjectileHandler.obj
 0002:00000714       __real@4@4006ff00000000000000 0046f714     ProjectileHandler.obj
 0002:00000718       __real@8@3ff9ccccccccccccd000 0046f718     ProjectileHandler.obj
 0002:00000720       __real@8@40098000000000000000 0046f720     ProjectileHandler.obj
 0002:00000728       __real@8@40088000000000000000 0046f728     ProjectileHandler.obj
 0002:00000730       __real@4@4002f000000000000000 0046f730     ProjectileHandler.obj
 0002:00000738       __real@8@3ff78080808080808000 0046f738     ProjectileHandler.obj
 0002:00000740       __real@8@3ffed555555555555800 0046f740     ProjectileHandler.obj
 0002:00000748       __real@8@3ffeaaaaaaaaaaaaa800 0046f748     ProjectileHandler.obj
 0002:00000750       __real@8@4001c000000000000000 0046f750     ProjectileHandler.obj
 0002:00000758       __real@8@3ffdaaaaaaaaaaaaa800 0046f758     ProjectileHandler.obj
 0002:00000760       __real@8@3ffcaaaaaaaaaaaaa800 0046f760     ProjectileHandler.obj
 0002:0000076c       ??_7CReadMap@@6B@          0046f76c     ReadMap.obj
 0002:00000774       ??_7RegHandler@@6B@        0046f774     RegHandler.obj
 0002:00000778       __real@8@4002a000000000000000 0046f778     Sky.obj
 0002:00000780       __real@8@4008aa00005000000000 0046f780     Sky.obj
 0002:00000788       __real@8@3fff8147ae147ae14800 0046f788     Sky.obj
 0002:00000790       __real@8@3ffcc90fd80000000000 0046f790     Sky.obj
 0002:0000079c       ??_7CSky@@6B@              0046f79c     Sky.obj
 0002:000007a0       __real@8@3ffe9999999999999800 0046f7a0     Sky.obj
 0002:000007a8       __real@8@3ff1bcbe61cffeb07800 0046f7a8     Sky.obj
 0002:000007b0       __real@8@3fefd1b71758e2196800 0046f7b0     Sky.obj
 0002:000007b8       __real@4@3ffeffbe770000000000 0046f7b8     Sky.obj
 0002:000007c0       __real@8@4001c90fd80000000000 0046f7c0     Sky.obj
 0002:000007c8       __real@8@4007c800000000000000 0046f7c8     Sky.obj
 0002:000007d0       __real@8@4000c000000000000000 0046f7d0     Sky.obj
 0002:000007d8       __real@8@3ff58020080200802000 0046f7d8     Sky.obj
 0002:000007e0       __real@8@4008ffc0000000000000 0046f7e0     Sky.obj
 0002:000007e8       __real@4@40088000000000000000 0046f7e8     Sky.obj
 0002:000007ec       __real@4@40098000000000000000 0046f7ec     Sky.obj
 0002:000007f0       __real@4@3ffe8ccccd0000000000 0046f7f0     Sky.obj
 0002:000007f8       __real@8@3ffd9999999999999800 0046f7f8     Sky.obj
 0002:00000800       __real@4@3ffecccccd0000000000 0046f800     Sky.obj
 0002:00000804       __real@4@3ffccccccd0000000000 0046f804     Sky.obj
 0002:00000808       __real@4@3ffc99999a0000000000 0046f808     Sky.obj
 0002:00000810       __real@8@40008000000000000000 0046f810     Sky.obj
 0002:00000818       __real@4@40078000000000000000 0046f818     Sky.obj
 0002:00000820       __real@8@40058c00000000000000 0046f820     Sky.obj
 0002:0000082c       ??_7CTAPalette@@6B@        0046f82c     TAPalette.obj
 0002:00000830       __real@8@3ff38000000000000000 0046f830     TextureHandler.obj
 0002:00000838       __real@4@3ff48000000000000000 0046f838     TextureHandler.obj
 0002:00000840       __real@8@3ff48000000000000000 0046f840     TextureHandler.obj
 0002:00000848       __real@4@3ff58000000000000000 0046f848     TextureHandler.obj
 0002:00000850       ??_7CTextureHandler@@6B@   0046f850     TextureHandler.obj
 0002:00000858       __real@8@4002c000000000000000 0046f858     TextureHandler.obj
 0002:00000860       __real@4@3ffac90fd80000000000 0046f860     TextureHandler.obj
 0002:00000864       __real@4@40018000000000000000 0046f864     TextureHandler.obj
 0002:00000868       __real@4@4003fc00000000000000 0046f868     TextureHandler.obj
 0002:00000870       __real@8@4003fc00000000000000 0046f870     TextureHandler.obj
 0002:0000087c       ??_7CTimeProfiler@@6B@     0046f87c     TimeProfiler.obj
 0002:00000880       __real@8@3ffefd70a40000000000 0046f880     TimeProfiler.obj
 0002:00000888       __real@8@3ff9c49ba5e353f7d000 0046f888     TimeProfiler.obj
 0002:00000894       ??_7CTreeDrawer@@6B@       0046f894     TreeDrawer.obj
 0002:00000898       __real@8@3ffd8000000000000000 0046f898     TreeDrawer.obj
 0002:000008a0       __real@4@3fff99999a0000000000 0046f8a0     TreeDrawer.obj
 0002:000008a4       __real@4@3ff68000000000000000 0046f8a4     TreeDrawer.obj
 0002:000008a8       __real@8@3ffef851eb851eb85000 0046f8a8     TreeDrawer.obj
 0002:000008bc       ??_7CUnitDrawer@@6B@       0046f8bc     UnitDrawer.obj
 0002:000008c0       __real@4@40039000000000000000 0046f8c0     UnitDrawer.obj
 0002:000008c4       __real@4@3ffd99999a0000000000 0046f8c4     UnitDrawer.obj
 0002:000008c8       __real@8@3ffeb333333333333000 0046f8c8     UnitDrawer.obj
 0002:000008d4       ??_7CVertexArray@@6B@      0046f8d4     VertexArray.obj
 0002:00000900       ??_7CVertexArrayRange@@6B@ 0046f900     VertexArrayRange.obj
 0002:00000928       ??_C@_0BC@BPNB@Invalid?5rgb?5file?4?$AA@ 0046f928     glaux:tkimage.obj
 0002:0000093c       ??_C@_0BP@JMPO@Failed?5to?5open?5image?5file?5?$CFs?4?6?$AA@ 0046f93c     glaux:tkimage.obj
 0002:0000095c       ??_C@_0CA@LJID@Failed?5to?5open?5image?5file?5?$CFws?4?6?$AA@ 0046f95c     glaux:tkimage.obj
 0002:0000097c       ??_C@_0P@PBOH@Out?5of?5memory?4?$AA@ 0046f97c     glaux:tkimage.obj
 0002:0000098c       ??_C@_0BN@HJBO@Failed?5to?5open?5DIB?5file?5?$CFs?4?6?$AA@ 0046f98c     glaux:tkdib.obj
 0002:000009ac       ??_C@_0BO@DBGG@Failed?5to?5open?5DIB?5file?5?$CFws?4?6?$AA@ 0046f9ac     glaux:tkdib.obj
 0002:000009cc       ??_C@_0BN@JEEA@Image?5file?5conversion?5error?4?$AA@ 0046f9cc     glaux:tkdib.obj
 0002:000009ec       ??_C@_0BJ@PFHE@Unknown?5DIB?5file?5format?4?$AA@ 0046f9ec     glaux:tkdib.obj
 0002:00000a08       ??_C@_1BI@DJNL@?$AAt?$AAk?$AAL?$AAi?$AAb?$AAW?$AAC?$AAl?$AAa?$AAs?$AAs?$AA?$AA@ 0046fa08     glaux:tk.obj
 0002:00000a20       ??_C@_0M@NKJK@tkLibWClass?$AA@ 0046fa20     glaux:tk.obj
 0002:00000a2c       ??_C@_0L@GDPD@InfoWindow?$AA@ 0046fa2c     glaux:tk.obj
 0002:00000a38       ??_C@_08DGMJ@InfoText?$AA@ 0046fa38     glaux:tk.obj
 0002:00000a44       ??_C@_0M@JAFJ@ButtonLight?$AA@ 0046fa44     glaux:tk.obj
 0002:00000a50       ??_C@_0P@MMGE@ButtonDkShadow?$AA@ 0046fa50     glaux:tk.obj
 0002:00000a60       ??_C@_0O@HHEJ@ButtonHilight?$AA@ 0046fa60     glaux:tk.obj
 0002:00000a70       ??_C@_0BC@OJGL@InactiveTitleText?$AA@ 0046fa70     glaux:tk.obj
 0002:00000a84       ??_C@_0L@BLLI@ButtonText?$AA@ 0046fa84     glaux:tk.obj
 0002:00000a90       ??_C@_08MKBB@GrayText?$AA@ 0046fa90     glaux:tk.obj
 0002:00000a9c       ??_C@_0N@KBGC@ButtonShadow?$AA@ 0046fa9c     glaux:tk.obj
 0002:00000aac       ??_C@_0L@KLIC@ButtonFace?$AA@ 0046faac     glaux:tk.obj
 0002:00000ab8       ??_C@_0M@JEBI@HilightText?$AA@ 0046fab8     glaux:tk.obj
 0002:00000ac4       ??_C@_07PJM@Hilight?$AA@   0046fac4     glaux:tk.obj
 0002:00000acc       ??_C@_0N@JJBA@AppWorkspace?$AA@ 0046facc     glaux:tk.obj
 0002:00000adc       ??_C@_0P@KNNL@InactiveBorder?$AA@ 0046fadc     glaux:tk.obj
 0002:00000aec       ??_C@_0N@LMMP@ActiveBorder?$AA@ 0046faec     glaux:tk.obj
 0002:00000afc       ??_C@_09ILEP@TitleText?$AA@ 0046fafc     glaux:tk.obj
 0002:00000b08       ??_C@_0L@HBHE@WindowText?$AA@ 0046fb08     glaux:tk.obj
 0002:00000b14       ??_C@_08PPFE@MenuText?$AA@ 0046fb14     glaux:tk.obj
 0002:00000b20       ??_C@_0M@GFIE@WindowFrame?$AA@ 0046fb20     glaux:tk.obj
 0002:00000b2c       ??_C@_06FCEH@Window?$AA@   0046fb2c     glaux:tk.obj
 0002:00000b34       ??_C@_04PAPL@Menu?$AA@     0046fb34     glaux:tk.obj
 0002:00000b3c       ??_C@_0O@OBNA@InactiveTitle?$AA@ 0046fb3c     glaux:tk.obj
 0002:00000b4c       ??_C@_0M@PFIJ@ActiveTitle?$AA@ 0046fb4c     glaux:tk.obj
 0002:00000b58       ??_C@_0L@BJIH@Background?$AA@ 0046fb58     glaux:tk.obj
 0002:00000b64       ??_C@_09LALL@Scrollbar?$AA@ 0046fb64     glaux:tk.obj
 0002:00000b70       ??_C@_0BG@EIMN@create?5window?5failed?6?$AA@ 0046fb70     glaux:tk.obj
 0002:00000b88       ??_C@_0CJ@NANK@Could?5not?5get?5an?5HDC?5for?5window?5@ 0046fb88     glaux:tk.obj
 0002:00000bb4       ??_C@_0BJ@FFEC@wglCreateContext?5Failed?6?$AA@ 0046fbb4     glaux:tk.obj
 0002:00000bd0       ??_C@_0BH@IEPA@wglMakeCurrent?5Failed?6?$AA@ 0046fbd0     glaux:tk.obj
 0002:00000be8       ??_C@_0CB@BFHH@Failed?5to?5register?5window?5class?6@ 0046fbe8     glaux:tk.obj
 0002:00000c28       ??_C@_0M@FMEK@?$CFld?5?$CFld?5?$CFld?$AA@ 0046fc28     glaux:tk.obj
 0002:00000c34       ??_C@_0BF@OHCA@Control?5Panel?2Colors?$AA@ 0046fc34     glaux:tk.obj
 0002:00000c4c       ??_C@_0CB@PGDC@Selecting?5a?5pixel?5format?5failed?6@ 0046fc4c     glaux:tk.obj
 0002:00000c70       ??_C@_0BH@GHBP@SetPixelFormat?5failed?6?$AA@ 0046fc70     glaux:tk.obj
 0002:00000c88       ??_C@_0CL@LDIC@Could?5not?5get?5pixel?5format?5for?5D@ 0046fc88     glaux:tk.obj
 0002:00000cb4       ??_C@_0DA@FMJB@Could?5not?5get?5a?5description?5of?5p@ 0046fcb4     glaux:tk.obj
 0002:00000ce4       _jpeg_std_message_table    0046fce4     jpeg:jerror.obj
 0002:00000ee8       _jpeg_natural_order        0046fee8     jpeg:jutils.obj
 0002:000012f4       __real@4@3fff8a8bd40000000000 004702f4     jpeg:jidctflt.obj
 0002:000012f8       __real@4@4000a73d750000000000 004702f8     jpeg:jidctflt.obj
 0002:000012fc       __real@4@3fffec835e0000000000 004702fc     jpeg:jidctflt.obj
 0002:00001300       __real@4@3fffb504f30000000000 00470300     jpeg:jidctflt.obj
 0002:00001308       ??_7length_error@std@@6B@  00470308     libcp:string.obj
 0002:00001314       ??_C@_0BA@HHMB@string?5too?5long?$AA@ 00470314     libcp:string.obj
 0002:00001328       ??_7logic_error@std@@6B@   00470328     libcp:string.obj
 0002:00001338       ??_7out_of_range@std@@6B@  00470338     libcp:string.obj
 0002:00001344       ??_C@_0BI@EEBE@invalid?5string?5position?$AA@ 00470344     libcp:string.obj
 0002:00001360       ??_7?$basic_istream@GU?$char_traits@G@std@@@std@@6B@ 00470360     libcp:wiostrea.obj
 0002:00001368       ??_7?$basic_ostream@GU?$char_traits@G@std@@@std@@6B@ 00470368     libcp:wiostrea.obj
 0002:00001370       ??_7?$basic_ios@GU?$char_traits@G@std@@@std@@6B@ 00470370     libcp:wiostrea.obj
 0002:00001374       ??_8?$basic_ostream@GU?$char_traits@G@std@@@std@@7B@ 00470374     libcp:wiostrea.obj
 0002:0000137c       ??_8?$basic_istream@GU?$char_traits@G@std@@@std@@7B@ 0047037c     libcp:wiostrea.obj
 0002:00001388       ??_7?$basic_filebuf@GU?$char_traits@G@std@@@std@@6B@ 00470388     libcp:wiostrea.obj
 0002:000013c0       ??_7?$basic_streambuf@GU?$char_traits@G@std@@@std@@6B@ 004703c0     libcp:wiostrea.obj
 0002:000013f8       ?_Fpz@std@@3_JB            004703f8     libcp:ios.obj
 0002:00001404       ??_7failure@ios_base@std@@6B@ 00470404     libcp:ios.obj
 0002:00001410       ??_C@_0BA@NGIA@ios?3?3eofbit?5set?$AA@ 00470410     libcp:ios.obj
 0002:00001420       ??_C@_0BB@KPBH@ios?3?3failbit?5set?$AA@ 00470420     libcp:ios.obj
 0002:00001434       ??_C@_0BA@HGGD@ios?3?3badbit?5set?$AA@ 00470434     libcp:ios.obj
 0002:00001448       ??_7runtime_error@std@@6B@ 00470448     libcp:ios.obj
 0002:00001454       ??_C@_0BP@INPK@invalid?5ios?3?3iword?1pword?5index?$AA@ 00470454     libcp:ios.obj
 0002:000014b0       ??_C@_03GMJO@a?$CLb?$AA@   004704b0     libcp:fiopen.obj
 0002:000014b4       ??_C@_03KBID@w?$CLb?$AA@   004704b4     libcp:fiopen.obj
 0002:000014b8       ??_C@_03LLMP@r?$CLb?$AA@   004704b8     libcp:fiopen.obj
 0002:000014bc       ??_C@_02JALM@a?$CL?$AA@    004704bc     libcp:fiopen.obj
 0002:000014c0       ??_C@_02INOK@w?$CL?$AA@    004704c0     libcp:fiopen.obj
 0002:000014c4       ??_C@_02MBOK@r?$CL?$AA@    004704c4     libcp:fiopen.obj
 0002:000014c8       ??_C@_02MLFD@ab?$AA@       004704c8     libcp:fiopen.obj
 0002:000014cc       ??_C@_02NGAF@wb?$AA@       004704cc     libcp:fiopen.obj
 0002:000014d0       ??_C@_01FNLH@a?$AA@        004704d0     libcp:fiopen.obj
 0002:000014d4       ??_C@_01LLF@w?$AA@         004704d4     libcp:fiopen.obj
 0002:000014d8       ??_C@_01LHO@r?$AA@         004704d8     libcp:fiopen.obj
 0002:000014dc       ?table_size@?$ctype@D@std@@2IB 004704dc     libcp:locale0.obj
 0002:000014e0       ??_C@_01FDHG@?$CK?$AA@     004704e0     libcp:locale0.obj
 0002:000014e8       ??_7_Locimp@locale@std@@6B@ 004704e8     libcp:locale0.obj
 0002:000014ec       ??_C@_0BA@KCC@bad?5locale?5name?$AA@ 004704ec     libcp:locale.obj
 0002:00001500       ??_7?$numpunct@D@std@@6B@  00470500     libcp:locale.obj
 0002:0000151c       ??_7?$num_put@DV?$ostreambuf_iterator@DU?$char_traits@D@std@@@std@@@std@@6B@ 0047051c     libcp:locale.obj
 0002:0000153c       ??_7?$num_get@DV?$istreambuf_iterator@DU?$char_traits@D@std@@@std@@@std@@6B@ 0047053c     libcp:locale.obj
 0002:00001564       ??_C@_02MHAC@?$CFp?$AA@    00470564     libcp:locale.obj
 0002:00001568       ??_C@_0BH@CFAI@0123456789abcdefABCDEF?$AA@ 00470568     libcp:locale.obj
 0002:00001580       ??_C@_01PHOL@e?$AA@        00470580     libcp:locale.obj
 0002:00001584       ??_C@_01KFAL@E?$AA@        00470584     libcp:locale.obj
 0002:00001588       ??_C@_01KMAE@?0?$AA@       00470588     libcp:locale.obj
 0002:0000158c       ??_C@_04NCCD@true?$AA@     0047058c     libcp:locale.obj
 0002:00001594       ??_C@_05NAGO@false?$AA@    00470594     libcp:locale.obj
 0002:0000159c       ?nothrow@std@@3Unothrow_t@1@B 0047059c     libcp:nomemory.obj
 0002:000015a0       ??_C@_0P@LJNA@bad?5allocation?$AA@ 004705a0     libcp:nomemory.obj
 0002:000015b4       ??_7bad_alloc@std@@6B@     004705b4     libcp:nomemory.obj
 0002:000015c4       ??_7?$codecvt@GDH@std@@6B@ 004705c4     libcp:wlocale.obj
 0002:000015e4       ??_7?$time_put@GV?$ostreambuf_iterator@GU?$char_traits@G@std@@@std@@@std@@6B@ 004705e4     libcp:wlocale.obj
 0002:000015f0       ??_7?$time_get@GV?$istreambuf_iterator@GU?$char_traits@G@std@@@std@@@std@@6B@ 004705f0     libcp:wlocale.obj
 0002:00001610       ??_7?$moneypunct@G$00@std@@6B@ 00470610     libcp:wlocale.obj
 0002:0000163c       ??_7?$moneypunct@G$0A@@std@@6B@ 0047063c     libcp:wlocale.obj
 0002:00001668       ??_7?$money_put@GV?$ostreambuf_iterator@GU?$char_traits@G@std@@@std@@@std@@6B@ 00470668     libcp:wlocale.obj
 0002:00001678       ??_7?$money_get@GV?$istreambuf_iterator@GU?$char_traits@G@std@@@std@@@std@@6B@ 00470678     libcp:wlocale.obj
 0002:00001688       ??_7?$messages@G@std@@6B@  00470688     libcp:wlocale.obj
 0002:0000169c       ??_7?$collate@G@std@@6B@   0047069c     libcp:wlocale.obj
 0002:000016b0       ??_7?$numpunct@G@std@@6B@  004706b0     libcp:wlocale.obj
 0002:000016cc       ??_7?$num_put@GV?$ostreambuf_iterator@GU?$char_traits@G@std@@@std@@@std@@6B@ 004706cc     libcp:wlocale.obj
 0002:000016ec       ??_7?$num_get@GV?$istreambuf_iterator@GU?$char_traits@G@std@@@std@@@std@@6B@ 004706ec     libcp:wlocale.obj
 0002:00001718       ??_7?$ctype@G@std@@6B@     00470718     libcp:wlocale.obj
 0002:0000174c       ??_C@_04HHID@?$CB?$CFx?$AA?$AA@ 0047074c     libcp:wlocale.obj
 0002:00001754       ?_C@?1??_Nullstr@?$basic_string@GU?$char_traits@G@std@@V?$allocator@G@2@@std@@CAPBGXZ@4GB 00470754     libcp:wlocale.obj
 0002:00001758       ?npos@?$basic_string@GU?$char_traits@G@std@@V?$allocator@G@2@@std@@2IB 00470758     libcp:wlocale.obj
 0002:0000175c       ??_C@_05FFJC@?$CF?40Lf?$AA@ 0047075c     libcp:wlocale.obj
 0002:00001768       __real@8@3fdddbe6fecebdedd800 00470768     libcp:wlocale.obj
 0002:00001770       __real@8@40739a130b963a6c1000 00470770     libcp:wlocale.obj
 0002:0000177c       ??_7?$_Mpunct@G@std@@6B@   0047077c     libcp:wlocale.obj
 0002:000017a4       ??_C@_03LGKI@yes?$AA@      004707a4     libcp:wlocale.obj
 0002:000017a8       ??_C@_02ELCB@no?$AA@       004707a8     libcp:wlocale.obj
 0002:000017ac       ??_C@_0FG@ILEN@?3Sun?3Sunday?3Mon?3Monday?3Tue?3Tuesd@ 004707ac     libcp:wlocale.obj
 0002:00001804       ??_C@_0IH@JLLA@?3Jan?3January?3Feb?3February?3Mar?3Ma@ 00470804     libcp:wlocale.obj
 0002:0000188c       ??_C@_01GJD@?9?$AA@        0047088c     libcp:wlocale.obj
 0002:00001890       ??_C@_04HDBI@$?$CLvx?$AA@  00470890     libcp:wlocale.obj
 0002:00001898       ??_C@_0FB@PNAB@?$CLv$x?$CLv$xv$?$CLxv?$CL$xv$?$CLx?$CL$vx?$CL$vx$v?$CLx@ 00470898     libcp:wlocale.obj
 0002:000018f0       ??_7?$time_put@DV?$ostreambuf_iterator@DU?$char_traits@D@std@@@std@@@std@@6B@ 004708f0     libcp:xlocale.obj
 0002:000018fc       ??_7?$time_get@DV?$istreambuf_iterator@DU?$char_traits@D@std@@@std@@@std@@6B@ 004708fc     libcp:xlocale.obj
 0002:0000191c       ??_7?$moneypunct@D$00@std@@6B@ 0047091c     libcp:xlocale.obj
 0002:00001948       ??_7?$moneypunct@D$0A@@std@@6B@ 00470948     libcp:xlocale.obj
 0002:00001974       ??_7?$money_put@DV?$ostreambuf_iterator@DU?$char_traits@D@std@@@std@@@std@@6B@ 00470974     libcp:xlocale.obj
 0002:00001984       ??_7?$money_get@DV?$istreambuf_iterator@DU?$char_traits@D@std@@@std@@@std@@6B@ 00470984     libcp:xlocale.obj
 0002:00001994       ??_7?$messages@D@std@@6B@  00470994     libcp:xlocale.obj
 0002:000019a8       ??_7?$collate@D@std@@6B@   004709a8     libcp:xlocale.obj
 0002:000019bc       ??_7?$_Mpunct@D@std@@6B@   004709bc     libcp:xlocale.obj
 0002:000019e8       ??_7type_info@@6B@         004709e8     LIBC:typinfo.obj
 0002:00001a20       ??_7exception@@6B@         00470a20     LIBC:stdexcpt.obj
 0002:00001a28       ??_C@_0BC@OIDF@Unknown?5exception?$AA@ 00470a28     LIBC:stdexcpt.obj
 0002:00001a6c       ??_C@_01PJCK@?4?$AA@       00470a6c     LIBC:tmpfile.obj
 0002:00001a70       ??_C@_07PCLE@LC_TIME?$AA@  00470a70     LIBC:setlocal.obj
 0002:00001a78       ??_C@_0L@NKG@LC_NUMERIC?$AA@ 00470a78     LIBC:setlocal.obj
 0002:00001a84       ??_C@_0M@CBIH@LC_MONETARY?$AA@ 00470a84     LIBC:setlocal.obj
 0002:00001a90       ??_C@_08LFGE@LC_CTYPE?$AA@ 00470a90     LIBC:setlocal.obj
 0002:00001a9c       ??_C@_0L@CFLC@LC_COLLATE?$AA@ 00470a9c     LIBC:setlocal.obj
 0002:00001aa8       ??_C@_06GCPK@LC_ALL?$AA@   00470aa8     LIBC:setlocal.obj
 0002:00001ab0       ??_C@_01FAJB@?$DL?$AA@     00470ab0     LIBC:setlocal.obj
 0002:00001ab4       ??_C@_02BGDO@?$DN?$DL?$AA@ 00470ab4     LIBC:setlocal.obj
 0002:00001ab8       ??_C@_01KPOD@?$DN?$AA@     00470ab8     LIBC:setlocal.obj
 0002:00001abc       ??_C@_03DBOJ@_?4?0?$AA@    00470abc     LIBC:setlocal.obj
 0002:00001ac0       ??_C@_01NON@_?$AA@         00470ac0     LIBC:setlocal.obj
 0002:00001ac4       ??_C@_01A@?$AA?$AA@        00470ac4     LIBC:a_map.obj
 0002:00001ac8       ??_C@_13A@?$AA?$AA?$AA?$AA@ 00470ac8     LIBC:a_map.obj
 0002:00001ae8       ??_C@_07CJME@H?3mm?3ss?$AA@ 00470ae8     LIBC:strftime.obj
 0002:00001af0       ??_C@_0BE@MHI@dddd?0?5MMMM?5dd?0?5yyyy?$AA@ 00470af0     LIBC:strftime.obj
 0002:00001b04       ??_C@_06HCAD@M?1d?1yy?$AA@ 00470b04     LIBC:strftime.obj
 0002:00001b0c       ??_C@_02DBLP@PM?$AA@       00470b0c     LIBC:strftime.obj
 0002:00001b10       ??_C@_02ENLM@AM?$AA@       00470b10     LIBC:strftime.obj
 0002:00001b14       ??_C@_08LIDF@December?$AA@ 00470b14     LIBC:strftime.obj
 0002:00001b20       ??_C@_08NJLI@November?$AA@ 00470b20     LIBC:strftime.obj
 0002:00001b2c       ??_C@_07IAMM@October?$AA@  00470b2c     LIBC:strftime.obj
 0002:00001b34       ??_C@_09MKGD@September?$AA@ 00470b34     LIBC:strftime.obj
 0002:00001b40       ??_C@_06PADP@August?$AA@   00470b40     LIBC:strftime.obj
 0002:00001b48       ??_C@_04PIJO@July?$AA@     00470b48     LIBC:strftime.obj
 0002:00001b50       ??_C@_04ICFP@June?$AA@     00470b50     LIBC:strftime.obj
 0002:00001b58       ??_C@_05JFGC@April?$AA@    00470b58     LIBC:strftime.obj
 0002:00001b60       ??_C@_05FGPD@March?$AA@    00470b60     LIBC:strftime.obj
 0002:00001b68       ??_C@_08PGBA@February?$AA@ 00470b68     LIBC:strftime.obj
 0002:00001b74       ??_C@_07BPKJ@January?$AA@  00470b74     LIBC:strftime.obj
 0002:00001b7c       ??_C@_03PGJO@Dec?$AA@      00470b7c     LIBC:strftime.obj
 0002:00001b80       ??_C@_03PDLM@Nov?$AA@      00470b80     LIBC:strftime.obj
 0002:00001b84       ??_C@_03BLHK@Oct?$AA@      00470b84     LIBC:strftime.obj
 0002:00001b88       ??_C@_03DPFM@Sep?$AA@      00470b88     LIBC:strftime.obj
 0002:00001b8c       ??_C@_03CMCH@Aug?$AA@      00470b8c     LIBC:strftime.obj
 0002:00001b90       ??_C@_03OBKI@Jul?$AA@      00470b90     LIBC:strftime.obj
 0002:00001b94       ??_C@_03LEIG@Jun?$AA@      00470b94     LIBC:strftime.obj
 0002:00001b98       ??_C@_03MGHB@May?$AA@      00470b98     LIBC:strftime.obj
 0002:00001b9c       ??_C@_03MJJM@Apr?$AA@      00470b9c     LIBC:strftime.obj
 0002:00001ba0       ??_C@_03GNHA@Mar?$AA@      00470ba0     LIBC:strftime.obj
 0002:00001ba4       ??_C@_03PICE@Feb?$AA@      00470ba4     LIBC:strftime.obj
 0002:00001ba8       ??_C@_03IEIF@Jan?$AA@      00470ba8     LIBC:strftime.obj
 0002:00001bac       ??_C@_08FAKH@Saturday?$AA@ 00470bac     LIBC:strftime.obj
 0002:00001bb8       ??_C@_06ONCK@Friday?$AA@   00470bb8     LIBC:strftime.obj
 0002:00001bc0       ??_C@_08CCFO@Thursday?$AA@ 00470bc0     LIBC:strftime.obj
 0002:00001bcc       ??_C@_09PBIN@Wednesday?$AA@ 00470bcc     LIBC:strftime.obj
 0002:00001bd8       ??_C@_07BMBC@Tuesday?$AA@  00470bd8     LIBC:strftime.obj
 0002:00001be0       ??_C@_06CHLK@Monday?$AA@   00470be0     LIBC:strftime.obj
 0002:00001be8       ??_C@_06OOEM@Sunday?$AA@   00470be8     LIBC:strftime.obj
 0002:00001bf0       ??_C@_03MPKK@Sat?$AA@      00470bf0     LIBC:strftime.obj
 0002:00001bf4       ??_C@_03FINJ@Fri?$AA@      00470bf4     LIBC:strftime.obj
 0002:00001bf8       ??_C@_03HIKC@Thu?$AA@      00470bf8     LIBC:strftime.obj
 0002:00001bfc       ??_C@_03HECK@Wed?$AA@      00470bfc     LIBC:strftime.obj
 0002:00001c00       ??_C@_03ECCP@Tue?$AA@      00470c00     LIBC:strftime.obj
 0002:00001c04       ??_C@_03PIEP@Mon?$AA@      00470c04     LIBC:strftime.obj
 0002:00001c08       ??_C@_03FHEP@Sun?$AA@      00470c08     LIBC:strftime.obj
 0002:00001c0c       ??_C@_03MKGK@a?1p?$AA@     00470c0c     LIBC:strftime.obj
 0002:00001c10       ??_C@_05BDJK@am?1pm?$AA@   00470c10     LIBC:strftime.obj
 0002:00001c30       __real@8@4015800bf60000000000 00470c30     LIBC:testfdiv.obj
 0002:00001c38       __real@8@4014bffffc0000000000 00470c38     LIBC:testfdiv.obj
 0002:00001c40       ??_C@_0BK@JEGK@IsProcessorFeaturePresent?$AA@ 00470c40     LIBC:testfdiv.obj
 0002:00001c5c       ??_C@_08OBID@KERNEL32?$AA@ 00470c5c     LIBC:testfdiv.obj
 0002:00001c68       ??_C@_05OFLO@e?$CL000?$AA@ 00470c68     LIBC:cvt.obj
 0002:00001ce8       ??_C@_0BH@PHHF@__GLOBAL_HEAP_SELECTED?$AA@ 00470ce8     LIBC:heapinit.obj
 0002:00001d00       ??_C@_0BF@BBGL@__MSVCRT_HEAP_SELECT?$AA@ 00470d00     LIBC:heapinit.obj
 0002:00001d18       ___lookuptable             00470d18     LIBC:output.obj
 0002:00001d74       ??_C@_1O@POHA@?$AA?$CI?$AAn?$AAu?$AAl?$AAl?$AA?$CJ?$AA?$AA@ 00470d74     LIBC:output.obj
 0002:00001d84       ??_C@_06ONKE@?$CInull?$CJ?$AA@ 00470d84     LIBC:output.obj
 0002:00001d8c       ??_C@_03GAFO@_yn?$AA@      00470d8c     LIBC:fpexcept.obj
 0002:00001d90       ??_C@_03GNLD@_y1?$AA@      00470d90     LIBC:fpexcept.obj
 0002:00001d94       ??_C@_03MHCE@_y0?$AA@      00470d94     LIBC:fpexcept.obj
 0002:00001d98       ??_C@_05PAK@frexp?$AA@     00470d98     LIBC:fpexcept.obj
 0002:00001da0       ??_C@_04JKCH@fmod?$AA@     00470da0     LIBC:fpexcept.obj
 0002:00001da8       ??_C@_06GGHF@_hypot?$AA@   00470da8     LIBC:fpexcept.obj
 0002:00001db0       ??_C@_05JNMC@_cabs?$AA@    00470db0     LIBC:fpexcept.obj
 0002:00001db8       ??_C@_05MEKH@ldexp?$AA@    00470db8     LIBC:fpexcept.obj
 0002:00001dc0       ??_C@_04KAOJ@modf?$AA@     00470dc0     LIBC:fpexcept.obj
 0002:00001dc8       ??_C@_04EHAJ@fabs?$AA@     00470dc8     LIBC:fpexcept.obj
 0002:00001dd0       ??_C@_05MFBN@floor?$AA@    00470dd0     LIBC:fpexcept.obj
 0002:00001dd8       ??_C@_04JJMP@ceil?$AA@     00470dd8     LIBC:fpexcept.obj
 0002:00001de0       ??_C@_03JLPI@tan?$AA@      00470de0     LIBC:fpexcept.obj
 0002:00001de4       ??_C@_03DLFL@cos?$AA@      00470de4     LIBC:fpexcept.obj
 0002:00001de8       ??_C@_03JAMN@sin?$AA@      00470de8     LIBC:fpexcept.obj
 0002:00001dec       ??_C@_04LMBE@sqrt?$AA@     00470dec     LIBC:fpexcept.obj
 0002:00001df4       ??_C@_05BFPO@atan2?$AA@    00470df4     LIBC:fpexcept.obj
 0002:00001dfc       ??_C@_04EAGN@atan?$AA@     00470dfc     LIBC:fpexcept.obj
 0002:00001e04       ??_C@_04OAMO@acos?$AA@     00470e04     LIBC:fpexcept.obj
 0002:00001e0c       ??_C@_04ELFI@asin?$AA@     00470e0c     LIBC:fpexcept.obj
 0002:00001e14       ??_C@_04LFAD@tanh?$AA@     00470e14     LIBC:fpexcept.obj
 0002:00001e1c       ??_C@_04PFKD@cosh?$AA@     00470e1c     LIBC:fpexcept.obj
 0002:00001e24       ??_C@_04NPAI@sinh?$AA@     00470e24     LIBC:fpexcept.obj
 0002:00001e2c       ??_C@_05IJHH@log10?$AA@    00470e2c     LIBC:fpexcept.obj
 0002:00001e34       ??_C@_03BGKD@log?$AA@      00470e34     LIBC:fpexcept.obj
 0002:00001e38       ??_C@_03EGFG@pow?$AA@      00470e38     LIBC:fpexcept.obj
 0002:00001e3c       ??_C@_03CDGJ@exp?$AA@      00470e3c     LIBC:fpexcept.obj
 0002:00001e48       __DEFAULT_CW_in_mem        00470e48     LIBC:common.obj
 0002:00001e4a       __pi_by_2_to_61            00470e4a     LIBC:common.obj
 0002:00001e84       ??_C@_0P@GGKG@runtime?5error?5?$AA@ 00470e84     LIBC:crt0msg.obj
 0002:00001e94       ??_C@_02PIMC@?$AN?6?$AA@   00470e94     LIBC:crt0msg.obj
 0002:00001e98       ??_C@_0O@DELO@TLOSS?5error?$AN?6?$AA@ 00470e98     LIBC:crt0msg.obj
 0002:00001ea8       ??_C@_0N@OMLL@SING?5error?$AN?6?$AA@ 00470ea8     LIBC:crt0msg.obj
 0002:00001eb8       ??_C@_0P@OJAK@DOMAIN?5error?$AN?6?$AA@ 00470eb8     LIBC:crt0msg.obj
 0002:00001ec8       ??_C@_0CF@EANP@R6028?$AN?6?9?5unable?5to?5initialize?5he@ 00470ec8     LIBC:crt0msg.obj
 0002:00001ef0       ??_C@_0DF@ECGN@R6027?$AN?6?9?5not?5enough?5space?5for?5lo@ 00470ef0     LIBC:crt0msg.obj
 0002:00001f28       ??_C@_0DF@FKAC@R6026?$AN?6?9?5not?5enough?5space?5for?5st@ 00470f28     LIBC:crt0msg.obj
 0002:00001f60       ??_C@_0CG@DPMN@R6025?$AN?6?9?5pure?5virtual?5function?5c@ 00470f60     LIBC:crt0msg.obj
 0002:00001f88       ??_C@_0DF@CKIP@R6024?$AN?6?9?5not?5enough?5space?5for?5_o@ 00470f88     LIBC:crt0msg.obj
 0002:00001fc0       ??_C@_0CJ@GGOE@R6019?$AN?6?9?5unable?5to?5open?5console?5@ 00470fc0     LIBC:crt0msg.obj
 0002:00001fec       ??_C@_0CB@LBOB@R6018?$AN?6?9?5unexpected?5heap?5error?$AN?6@ 00470fec     LIBC:crt0msg.obj
 0002:00002010       ??_C@_0CN@FPEG@R6017?$AN?6?9?5unexpected?5multithread?5@ 00471010     LIBC:crt0msg.obj
 0002:00002040       ??_C@_0CM@OBIC@R6016?$AN?6?9?5not?5enough?5space?5for?5th@ 00471040     LIBC:crt0msg.obj
 0002:0000206c       ??_C@_0CB@HPAL@?$AN?6abnormal?5program?5termination?$AN?6@ 0047106c     LIBC:crt0msg.obj
 0002:00002090       ??_C@_0CM@JOOB@R6009?$AN?6?9?5not?5enough?5space?5for?5en@ 00471090     LIBC:crt0msg.obj
 0002:000020bc       ??_C@_0CK@OIBL@R6008?$AN?6?9?5not?5enough?5space?5for?5ar@ 004710bc     LIBC:crt0msg.obj
 0002:000020e8       ??_C@_0CF@LKPB@R6002?$AN?6?9?5floating?5point?5not?5load@ 004710e8     LIBC:crt0msg.obj
 0002:00002110       ??_C@_0CF@JPDF@Microsoft?5Visual?5C?$CL?$CL?5Runtime?5Lib@ 00471110     LIBC:crt0msg.obj
 0002:00002138       ??_C@_02JJJH@?6?6?$AA@     00471138     LIBC:crt0msg.obj
 0002:0000213c       ??_C@_0BK@DEOK@Runtime?5Error?$CB?6?6Program?3?5?$AA@ 0047113c     LIBC:crt0msg.obj
 0002:00002158       ??_C@_03NAME@?4?4?4?$AA@   00471158     LIBC:crt0msg.obj
 0002:0000215c       ??_C@_0BH@NNCD@?$DMprogram?5name?5unknown?$DO?$AA@ 0047115c     LIBC:crt0msg.obj
 0002:00002174       ??_C@_08OBJD@Paraguay?$AA@ 00471174     LIBC:getqloc.obj
 0002:00002180       ??_C@_07GLKH@Uruguay?$AA@  00471180     LIBC:getqloc.obj
 0002:00002188       ??_C@_05FPFC@Chile?$AA@    00471188     LIBC:getqloc.obj
 0002:00002190       ??_C@_07IIGF@Ecuador?$AA@  00471190     LIBC:getqloc.obj
 0002:00002198       ??_C@_09PKAL@Argentina?$AA@ 00471198     LIBC:getqloc.obj
 0002:000021a4       ??_C@_04LKAH@Peru?$AA@     004711a4     LIBC:getqloc.obj
 0002:000021ac       ??_C@_08NEEM@Colombia?$AA@ 004711ac     LIBC:getqloc.obj
 0002:000021b8       ??_C@_09ODEB@Venezuela?$AA@ 004711b8     LIBC:getqloc.obj
 0002:000021c4       ??_C@_0BD@CLEL@Dominican?5Republic?$AA@ 004711c4     LIBC:getqloc.obj
 0002:000021d8       ??_C@_0N@MDGL@South?5Africa?$AA@ 004711d8     LIBC:getqloc.obj
 0002:000021e8       ??_C@_06NKBG@Panama?$AA@   004711e8     LIBC:getqloc.obj
 0002:000021f0       ??_C@_0L@BMHO@Luxembourg?$AA@ 004711f0     LIBC:getqloc.obj
 0002:000021fc       ??_C@_0L@IMDK@Costa?5Rica?$AA@ 004711fc     LIBC:getqloc.obj
 0002:00002208       ??_C@_0M@BLJF@Switzerland?$AA@ 00471208     LIBC:getqloc.obj
 0002:00002214       ??_C@_09KBOL@Guatemala?$AA@ 00471214     LIBC:getqloc.obj
 0002:00002220       ??_C@_06JNAK@Canada?$AA@   00471220     LIBC:getqloc.obj
 0002:00002228       ??_C@_0BG@OLLP@Spanish?5?9?5Modern?5Sort?$AA@ 00471228     LIBC:getqloc.obj
 0002:00002240       ??_C@_09IDKE@Australia?$AA@ 00471240     LIBC:getqloc.obj
 0002:0000224c       ??_C@_07JJJJ@English?$AA@  0047124c     LIBC:getqloc.obj
 0002:00002254       ??_C@_07NMDO@Austria?$AA@  00471254     LIBC:getqloc.obj
 0002:0000225c       ??_C@_06DEFE@German?$AA@   0047125c     LIBC:getqloc.obj
 0002:00002264       ??_C@_07JAIH@Belgium?$AA@  00471264     LIBC:getqloc.obj
 0002:0000226c       ??_C@_06BNLJ@Mexico?$AA@   0047126c     LIBC:getqloc.obj
 0002:00002274       ??_C@_07JHAG@Spanish?$AA@  00471274     LIBC:getqloc.obj
 0002:0000227c       ??_C@_06DADE@Basque?$AA@   0047127c     LIBC:getqloc.obj
 0002:00002284       ??_C@_06ENFP@Sweden?$AA@   00471284     LIBC:getqloc.obj
 0002:0000228c       ??_C@_07JPMH@Swedish?$AA@  0047128c     LIBC:getqloc.obj
 0002:00002294       ??_C@_07IEKF@Iceland?$AA@  00471294     LIBC:getqloc.obj
 0002:0000229c       ??_C@_09KNEA@Icelandic?$AA@ 0047129c     LIBC:getqloc.obj
 0002:000022a8       ??_C@_06IJOD@France?$AA@   004712a8     LIBC:getqloc.obj
 0002:000022b0       ??_C@_06EINI@French?$AA@   004712b0     LIBC:getqloc.obj
 0002:000022b8       ??_C@_07FOOE@Finland?$AA@  004712b8     LIBC:getqloc.obj
 0002:000022c0       ??_C@_07OJOM@Finnish?$AA@  004712c0     LIBC:getqloc.obj
 0002:000022c8       ??_C@_05FFAC@Spain?$AA@    004712c8     LIBC:getqloc.obj
 0002:000022d0       ??_C@_0BL@BIHM@Spanish?5?9?5Traditional?5Sort?$AA@ 004712d0     LIBC:getqloc.obj
 0002:000022ec       ??_C@_0O@GLHB@united?9states?$AA@ 004712ec     LIBC:getqloc.obj
 0002:000022fc       ??_C@_0P@IIKK@united?9kingdom?$AA@ 004712fc     LIBC:getqloc.obj
 0002:0000230c       ??_C@_0BC@FHBO@trinidad?5?$CG?5tobago?$AA@ 0047130c     LIBC:getqloc.obj
 0002:00002320       ??_C@_0M@BDFM@south?9korea?$AA@ 00471320     LIBC:getqloc.obj
 0002:0000232c       ??_C@_0N@CKFA@south?9africa?$AA@ 0047132c     LIBC:getqloc.obj
 0002:0000233c       ??_C@_0M@HNHN@south?5korea?$AA@ 0047133c     LIBC:getqloc.obj
 0002:00002348       ??_C@_0N@MKDO@south?5africa?$AA@ 00471348     LIBC:getqloc.obj
 0002:00002358       ??_C@_06KFFJ@slovak?$AA@   00471358     LIBC:getqloc.obj
 0002:00002360       ??_C@_0M@NMAC@puerto?9rico?$AA@ 00471360     LIBC:getqloc.obj
 0002:0000236c       ??_C@_08EJOH@pr?9china?$AA@ 0047136c     LIBC:getqloc.obj
 0002:00002378       ??_C@_08CHMG@pr?5china?$AA@ 00471378     LIBC:getqloc.obj
 0002:00002384       ??_C@_02OCJK@nz?$AA@       00471384     LIBC:getqloc.obj
 0002:00002388       ??_C@_0M@MMKA@new?9zealand?$AA@ 00471388     LIBC:getqloc.obj
 0002:00002394       ??_C@_09MGEH@hong?9kong?$AA@ 00471394     LIBC:getqloc.obj
 0002:000023a0       ??_C@_07CCAK@holland?$AA@  004713a0     LIBC:getqloc.obj
 0002:000023a8       ??_C@_0O@MEPL@great?5britain?$AA@ 004713a8     LIBC:getqloc.obj
 0002:000023b8       ??_C@_07LGIB@england?$AA@  004713b8     LIBC:getqloc.obj
 0002:000023c0       ??_C@_05BMOA@czech?$AA@    004713c0     LIBC:getqloc.obj
 0002:000023c8       ??_C@_05NMPB@china?$AA@    004713c8     LIBC:getqloc.obj
 0002:000023d0       ??_C@_07GN@britain?$AA@    004713d0     LIBC:getqloc.obj
 0002:000023d8       ??_C@_07DLAK@america?$AA@  004713d8     LIBC:getqloc.obj
 0002:000023e0       ??_C@_03IPEP@usa?$AA@      004713e0     LIBC:getqloc.obj
 0002:000023e4       ??_C@_02PILH@us?$AA@       004713e4     LIBC:getqloc.obj
 0002:000023e8       ??_C@_02FHP@uk?$AA@        004713e8     LIBC:getqloc.obj
 0002:000023ec       ??_C@_05DEAI@swiss?$AA@    004713ec     LIBC:getqloc.obj
 0002:000023f4       ??_C@_0BA@LIAF@swedish?9finland?$AA@ 004713f4     LIBC:getqloc.obj
 0002:00002404       ??_C@_0BC@FMEG@spanish?9venezuela?$AA@ 00471404     LIBC:getqloc.obj
 0002:00002418       ??_C@_0BA@BNMG@spanish?9uruguay?$AA@ 00471418     LIBC:getqloc.obj
 0002:00002428       ??_C@_0BE@BKDJ@spanish?9puerto?5rico?$AA@ 00471428     LIBC:getqloc.obj
 0002:0000243c       ??_C@_0N@JIBL@spanish?9peru?$AA@ 0047143c     LIBC:getqloc.obj
 0002:0000244c       ??_C@_0BB@OGOF@spanish?9paraguay?$AA@ 0047144c     LIBC:getqloc.obj
 0002:00002460       ??_C@_0P@LLFA@spanish?9panama?$AA@ 00471460     LIBC:getqloc.obj
 0002:00002470       ??_C@_0BC@BBJM@spanish?9nicaragua?$AA@ 00471470     LIBC:getqloc.obj
 0002:00002484       ??_C@_0P@NJBN@spanish?9modern?$AA@ 00471484     LIBC:getqloc.obj
 0002:00002494       ??_C@_0BA@NHDN@spanish?9mexican?$AA@ 00471494     LIBC:getqloc.obj
 0002:000024a4       ??_C@_0BB@JHOJ@spanish?9honduras?$AA@ 004714a4     LIBC:getqloc.obj
 0002:000024b8       ??_C@_0BC@BOOM@spanish?9guatemala?$AA@ 004714b8     LIBC:getqloc.obj
 0002:000024cc       ??_C@_0BE@EELI@spanish?9el?5salvador?$AA@ 004714cc     LIBC:getqloc.obj
 0002:000024e0       ??_C@_0BA@POAE@spanish?9ecuador?$AA@ 004714e0     LIBC:getqloc.obj
 0002:000024f0       ??_C@_0BL@LDKN@spanish?9dominican?5republic?$AA@ 004714f0     LIBC:getqloc.obj
 0002:0000250c       ??_C@_0BD@HPMH@spanish?9costa?5rica?$AA@ 0047150c     LIBC:getqloc.obj
 0002:00002520       ??_C@_0BB@NDDK@spanish?9colombia?$AA@ 00471520     LIBC:getqloc.obj
 0002:00002534       ??_C@_0O@BJHA@spanish?9chile?$AA@ 00471534     LIBC:getqloc.obj
 0002:00002544       ??_C@_0BA@OBNG@spanish?9bolivia?$AA@ 00471544     LIBC:getqloc.obj
 0002:00002554       ??_C@_0BC@EFAM@spanish?9argentina?$AA@ 00471554     LIBC:getqloc.obj
 0002:00002568       ??_C@_0BF@KMMM@portuguese?9brazilian?$AA@ 00471568     LIBC:getqloc.obj
 0002:00002580       ??_C@_0BC@BAAE@norwegian?9nynorsk?$AA@ 00471580     LIBC:getqloc.obj
 0002:00002594       ??_C@_0BB@PBHK@norwegian?9bokmal?$AA@ 00471594     LIBC:getqloc.obj
 0002:000025a8       ??_C@_09EHKL@norwegian?$AA@ 004715a8     LIBC:getqloc.obj
 0002:000025b4       ??_C@_0O@BEAN@italian?9swiss?$AA@ 004715b4     LIBC:getqloc.obj
 0002:000025c4       ??_C@_0O@OIFK@irish?9english?$AA@ 004715c4     LIBC:getqloc.obj
 0002:000025d4       ??_C@_0N@NBPL@german?9swiss?$AA@ 004715d4     LIBC:getqloc.obj
 0002:000025e4       ??_C@_0BC@ICFJ@german?9luxembourg?$AA@ 004715e4     LIBC:getqloc.obj
 0002:000025f8       ??_C@_0BE@GGPC@german?9lichtenstein?$AA@ 004715f8     LIBC:getqloc.obj
 0002:0000260c       ??_C@_0BA@MKDC@german?9austrian?$AA@ 0047160c     LIBC:getqloc.obj
 0002:0000261c       ??_C@_0N@ODNB@french?9swiss?$AA@ 0047161c     LIBC:getqloc.obj
 0002:0000262c       ??_C@_0BC@MGCM@french?9luxembourg?$AA@ 0047162c     LIBC:getqloc.obj
 0002:00002640       ??_C@_0BA@NABK@french?9canadian?$AA@ 00471640     LIBC:getqloc.obj
 0002:00002650       ??_C@_0P@CJNO@french?9belgian?$AA@ 00471650     LIBC:getqloc.obj
 0002:00002660       ??_C@_0M@LJOL@english?9usa?$AA@ 00471660     LIBC:getqloc.obj
 0002:0000266c       ??_C@_0L@FMNC@english?9us?$AA@ 0047166c     LIBC:getqloc.obj
 0002:00002678       ??_C@_0L@KBBK@english?9uk?$AA@ 00471678     LIBC:getqloc.obj
 0002:00002684       ??_C@_0BK@NDDE@english?9trinidad?5y?5tobago?$AA@ 00471684     LIBC:getqloc.obj
 0002:000026a0       ??_C@_0BF@LKML@english?9south?5africa?$AA@ 004716a0     LIBC:getqloc.obj
 0002:000026b8       ??_C@_0L@EGPP@english?9nz?$AA@ 004716b8     LIBC:getqloc.obj
 0002:000026c4       ??_C@_0BA@HLH@english?9jamaica?$AA@ 004716c4     LIBC:getqloc.obj
 0002:000026d4       ??_C@_0M@PMJI@english?9ire?$AA@ 004716d4     LIBC:getqloc.obj
 0002:000026e0       ??_C@_0BC@HINE@english?9caribbean?$AA@ 004716e0     LIBC:getqloc.obj
 0002:000026f4       ??_C@_0M@DCFH@english?9can?$AA@ 004716f4     LIBC:getqloc.obj
 0002:00002700       ??_C@_0P@DGHK@english?9belize?$AA@ 00471700     LIBC:getqloc.obj
 0002:00002710       ??_C@_0M@FLHK@english?9aus?$AA@ 00471710     LIBC:getqloc.obj
 0002:0000271c       ??_C@_0BB@HNCK@english?9american?$AA@ 0047171c     LIBC:getqloc.obj
 0002:00002730       ??_C@_0O@PAMI@dutch?9belgian?$AA@ 00471730     LIBC:getqloc.obj
 0002:00002740       ??_C@_0BE@FPEJ@chinese?9traditional?$AA@ 00471740     LIBC:getqloc.obj
 0002:00002754       ??_C@_0BC@CHFL@chinese?9singapore?$AA@ 00471754     LIBC:getqloc.obj
 0002:00002768       ??_C@_0BD@DCMH@chinese?9simplified?$AA@ 00471768     LIBC:getqloc.obj
 0002:0000277c       ??_C@_0BB@JMOE@chinese?9hongkong?$AA@ 0047177c     LIBC:getqloc.obj
 0002:00002790       ??_C@_07NGFN@chinese?$AA@  00471790     LIBC:getqloc.obj
 0002:00002798       ??_C@_03PCOI@chi?$AA@      00471798     LIBC:getqloc.obj
 0002:0000279c       ??_C@_03FIHP@chh?$AA@      0047179c     LIBC:getqloc.obj
 0002:000027a0       ??_C@_08HFLO@canadian?$AA@ 004717a0     LIBC:getqloc.obj
 0002:000027ac       ??_C@_07INIJ@belgian?$AA@  004717ac     LIBC:getqloc.obj
 0002:000027b4       ??_C@_0L@LCCA@australian?$AA@ 004717b4     LIBC:getqloc.obj
 0002:000027c0       ??_C@_0BB@BJIO@american?9english?$AA@ 004717c0     LIBC:getqloc.obj
 0002:000027d4       ??_C@_0BB@DAGO@american?5english?$AA@ 004717d4     LIBC:getqloc.obj
 0002:000027e8       ??_C@_08HENB@american?$AA@ 004717e8     LIBC:getqloc.obj
 0002:000027f4       ??_C@_03DGJE@OCP?$AA@      004717f4     LIBC:getqloc.obj
 0002:000027f8       ??_C@_03EKFG@ACP?$AA@      004717f8     LIBC:getqloc.obj
 0002:0000280c       ___dnames                  0047180c     LIBC:timeset.obj
 0002:00002824       ___mnames                  00471824     LIBC:timeset.obj
 0002:0000284c       ??_C@_02JHIA@TZ?$AA@       0047184c     LIBC:tzset.obj
 0002:00002850       ??_C@_0BD@NJFP@GetLastActivePopup?$AA@ 00471850     LIBC:crtmbox.obj
 0002:00002864       ??_C@_0BA@GILI@GetActiveWindow?$AA@ 00471864     LIBC:crtmbox.obj
 0002:00002874       ??_C@_0M@PKCK@MessageBoxA?$AA@ 00471874     LIBC:crtmbox.obj
 0002:00002880       ??_C@_0L@HKL@user32?4dll?$AA@ 00471880     LIBC:crtmbox.obj
 0002:000028a8       ??_C@_06PAPI@1?$CDQNAN?$AA@ 004718a8     LIBC:x10fout.obj
 0002:000028b0       ??_C@_05BGNL@1?$CDINF?$AA@ 004718b0     LIBC:x10fout.obj
 0002:000028b8       ??_C@_05EDPF@1?$CDIND?$AA@ 004718b8     LIBC:x10fout.obj
 0002:000028c0       ??_C@_06LKFM@1?$CDSNAN?$AA@ 004718c0     LIBC:x10fout.obj
 0002:000028e4       ?basefield@ios@@2JB        004718e4     libci:_ios.obj
 0002:000028e8       ?adjustfield@ios@@2JB      004718e8     libci:_ios.obj
 0002:000028ec       ?floatfield@ios@@2JB       004718ec     libci:_ios.obj
 0002:000028f4       ??_7ios@@6B@               004718f4     libci:_ios.obj
 0002:000028fc       ??_7ifstream@@6B@          004718fc     libci:ifstream.obj
 0002:00002900       ??_8ifstream@@7B@          00471900     libci:ifstream.obj
 0002:00002908       ?openprot@filebuf@@2HB     00471908     libci:filebuf.obj
 0002:0000290c       ?sh_none@filebuf@@2HB      0047190c     libci:filebuf.obj
 0002:00002910       ?sh_read@filebuf@@2HB      00471910     libci:filebuf.obj
 0002:00002914       ?sh_write@filebuf@@2HB     00471914     libci:filebuf.obj
 0002:00002918       ?binary@filebuf@@2HB       00471918     libci:filebuf.obj
 0002:0000291c       ?text@filebuf@@2HB         0047191c     libci:filebuf.obj
 0002:00002924       ??_7filebuf@@6B@           00471924     libci:filebuf.obj
 0002:00002954       ??_7istream@@6B@           00471954     libci:istream.obj
 0002:00002958       ??_8istream@@7B@           00471958     libci:istream.obj
 0002:00002964       ??_7istream_withassign@@6B@ 00471964     libci:istream.obj
 0002:00002968       ??_8istream_withassign@@7B@ 00471968     libci:istream.obj
 0002:00002974       ??_7streambuf@@6B@         00471974     libci:streamb.obj
 0002:000029a4       ??_7ostream@@6B@           004719a4     libci:ostream.obj
 0002:000029a8       ??_8ostream@@7B@           004719a8     libci:ostream.obj
 0002:000029b4       ??_7ostream_withassign@@6B@ 004719b4     libci:ostream.obj
 0002:000029b8       ??_8ostream_withassign@@7B@ 004719b8     libci:ostream.obj
 0002:000029c0       ??_R1A@?0A@A@C3DOParser@@8 004719c0     3DOParser.obj
 0002:000029d8       ??_R2C3DOParser@@8         004719d8     3DOParser.obj
 0002:000029e0       ??_R3C3DOParser@@8         004719e0     3DOParser.obj
 0002:000029f0       ??_R4C3DOParser@@6B@       004719f0     3DOParser.obj
 0002:00002a08       ??_R1A@?0A@A@CBitmap@@8    00471a08     Bitmap.obj
 0002:00002a20       ??_R2CBitmap@@8            00471a20     Bitmap.obj
 0002:00002a28       ??_R3CBitmap@@8            00471a28     Bitmap.obj
 0002:00002a38       ??_R4CBitmap@@6B@          00471a38     Bitmap.obj
 0002:00002a50       ??_R2?$basic_ostream@DU?$char_traits@D@std@@@std@@8 00471a50     Bitmap.obj
 0002:00002a60       ??_R3?$basic_ostream@DU?$char_traits@D@std@@@std@@8 00471a60     Bitmap.obj
 0002:00002a70       ??_R4?$basic_ostream@DU?$char_traits@D@std@@@std@@6B@ 00471a70     Bitmap.obj
 0002:00002a88       ??_R1A@?0A@A@ios_base@std@@8 00471a88     Bitmap.obj
 0002:00002aa0       ??_R1A@?0A@A@?$basic_ios@DU?$char_traits@D@std@@@std@@8 00471aa0     Bitmap.obj
 0002:00002ab8       ??_R2?$basic_ios@DU?$char_traits@D@std@@@std@@8 00471ab8     Bitmap.obj
 0002:00002ac8       ??_R3?$basic_ios@DU?$char_traits@D@std@@@std@@8 00471ac8     Bitmap.obj
 0002:00002ad8       ??_R4?$basic_ios@DU?$char_traits@D@std@@@std@@6B@ 00471ad8     Bitmap.obj
 0002:00002af0       ??_R1A@A@3A@ios_base@std@@8 00471af0     Bitmap.obj
 0002:00002b08       ??_R1A@A@3BA@?$basic_ios@DU?$char_traits@D@std@@@std@@8 00471b08     Bitmap.obj
 0002:00002b20       ??_R1A@?0A@A@?$basic_ostream@DU?$char_traits@D@std@@@std@@8 00471b20     Bitmap.obj
 0002:00002b38       ??_R1A@?0A@A@?$basic_ofstream@DU?$char_traits@D@std@@@std@@8 00471b38     Bitmap.obj
 0002:00002b50       ??_R2?$basic_ofstream@DU?$char_traits@D@std@@@std@@8 00471b50     Bitmap.obj
 0002:00002b68       ??_R3?$basic_ofstream@DU?$char_traits@D@std@@@std@@8 00471b68     Bitmap.obj
 0002:00002b78       ??_R4?$basic_ofstream@DU?$char_traits@D@std@@@std@@6B@ 00471b78     Bitmap.obj
 0002:00002b90       ??_R1A@?0A@A@?$basic_streambuf@DU?$char_traits@D@std@@@std@@8 00471b90     Bitmap.obj
 0002:00002ba8       ??_R1A@?0A@A@?$basic_filebuf@DU?$char_traits@D@std@@@std@@8 00471ba8     Bitmap.obj
 0002:00002bc0       ??_R2?$basic_filebuf@DU?$char_traits@D@std@@@std@@8 00471bc0     Bitmap.obj
 0002:00002bd0       ??_R3?$basic_filebuf@DU?$char_traits@D@std@@@std@@8 00471bd0     Bitmap.obj
 0002:00002be0       ??_R4?$basic_filebuf@DU?$char_traits@D@std@@@std@@6B@ 00471be0     Bitmap.obj
 0002:00002bf4       ??_R2?$basic_streambuf@DU?$char_traits@D@std@@@std@@8 00471bf4     Bitmap.obj
 0002:00002c00       ??_R3?$basic_streambuf@DU?$char_traits@D@std@@@std@@8 00471c00     Bitmap.obj
 0002:00002c10       ??_R4?$basic_streambuf@DU?$char_traits@D@std@@@std@@6B@ 00471c10     Bitmap.obj
 0002:00002c24       ??_R2ios_base@std@@8       00471c24     Bitmap.obj
 0002:00002c30       ??_R3ios_base@std@@8       00471c30     Bitmap.obj
 0002:00002c40       ??_R4ios_base@std@@6B@     00471c40     Bitmap.obj
 0002:00002c58       ??_R1A@?0A@A@exception@@8  00471c58     Bitmap.obj
 0002:00002c70       ??_R1A@?0A@A@bad_cast@std@@8 00471c70     Bitmap.obj
 0002:00002c88       ??_R2bad_cast@std@@8       00471c88     Bitmap.obj
 0002:00002c98       ??_R3bad_cast@std@@8       00471c98     Bitmap.obj
 0002:00002ca8       ??_R4bad_cast@std@@6B@     00471ca8     Bitmap.obj
 0002:00002cc0       ??_R1A@?0A@A@facet@locale@std@@8 00471cc0     Bitmap.obj
 0002:00002cd8       ??_R1A@?0A@A@codecvt_base@std@@8 00471cd8     Bitmap.obj
 0002:00002cf0       ??_R1A@?0A@A@?$codecvt@DDH@std@@8 00471cf0     Bitmap.obj
 0002:00002d08       ??_R2?$codecvt@DDH@std@@8  00471d08     Bitmap.obj
 0002:00002d18       ??_R3?$codecvt@DDH@std@@8  00471d18     Bitmap.obj
 0002:00002d28       ??_R4?$codecvt@DDH@std@@6B@ 00471d28     Bitmap.obj
 0002:00002d3c       ??_R2facet@locale@std@@8   00471d3c     Bitmap.obj
 0002:00002d48       ??_R3facet@locale@std@@8   00471d48     Bitmap.obj
 0002:00002d58       ??_R4facet@locale@std@@6B@ 00471d58     Bitmap.obj
 0002:00002d70       ??_R1A@?0A@A@CCamera@@8    00471d70     Camera.obj
 0002:00002d88       ??_R2CCamera@@8            00471d88     Camera.obj
 0002:00002d90       ??_R3CCamera@@8            00471d90     Camera.obj
 0002:00002da0       ??_R4CCamera@@6B@          00471da0     Camera.obj
 0002:00002db8       ??_R1A@?0A@A@CDrawUI@@8    00471db8     DrawUI.obj
 0002:00002dd0       ??_R2CDrawUI@@8            00471dd0     DrawUI.obj
 0002:00002dd8       ??_R3CDrawUI@@8            00471dd8     DrawUI.obj
 0002:00002de8       ??_R4CDrawUI@@6B@          00471de8     DrawUI.obj
 0002:00002e00       ??_R1A@?0A@A@CDrawWater@@8 00471e00     DrawWater.obj
 0002:00002e18       ??_R2CDrawWater@@8         00471e18     DrawWater.obj
 0002:00002e20       ??_R3CDrawWater@@8         00471e20     DrawWater.obj
 0002:00002e30       ??_R4CDrawWater@@6B@       00471e30     DrawWater.obj
 0002:00002e48       ??_R1A@?0A@A@CFeatureHandler@@8 00471e48     FeatureHandler.obj
 0002:00002e60       ??_R2CFeatureHandler@@8    00471e60     FeatureHandler.obj
 0002:00002e68       ??_R3CFeatureHandler@@8    00471e68     FeatureHandler.obj
 0002:00002e78       ??_R4CFeatureHandler@@6B@  00471e78     FeatureHandler.obj
 0002:00002e90       ??_R1A@?0A@A@CGame@@8      00471e90     Game.obj
 0002:00002ea8       ??_R2CGame@@8              00471ea8     Game.obj
 0002:00002eb0       ??_R3CGame@@8              00471eb0     Game.obj
 0002:00002ec0       ??_R4CGame@@6B@            00471ec0     Game.obj
 0002:00002ed8       ??_R1A@?0A@A@?$basic_ifstream@DU?$char_traits@D@std@@@std@@8 00471ed8     Game.obj
 0002:00002ef0       ??_R2?$basic_ifstream@DU?$char_traits@D@std@@@std@@8 00471ef0     Game.obj
 0002:00002f08       ??_R3?$basic_ifstream@DU?$char_traits@D@std@@@std@@8 00471f08     Game.obj
 0002:00002f18       ??_R4?$basic_ifstream@DU?$char_traits@D@std@@@std@@6B@ 00471f18     Game.obj
 0002:00002f30       ??_R1A@?0A@A@?$basic_istream@DU?$char_traits@D@std@@@std@@8 00471f30     Game.obj
 0002:00002f48       ??_R2?$basic_istream@DU?$char_traits@D@std@@@std@@8 00471f48     Game.obj
 0002:00002f58       ??_R3?$basic_istream@DU?$char_traits@D@std@@@std@@8 00471f58     Game.obj
 0002:00002f68       ??_R4?$basic_istream@DU?$char_traits@D@std@@@std@@6B@ 00471f68     Game.obj
 0002:00002f80       ??_R1A@?0A@A@CglFont@@8    00471f80     glFont.obj
 0002:00002f98       ??_R2CglFont@@8            00471f98     glFont.obj
 0002:00002fa0       ??_R3CglFont@@8            00471fa0     glFont.obj
 0002:00002fb0       ??_R4CglFont@@6B@          00471fb0     glFont.obj
 0002:00002fc8       ??_R1A@?0A@A@ctype_base@std@@8 00471fc8     glFont.obj
 0002:00002fe0       ??_R1A@?0A@A@?$ctype@D@std@@8 00471fe0     glFont.obj
 0002:00002ff8       ??_R2?$ctype@D@std@@8      00471ff8     glFont.obj
 0002:00003008       ??_R3?$ctype@D@std@@8      00472008     glFont.obj
 0002:00003018       ??_R4?$ctype@D@std@@6B@    00472018     glFont.obj
 0002:00003030       ??_R1A@?0A@A@CglList@@8    00472030     glList.obj
 0002:00003048       ??_R2CglList@@8            00472048     glList.obj
 0002:00003050       ??_R3CglList@@8            00472050     glList.obj
 0002:00003060       ??_R4CglList@@6B@          00472060     glList.obj
 0002:00003078       ??_R1A@?0A@A@CGlobalStuff@@8 00472078     GlobalStuff.obj
 0002:00003090       ??_R2CGlobalStuff@@8       00472090     GlobalStuff.obj
 0002:00003098       ??_R3CGlobalStuff@@8       00472098     GlobalStuff.obj
 0002:000030a8       ??_R4CGlobalStuff@@6B@     004720a8     GlobalStuff.obj
 0002:000030c0       ??_R1A@?0A@A@CGround@@8    004720c0     Ground.obj
 0002:000030d8       ??_R2CGround@@8            004720d8     Ground.obj
 0002:000030e0       ??_R3CGround@@8            004720e0     Ground.obj
 0002:000030f0       ??_R4CGround@@6B@          004720f0     Ground.obj
 0002:00003108       ??_R1A@?0A@A@CGroundDrawer@@8 00472108     GroundDrawer.obj
 0002:00003120       ??_R2CGroundDrawer@@8      00472120     GroundDrawer.obj
 0002:00003128       ??_R3CGroundDrawer@@8      00472128     GroundDrawer.obj
 0002:00003138       ??_R4CGroundDrawer@@6B@    00472138     GroundDrawer.obj
 0002:00003150       ??_R1A@?0A@A@CGuiKeyReader@@8 00472150     GuiKeyReader.obj
 0002:00003168       ??_R2CGuiKeyReader@@8      00472168     GuiKeyReader.obj
 0002:00003170       ??_R3CGuiKeyReader@@8      00472170     GuiKeyReader.obj
 0002:00003180       ??_R4CGuiKeyReader@@6B@    00472180     GuiKeyReader.obj
 0002:00003198       ??_R1A@?0A@A@CHpiHandler@@8 00472198     HpiHandler.obj
 0002:000031b0       ??_R2CHpiHandler@@8        004721b0     HpiHandler.obj
 0002:000031b8       ??_R3CHpiHandler@@8        004721b8     HpiHandler.obj
 0002:000031c8       ??_R4CHpiHandler@@6B@      004721c8     HpiHandler.obj
 0002:000031e0       ??_R1A@?0A@A@CInfoConsole@@8 004721e0     InfoConsole.obj
 0002:000031f8       ??_R2CInfoConsole@@8       004721f8     InfoConsole.obj
 0002:00003200       ??_R3CInfoConsole@@8       00472200     InfoConsole.obj
 0002:00003210       ??_R4CInfoConsole@@6B@     00472210     InfoConsole.obj
 0002:00003228       ??_R1A@?0A@A@CMiniMap@@8   00472228     MiniMap.obj
 0002:00003240       ??_R2CMiniMap@@8           00472240     MiniMap.obj
 0002:00003248       ??_R3CMiniMap@@8           00472248     MiniMap.obj
 0002:00003258       ??_R4CMiniMap@@6B@         00472258     MiniMap.obj
 0002:00003270       ??_R1A@?0A@A@CMouseHandler@@8 00472270     MouseHandler.obj
 0002:00003288       ??_R2CMouseHandler@@8      00472288     MouseHandler.obj
 0002:00003290       ??_R3CMouseHandler@@8      00472290     MouseHandler.obj
 0002:000032a0       ??_R4CMouseHandler@@6B@    004722a0     MouseHandler.obj
 0002:000032b8       ??_R1A@?0A@A@CObject@@8    004722b8     Object.obj
 0002:000032d0       ??_R2CObject@@8            004722d0     Object.obj
 0002:000032d8       ??_R3CObject@@8            004722d8     Object.obj
 0002:000032e8       ??_R4CObject@@6B@          004722e8     Object.obj
 0002:00003300       ??_R1A@?0A@A@CProjectileHandler@@8 00472300     ProjectileHandler.obj
 0002:00003318       ??_R2CProjectileHandler@@8 00472318     ProjectileHandler.obj
 0002:00003320       ??_R3CProjectileHandler@@8 00472320     ProjectileHandler.obj
 0002:00003330       ??_R4CProjectileHandler@@6B@ 00472330     ProjectileHandler.obj
 0002:00003348       ??_R1A@?0A@A@CReadMap@@8   00472348     ReadMap.obj
 0002:00003360       ??_R2CReadMap@@8           00472360     ReadMap.obj
 0002:00003368       ??_R3CReadMap@@8           00472368     ReadMap.obj
 0002:00003378       ??_R4CReadMap@@6B@         00472378     ReadMap.obj
 0002:00003390       ??_R1A@?0A@A@RegHandler@@8 00472390     RegHandler.obj
 0002:000033a8       ??_R2RegHandler@@8         004723a8     RegHandler.obj
 0002:000033b0       ??_R3RegHandler@@8         004723b0     RegHandler.obj
 0002:000033c0       ??_R4RegHandler@@6B@       004723c0     RegHandler.obj
 0002:000033d8       ??_R1A@?0A@A@CSky@@8       004723d8     Sky.obj
 0002:000033f0       ??_R2CSky@@8               004723f0     Sky.obj
 0002:000033f8       ??_R3CSky@@8               004723f8     Sky.obj
 0002:00003408       ??_R4CSky@@6B@             00472408     Sky.obj
 0002:00003420       ??_R1A@?0A@A@CTAPalette@@8 00472420     TAPalette.obj
 0002:00003438       ??_R2CTAPalette@@8         00472438     TAPalette.obj
 0002:00003440       ??_R3CTAPalette@@8         00472440     TAPalette.obj
 0002:00003450       ??_R4CTAPalette@@6B@       00472450     TAPalette.obj
 0002:00003468       ??_R1A@?0A@A@CTextureHandler@@8 00472468     TextureHandler.obj
 0002:00003480       ??_R2CTextureHandler@@8    00472480     TextureHandler.obj
 0002:00003488       ??_R3CTextureHandler@@8    00472488     TextureHandler.obj
 0002:00003498       ??_R4CTextureHandler@@6B@  00472498     TextureHandler.obj
 0002:000034b0       ??_R1A@?0A@A@CTimeProfiler@@8 004724b0     TimeProfiler.obj
 0002:000034c8       ??_R2CTimeProfiler@@8      004724c8     TimeProfiler.obj
 0002:000034d0       ??_R3CTimeProfiler@@8      004724d0     TimeProfiler.obj
 0002:000034e0       ??_R4CTimeProfiler@@6B@    004724e0     TimeProfiler.obj
 0002:000034f8       ??_R1A@?0A@A@CTreeDrawer@@8 004724f8     TreeDrawer.obj
 0002:00003510       ??_R2CTreeDrawer@@8        00472510     TreeDrawer.obj
 0002:00003518       ??_R3CTreeDrawer@@8        00472518     TreeDrawer.obj
 0002:00003528       ??_R4CTreeDrawer@@6B@      00472528     TreeDrawer.obj
 0002:00003540       ??_R1A@?0A@A@CUnitDrawer@@8 00472540     UnitDrawer.obj
 0002:00003558       ??_R2CUnitDrawer@@8        00472558     UnitDrawer.obj
 0002:00003560       ??_R3CUnitDrawer@@8        00472560     UnitDrawer.obj
 0002:00003570       ??_R4CUnitDrawer@@6B@      00472570     UnitDrawer.obj
 0002:00003588       ??_R1A@?0A@A@CVertexArray@@8 00472588     VertexArray.obj
 0002:000035a0       ??_R2CVertexArray@@8       004725a0     VertexArray.obj
 0002:000035a8       ??_R3CVertexArray@@8       004725a8     VertexArray.obj
 0002:000035b8       ??_R4CVertexArray@@6B@     004725b8     VertexArray.obj
 0002:000035d0       ??_R1A@?0A@A@CVertexArrayRange@@8 004725d0     VertexArrayRange.obj
 0002:000035e8       ??_R2CVertexArrayRange@@8  004725e8     VertexArrayRange.obj
 0002:000035f8       ??_R3CVertexArrayRange@@8  004725f8     VertexArrayRange.obj
 0002:00003608       ??_R4CVertexArrayRange@@6B@ 00472608     VertexArrayRange.obj
 0002:00003620       ??_R1A@?0A@A@logic_error@std@@8 00472620     libcp:string.obj
 0002:00003638       ??_R1A@?0A@A@length_error@std@@8 00472638     libcp:string.obj
 0002:00003650       ??_R2length_error@std@@8   00472650     libcp:string.obj
 0002:00003660       ??_R3length_error@std@@8   00472660     libcp:string.obj
 0002:00003670       ??_R4length_error@std@@6B@ 00472670     libcp:string.obj
 0002:00003688       ??_R2logic_error@std@@8    00472688     libcp:string.obj
 0002:00003698       ??_R3logic_error@std@@8    00472698     libcp:string.obj
 0002:000036a8       ??_R4logic_error@std@@6B@  004726a8     libcp:string.obj
 0002:000036c0       ??_R1A@?0A@A@out_of_range@std@@8 004726c0     libcp:string.obj
 0002:000036d8       ??_R2out_of_range@std@@8   004726d8     libcp:string.obj
 0002:000036e8       ??_R3out_of_range@std@@8   004726e8     libcp:string.obj
 0002:000036f8       ??_R4out_of_range@std@@6B@ 004726f8     libcp:string.obj
 0002:00003710       ??_R1A@A@3BA@?$basic_ios@GU?$char_traits@G@std@@@std@@8 00472710     libcp:wiostrea.obj
 0002:00003728       ??_R1A@?0A@A@?$basic_istream@GU?$char_traits@G@std@@@std@@8 00472728     libcp:wiostrea.obj
 0002:00003740       ??_R2?$basic_istream@GU?$char_traits@G@std@@@std@@8 00472740     libcp:wiostrea.obj
 0002:00003750       ??_R3?$basic_istream@GU?$char_traits@G@std@@@std@@8 00472750     libcp:wiostrea.obj
 0002:00003760       ??_R4?$basic_istream@GU?$char_traits@G@std@@@std@@6B@ 00472760     libcp:wiostrea.obj
 0002:00003778       ??_R1A@?0A@A@?$basic_ostream@GU?$char_traits@G@std@@@std@@8 00472778     libcp:wiostrea.obj
 0002:00003790       ??_R2?$basic_ostream@GU?$char_traits@G@std@@@std@@8 00472790     libcp:wiostrea.obj
 0002:000037a0       ??_R3?$basic_ostream@GU?$char_traits@G@std@@@std@@8 004727a0     libcp:wiostrea.obj
 0002:000037b0       ??_R4?$basic_ostream@GU?$char_traits@G@std@@@std@@6B@ 004727b0     libcp:wiostrea.obj
 0002:000037c8       ??_R1A@?0A@A@?$basic_ios@GU?$char_traits@G@std@@@std@@8 004727c8     libcp:wiostrea.obj
 0002:000037e0       ??_R2?$basic_ios@GU?$char_traits@G@std@@@std@@8 004727e0     libcp:wiostrea.obj
 0002:000037f0       ??_R3?$basic_ios@GU?$char_traits@G@std@@@std@@8 004727f0     libcp:wiostrea.obj
 0002:00003800       ??_R4?$basic_ios@GU?$char_traits@G@std@@@std@@6B@ 00472800     libcp:wiostrea.obj
 0002:00003818       ??_R1A@?0A@A@?$basic_filebuf@GU?$char_traits@G@std@@@std@@8 00472818     libcp:wiostrea.obj
 0002:00003830       ??_R2?$basic_filebuf@GU?$char_traits@G@std@@@std@@8 00472830     libcp:wiostrea.obj
 0002:00003840       ??_R3?$basic_filebuf@GU?$char_traits@G@std@@@std@@8 00472840     libcp:wiostrea.obj
 0002:00003850       ??_R4?$basic_filebuf@GU?$char_traits@G@std@@@std@@6B@ 00472850     libcp:wiostrea.obj
 0002:00003868       ??_R1A@?0A@A@?$basic_streambuf@GU?$char_traits@G@std@@@std@@8 00472868     libcp:wiostrea.obj
 0002:00003880       ??_R2?$basic_streambuf@GU?$char_traits@G@std@@@std@@8 00472880     libcp:wiostrea.obj
 0002:00003888       ??_R3?$basic_streambuf@GU?$char_traits@G@std@@@std@@8 00472888     libcp:wiostrea.obj
 0002:00003898       ??_R4?$basic_streambuf@GU?$char_traits@G@std@@@std@@6B@ 00472898     libcp:wiostrea.obj
 0002:000038b0       ??_R1A@?0A@A@runtime_error@std@@8 004728b0     libcp:ios.obj
 0002:000038c8       ??_R1A@?0A@A@failure@ios_base@std@@8 004728c8     libcp:ios.obj
 0002:000038e0       ??_R2failure@ios_base@std@@8 004728e0     libcp:ios.obj
 0002:000038f0       ??_R3failure@ios_base@std@@8 004728f0     libcp:ios.obj
 0002:00003900       ??_R4failure@ios_base@std@@6B@ 00472900     libcp:ios.obj
 0002:00003918       ??_R2runtime_error@std@@8  00472918     libcp:ios.obj
 0002:00003928       ??_R3runtime_error@std@@8  00472928     libcp:ios.obj
 0002:00003938       ??_R4runtime_error@std@@6B@ 00472938     libcp:ios.obj
 0002:00003950       ??_R1A@?0A@A@_Locimp@locale@std@@8 00472950     libcp:locale0.obj
 0002:00003968       ??_R2_Locimp@locale@std@@8 00472968     libcp:locale0.obj
 0002:00003978       ??_R3_Locimp@locale@std@@8 00472978     libcp:locale0.obj
 0002:00003988       ??_R4_Locimp@locale@std@@6B@ 00472988     libcp:locale0.obj
 0002:000039a0       ??_R1A@?0A@A@?$num_put@DV?$ostreambuf_iterator@DU?$char_traits@D@std@@@std@@@std@@8 004729a0     libcp:locale.obj
 0002:000039b8       ??_R2?$num_put@DV?$ostreambuf_iterator@DU?$char_traits@D@std@@@std@@@std@@8 004729b8     libcp:locale.obj
 0002:000039c8       ??_R3?$num_put@DV?$ostreambuf_iterator@DU?$char_traits@D@std@@@std@@@std@@8 004729c8     libcp:locale.obj
 0002:000039d8       ??_R4?$num_put@DV?$ostreambuf_iterator@DU?$char_traits@D@std@@@std@@@std@@6B@ 004729d8     libcp:locale.obj
 0002:000039f0       ??_R1A@?0A@A@?$num_get@DV?$istreambuf_iterator@DU?$char_traits@D@std@@@std@@@std@@8 004729f0     libcp:locale.obj
 0002:00003a08       ??_R2?$num_get@DV?$istreambuf_iterator@DU?$char_traits@D@std@@@std@@@std@@8 00472a08     libcp:locale.obj
 0002:00003a18       ??_R3?$num_get@DV?$istreambuf_iterator@DU?$char_traits@D@std@@@std@@@std@@8 00472a18     libcp:locale.obj
 0002:00003a28       ??_R4?$num_get@DV?$istreambuf_iterator@DU?$char_traits@D@std@@@std@@@std@@6B@ 00472a28     libcp:locale.obj
 0002:00003a40       ??_R1A@?0A@A@?$numpunct@D@std@@8 00472a40     libcp:locale.obj
 0002:00003a58       ??_R2?$numpunct@D@std@@8   00472a58     libcp:locale.obj
 0002:00003a68       ??_R3?$numpunct@D@std@@8   00472a68     libcp:locale.obj
 0002:00003a78       ??_R4?$numpunct@D@std@@6B@ 00472a78     libcp:locale.obj
 0002:00003a90       ??_R1A@?0A@A@bad_alloc@std@@8 00472a90     libcp:nomemory.obj
 0002:00003aa8       ??_R2bad_alloc@std@@8      00472aa8     libcp:nomemory.obj
 0002:00003ab8       ??_R3bad_alloc@std@@8      00472ab8     libcp:nomemory.obj
 0002:00003ac8       ??_R4bad_alloc@std@@6B@    00472ac8     libcp:nomemory.obj
 0002:00003ae0       ??_R1A@?0A@A@?$ctype@G@std@@8 00472ae0     libcp:wlocale.obj
 0002:00003af8       ??_R2?$ctype@G@std@@8      00472af8     libcp:wlocale.obj
 0002:00003b08       ??_R3?$ctype@G@std@@8      00472b08     libcp:wlocale.obj
 0002:00003b18       ??_R4?$ctype@G@std@@6B@    00472b18     libcp:wlocale.obj
 0002:00003b30       ??_R1A@?0A@A@?$numpunct@G@std@@8 00472b30     libcp:wlocale.obj
 0002:00003b48       ??_R2?$numpunct@G@std@@8   00472b48     libcp:wlocale.obj
 0002:00003b58       ??_R3?$numpunct@G@std@@8   00472b58     libcp:wlocale.obj
 0002:00003b68       ??_R4?$numpunct@G@std@@6B@ 00472b68     libcp:wlocale.obj
 0002:00003b80       ??_R1A@?0A@A@?$time_put@GV?$ostreambuf_iterator@GU?$char_traits@G@std@@@std@@@std@@8 00472b80     libcp:wlocale.obj
 0002:00003b98       ??_R2?$time_put@GV?$ostreambuf_iterator@GU?$char_traits@G@std@@@std@@@std@@8 00472b98     libcp:wlocale.obj
 0002:00003ba8       ??_R3?$time_put@GV?$ostreambuf_iterator@GU?$char_traits@G@std@@@std@@@std@@8 00472ba8     libcp:wlocale.obj
 0002:00003bb8       ??_R4?$time_put@GV?$ostreambuf_iterator@GU?$char_traits@G@std@@@std@@@std@@6B@ 00472bb8     libcp:wlocale.obj
 0002:00003bd0       ??_R1A@?0A@A@time_base@std@@8 00472bd0     libcp:wlocale.obj
 0002:00003be8       ??_R1A@?0A@A@?$time_get@GV?$istreambuf_iterator@GU?$char_traits@G@std@@@std@@@std@@8 00472be8     libcp:wlocale.obj
 0002:00003c00       ??_R2?$time_get@GV?$istreambuf_iterator@GU?$char_traits@G@std@@@std@@@std@@8 00472c00     libcp:wlocale.obj
 0002:00003c10       ??_R3?$time_get@GV?$istreambuf_iterator@GU?$char_traits@G@std@@@std@@@std@@8 00472c10     libcp:wlocale.obj
 0002:00003c20       ??_R4?$time_get@GV?$istreambuf_iterator@GU?$char_traits@G@std@@@std@@@std@@6B@ 00472c20     libcp:wlocale.obj
 0002:00003c38       ??_R1A@?0A@A@?$num_put@GV?$ostreambuf_iterator@GU?$char_traits@G@std@@@std@@@std@@8 00472c38     libcp:wlocale.obj
 0002:00003c50       ??_R2?$num_put@GV?$ostreambuf_iterator@GU?$char_traits@G@std@@@std@@@std@@8 00472c50     libcp:wlocale.obj
 0002:00003c60       ??_R3?$num_put@GV?$ostreambuf_iterator@GU?$char_traits@G@std@@@std@@@std@@8 00472c60     libcp:wlocale.obj
 0002:00003c70       ??_R4?$num_put@GV?$ostreambuf_iterator@GU?$char_traits@G@std@@@std@@@std@@6B@ 00472c70     libcp:wlocale.obj
 0002:00003c88       ??_R1A@?0A@A@?$moneypunct@G$00@std@@8 00472c88     libcp:wlocale.obj
 0002:00003ca0       ??_R2?$moneypunct@G$00@std@@8 00472ca0     libcp:wlocale.obj
 0002:00003cb8       ??_R3?$moneypunct@G$00@std@@8 00472cb8     libcp:wlocale.obj
 0002:00003cc8       ??_R4?$moneypunct@G$00@std@@6B@ 00472cc8     libcp:wlocale.obj
 0002:00003ce0       ??_R1A@?0A@A@money_base@std@@8 00472ce0     libcp:wlocale.obj
 0002:00003cf8       ??_R1A@?0A@A@?$_Mpunct@G@std@@8 00472cf8     libcp:wlocale.obj
 0002:00003d10       ??_R1A@?0A@A@?$moneypunct@G$0A@@std@@8 00472d10     libcp:wlocale.obj
 0002:00003d28       ??_R2?$moneypunct@G$0A@@std@@8 00472d28     libcp:wlocale.obj
 0002:00003d40       ??_R3?$moneypunct@G$0A@@std@@8 00472d40     libcp:wlocale.obj
 0002:00003d50       ??_R4?$moneypunct@G$0A@@std@@6B@ 00472d50     libcp:wlocale.obj
 0002:00003d68       ??_R1A@?0A@A@?$money_put@GV?$ostreambuf_iterator@GU?$char_traits@G@std@@@std@@@std@@8 00472d68     libcp:wlocale.obj
 0002:00003d80       ??_R2?$money_put@GV?$ostreambuf_iterator@GU?$char_traits@G@std@@@std@@@std@@8 00472d80     libcp:wlocale.obj
 0002:00003d90       ??_R3?$money_put@GV?$ostreambuf_iterator@GU?$char_traits@G@std@@@std@@@std@@8 00472d90     libcp:wlocale.obj
 0002:00003da0       ??_R4?$money_put@GV?$ostreambuf_iterator@GU?$char_traits@G@std@@@std@@@std@@6B@ 00472da0     libcp:wlocale.obj
 0002:00003db8       ??_R1A@?0A@A@?$money_get@GV?$istreambuf_iterator@GU?$char_traits@G@std@@@std@@@std@@8 00472db8     libcp:wlocale.obj
 0002:00003dd0       ??_R2?$money_get@GV?$istreambuf_iterator@GU?$char_traits@G@std@@@std@@@std@@8 00472dd0     libcp:wlocale.obj
 0002:00003de0       ??_R3?$money_get@GV?$istreambuf_iterator@GU?$char_traits@G@std@@@std@@@std@@8 00472de0     libcp:wlocale.obj
 0002:00003df0       ??_R4?$money_get@GV?$istreambuf_iterator@GU?$char_traits@G@std@@@std@@@std@@6B@ 00472df0     libcp:wlocale.obj
 0002:00003e08       ??_R1A@?0A@A@messages_base@std@@8 00472e08     libcp:wlocale.obj
 0002:00003e20       ??_R1A@?0A@A@?$messages@G@std@@8 00472e20     libcp:wlocale.obj
 0002:00003e38       ??_R2?$messages@G@std@@8   00472e38     libcp:wlocale.obj
 0002:00003e48       ??_R3?$messages@G@std@@8   00472e48     libcp:wlocale.obj
 0002:00003e58       ??_R4?$messages@G@std@@6B@ 00472e58     libcp:wlocale.obj
 0002:00003e70       ??_R1A@?0A@A@?$collate@G@std@@8 00472e70     libcp:wlocale.obj
 0002:00003e88       ??_R2?$collate@G@std@@8    00472e88     libcp:wlocale.obj
 0002:00003e98       ??_R3?$collate@G@std@@8    00472e98     libcp:wlocale.obj
 0002:00003ea8       ??_R4?$collate@G@std@@6B@  00472ea8     libcp:wlocale.obj
 0002:00003ec0       ??_R1A@?0A@A@?$num_get@GV?$istreambuf_iterator@GU?$char_traits@G@std@@@std@@@std@@8 00472ec0     libcp:wlocale.obj
 0002:00003ed8       ??_R2?$num_get@GV?$istreambuf_iterator@GU?$char_traits@G@std@@@std@@@std@@8 00472ed8     libcp:wlocale.obj
 0002:00003ee8       ??_R3?$num_get@GV?$istreambuf_iterator@GU?$char_traits@G@std@@@std@@@std@@8 00472ee8     libcp:wlocale.obj
 0002:00003ef8       ??_R4?$num_get@GV?$istreambuf_iterator@GU?$char_traits@G@std@@@std@@@std@@6B@ 00472ef8     libcp:wlocale.obj
 0002:00003f10       ??_R1A@?0A@A@?$codecvt@GDH@std@@8 00472f10     libcp:wlocale.obj
 0002:00003f28       ??_R2?$codecvt@GDH@std@@8  00472f28     libcp:wlocale.obj
 0002:00003f38       ??_R3?$codecvt@GDH@std@@8  00472f38     libcp:wlocale.obj
 0002:00003f48       ??_R4?$codecvt@GDH@std@@6B@ 00472f48     libcp:wlocale.obj
 0002:00003f60       ??_R2?$_Mpunct@G@std@@8    00472f60     libcp:wlocale.obj
 0002:00003f70       ??_R3?$_Mpunct@G@std@@8    00472f70     libcp:wlocale.obj
 0002:00003f80       ??_R4?$_Mpunct@G@std@@6B@  00472f80     libcp:wlocale.obj
 0002:00003f98       ??_R1A@?0A@A@?$time_put@DV?$ostreambuf_iterator@DU?$char_traits@D@std@@@std@@@std@@8 00472f98     libcp:xlocale.obj
 0002:00003fb0       ??_R2?$time_put@DV?$ostreambuf_iterator@DU?$char_traits@D@std@@@std@@@std@@8 00472fb0     libcp:xlocale.obj
 0002:00003fc0       ??_R3?$time_put@DV?$ostreambuf_iterator@DU?$char_traits@D@std@@@std@@@std@@8 00472fc0     libcp:xlocale.obj
 0002:00003fd0       ??_R4?$time_put@DV?$ostreambuf_iterator@DU?$char_traits@D@std@@@std@@@std@@6B@ 00472fd0     libcp:xlocale.obj
 0002:00003fe8       ??_R1A@?0A@A@?$time_get@DV?$istreambuf_iterator@DU?$char_traits@D@std@@@std@@@std@@8 00472fe8     libcp:xlocale.obj
 0002:00004000       ??_R2?$time_get@DV?$istreambuf_iterator@DU?$char_traits@D@std@@@std@@@std@@8 00473000     libcp:xlocale.obj
 0002:00004010       ??_R3?$time_get@DV?$istreambuf_iterator@DU?$char_traits@D@std@@@std@@@std@@8 00473010     libcp:xlocale.obj
 0002:00004020       ??_R4?$time_get@DV?$istreambuf_iterator@DU?$char_traits@D@std@@@std@@@std@@6B@ 00473020     libcp:xlocale.obj
 0002:00004038       ??_R1A@?0A@A@?$moneypunct@D$00@std@@8 00473038     libcp:xlocale.obj
 0002:00004050       ??_R2?$moneypunct@D$00@std@@8 00473050     libcp:xlocale.obj
 0002:00004068       ??_R3?$moneypunct@D$00@std@@8 00473068     libcp:xlocale.obj
 0002:00004078       ??_R4?$moneypunct@D$00@std@@6B@ 00473078     libcp:xlocale.obj
 0002:00004090       ??_R1A@?0A@A@?$_Mpunct@D@std@@8 00473090     libcp:xlocale.obj
 0002:000040a8       ??_R1A@?0A@A@?$moneypunct@D$0A@@std@@8 004730a8     libcp:xlocale.obj
 0002:000040c0       ??_R2?$moneypunct@D$0A@@std@@8 004730c0     libcp:xlocale.obj
 0002:000040d8       ??_R3?$moneypunct@D$0A@@std@@8 004730d8     libcp:xlocale.obj
 0002:000040e8       ??_R4?$moneypunct@D$0A@@std@@6B@ 004730e8     libcp:xlocale.obj
 0002:00004100       ??_R1A@?0A@A@?$collate@D@std@@8 00473100     libcp:xlocale.obj
 0002:00004118       ??_R2?$collate@D@std@@8    00473118     libcp:xlocale.obj
 0002:00004128       ??_R3?$collate@D@std@@8    00473128     libcp:xlocale.obj
 0002:00004138       ??_R4?$collate@D@std@@6B@  00473138     libcp:xlocale.obj
 0002:00004150       ??_R1A@?0A@A@?$money_put@DV?$ostreambuf_iterator@DU?$char_traits@D@std@@@std@@@std@@8 00473150     libcp:xlocale.obj
 0002:00004168       ??_R2?$money_put@DV?$ostreambuf_iterator@DU?$char_traits@D@std@@@std@@@std@@8 00473168     libcp:xlocale.obj
 0002:00004178       ??_R3?$money_put@DV?$ostreambuf_iterator@DU?$char_traits@D@std@@@std@@@std@@8 00473178     libcp:xlocale.obj
 0002:00004188       ??_R4?$money_put@DV?$ostreambuf_iterator@DU?$char_traits@D@std@@@std@@@std@@6B@ 00473188     libcp:xlocale.obj
 0002:000041a0       ??_R1A@?0A@A@?$money_get@DV?$istreambuf_iterator@DU?$char_traits@D@std@@@std@@@std@@8 004731a0     libcp:xlocale.obj
 0002:000041b8       ??_R2?$money_get@DV?$istreambuf_iterator@DU?$char_traits@D@std@@@std@@@std@@8 004731b8     libcp:xlocale.obj
 0002:000041c8       ??_R3?$money_get@DV?$istreambuf_iterator@DU?$char_traits@D@std@@@std@@@std@@8 004731c8     libcp:xlocale.obj
 0002:000041d8       ??_R4?$money_get@DV?$istreambuf_iterator@DU?$char_traits@D@std@@@std@@@std@@6B@ 004731d8     libcp:xlocale.obj
 0002:000041f0       ??_R1A@?0A@A@?$messages@D@std@@8 004731f0     libcp:xlocale.obj
 0002:00004208       ??_R2?$messages@D@std@@8   00473208     libcp:xlocale.obj
 0002:00004218       ??_R3?$messages@D@std@@8   00473218     libcp:xlocale.obj
 0002:00004228       ??_R4?$messages@D@std@@6B@ 00473228     libcp:xlocale.obj
 0002:00004240       ??_R2?$_Mpunct@D@std@@8    00473240     libcp:xlocale.obj
 0002:00004250       ??_R3?$_Mpunct@D@std@@8    00473250     libcp:xlocale.obj
 0002:00004260       ??_R4?$_Mpunct@D@std@@6B@  00473260     libcp:xlocale.obj
 0002:00004278       ??_R1A@?0A@A@type_info@@8  00473278     LIBC:typinfo.obj
 0002:00004290       ??_R2type_info@@8          00473290     LIBC:typinfo.obj
 0002:00004298       ??_R3type_info@@8          00473298     LIBC:typinfo.obj
 0002:000042a8       ??_R4type_info@@6B@        004732a8     LIBC:typinfo.obj
 0002:000042bc       ??_R2exception@@8          004732bc     LIBC:stdexcpt.obj
 0002:000042c8       ??_R3exception@@8          004732c8     LIBC:stdexcpt.obj
 0002:000042d8       ??_R4exception@@6B@        004732d8     LIBC:stdexcpt.obj
 0002:000042f0       ??_R1A@?0A@A@ios@@8        004732f0     libci:_ios.obj
 0002:00004308       ??_R2ios@@8                00473308     libci:_ios.obj
 0002:00004310       ??_R3ios@@8                00473310     libci:_ios.obj
 0002:00004320       ??_R4ios@@6B@              00473320     libci:_ios.obj
 0002:00004338       ??_R1A@A@3BA@ios@@8        00473338     libci:ifstream.obj
 0002:00004350       ??_R1A@?0A@A@istream@@8    00473350     libci:ifstream.obj
 0002:00004368       ??_R1A@?0A@A@ifstream@@8   00473368     libci:ifstream.obj
 0002:00004380       ??_R2ifstream@@8           00473380     libci:ifstream.obj
 0002:00004390       ??_R3ifstream@@8           00473390     libci:ifstream.obj
 0002:000043a0       ??_R4ifstream@@6B@         004733a0     libci:ifstream.obj
 0002:000043b8       ??_R1A@?0A@A@streambuf@@8  004733b8     libci:filebuf.obj
 0002:000043d0       ??_R1A@?0A@A@filebuf@@8    004733d0     libci:filebuf.obj
 0002:000043e8       ??_R2filebuf@@8            004733e8     libci:filebuf.obj
 0002:000043f8       ??_R3filebuf@@8            004733f8     libci:filebuf.obj
 0002:00004408       ??_R4filebuf@@6B@          00473408     libci:filebuf.obj
 0002:00004420       ??_R2istream@@8            00473420     libci:istream.obj
 0002:00004430       ??_R3istream@@8            00473430     libci:istream.obj
 0002:00004440       ??_R4istream@@6B@          00473440     libci:istream.obj
 0002:00004458       ??_R1A@?0A@A@istream_withassign@@8 00473458     libci:istream.obj
 0002:00004470       ??_R2istream_withassign@@8 00473470     libci:istream.obj
 0002:00004480       ??_R3istream_withassign@@8 00473480     libci:istream.obj
 0002:00004490       ??_R4istream_withassign@@6B@ 00473490     libci:istream.obj
 0002:000044a4       ??_R2streambuf@@8          004734a4     libci:streamb.obj
 0002:000044b0       ??_R3streambuf@@8          004734b0     libci:streamb.obj
 0002:000044c0       ??_R4streambuf@@6B@        004734c0     libci:streamb.obj
 0002:000044d8       ??_R1A@?0A@A@ostream@@8    004734d8     libci:ostream.obj
 0002:000044f0       ??_R2ostream@@8            004734f0     libci:ostream.obj
 0002:00004500       ??_R3ostream@@8            00473500     libci:ostream.obj
 0002:00004510       ??_R4ostream@@6B@          00473510     libci:ostream.obj
 0002:00004528       ??_R1A@?0A@A@ostream_withassign@@8 00473528     libci:ostream.obj
 0002:00004540       ??_R2ostream_withassign@@8 00473540     libci:ostream.obj
 0002:00004550       ??_R3ostream_withassign@@8 00473550     libci:ostream.obj
 0002:00004560       ??_R4ostream_withassign@@6B@ 00473560     libci:ostream.obj
 0002:00004b20       __CT??_R0?AVexception@@@8??0exception@@QAE@ABV0@@Z12 00473b20     Bitmap.obj
 0002:00004b40       __CT??_R0?AVbad_cast@std@@@8??0bad_cast@std@@QAE@ABV01@@Z12 00473b40     Bitmap.obj
 0002:00004b60       __CTA2?AVbad_cast@std@@    00473b60     Bitmap.obj
 0002:00004b70       __TI2?AVbad_cast@std@@     00473b70     Bitmap.obj
 0002:000070f8       __CT??_R0?AVlogic_error@std@@@8??0logic_error@std@@QAE@ABV01@@Z28 004760f8     libcp:string.obj
 0002:00007118       __CT??_R0?AVlength_error@std@@@8??0length_error@std@@QAE@ABV01@@Z28 00476118     libcp:string.obj
 0002:00007138       __CTA3?AVlength_error@std@@ 00476138     libcp:string.obj
 0002:00007148       __TI3?AVlength_error@std@@ 00476148     libcp:string.obj
 0002:000071a8       __CTA2?AVlogic_error@std@@ 004761a8     libcp:string.obj
 0002:000071b8       __TI2?AVlogic_error@std@@  004761b8     libcp:string.obj
 0002:00007240       __CT??_R0?AVout_of_range@std@@@8??0out_of_range@std@@QAE@ABV01@@Z28 00476240     libcp:string.obj
 0002:00007260       __CTA3?AVout_of_range@std@@ 00476260     libcp:string.obj
 0002:00007270       __TI3?AVout_of_range@std@@ 00476270     libcp:string.obj
 0002:000074d8       __CT??_R0?AVruntime_error@std@@@8??0runtime_error@std@@QAE@ABV01@@Z28 004764d8     libcp:ios.obj
 0002:000074f8       __CT??_R0?AVfailure@ios_base@std@@@8??0failure@ios_base@std@@QAE@ABV012@@Z28 004764f8     libcp:ios.obj
 0002:00007518       __CTA3?AVfailure@ios_base@std@@ 00476518     libcp:ios.obj
 0002:00007528       __TI3?AVfailure@ios_base@std@@ 00476528     libcp:ios.obj
 0002:00007588       __CTA2?AVruntime_error@std@@ 00476588     libcp:ios.obj
 0002:00007598       __TI2?AVruntime_error@std@@ 00476598     libcp:ios.obj
 0002:00007e58       __CT??_R0?AVbad_alloc@std@@@8??0bad_alloc@std@@QAE@ABV01@@Z12 00476e58     libcp:nomemory.obj
 0002:00007e78       __CTA2?AVbad_alloc@std@@   00476e78     libcp:nomemory.obj
 0002:00007e88       __TI2?AVbad_alloc@std@@    00476e88     libcp:nomemory.obj
 0002:00009310       __IMPORT_DESCRIPTOR_OPENGL32 00478310     opengl32:OPENGL32.dll
 0002:00009324       __IMPORT_DESCRIPTOR_GLU32  00478324     glu32:GLU32.dll
 0002:00009338       __IMPORT_DESCRIPTOR_KERNEL32 00478338     kernel32:KERNEL32.dll
 0002:0000934c       __IMPORT_DESCRIPTOR_USER32 0047834c     user32:USER32.dll
 0002:00009360       __IMPORT_DESCRIPTOR_GDI32  00478360     gdi32:GDI32.dll
 0002:00009374       __IMPORT_DESCRIPTOR_ADVAPI32 00478374     advapi32:ADVAPI32.dll
 0002:00009388       __NULL_IMPORT_DESCRIPTOR   00478388     opengl32:OPENGL32.dll
 0003:00000000       ___xc_a                    0047a000     LIBC:crt0init.obj
 0003:00000154       ___xc_z                    0047a154     LIBC:crt0init.obj
 0003:00000158       ___xi_a                    0047a158     LIBC:crt0init.obj
 0003:00000170       ___xi_z                    0047a170     LIBC:crt0init.obj
 0003:00000174       ___xp_a                    0047a174     LIBC:crt0init.obj
 0003:00000180       ___xp_z                    0047a180     LIBC:crt0init.obj
 0003:00000184       ___xt_a                    0047a184     LIBC:crt0init.obj
 0003:0000018c       ___xt_z                    0047a18c     LIBC:crt0init.obj
 0003:00000190       ??_R0?AVC3DOParser@@@8     0047a190     3DOParser.obj
 0003:000001ac       ??_C@_06NGGA@corcom?$AA@   0047a1ac     3DOParser.obj
 0003:000001b4       ??_C@_06FLOA@armcom?$AA@   0047a1b4     3DOParser.obj
 0003:000001bc       ??_C@_07OIGL@No?5file?$AA@ 0047a1bc     3DOParser.obj
 0003:000001c4       ??_C@_0BM@IIPI@Parser?5couldnt?5get?5texture?5?$AA@ 0047a1c4     3DOParser.obj
 0003:000001e0       ??_C@_01BJG@?6?$AA@        0047a1e0     3DOParser.obj
 0003:000001e8       ??_R0?AVCBitmap@@@8        0047a1e8     Bitmap.obj
 0003:00000200       ??_C@_04BLEC@?4jpg?$AA@    0047a200     Bitmap.obj
 0003:00000208       ??_R0?AVios_base@std@@@8   0047a208     Bitmap.obj
 0003:00000228       ??_R0?AV?$basic_ios@DU?$char_traits@D@std@@@std@@@8 0047a228     Bitmap.obj
 0003:00000260       ??_R0?AV?$basic_ostream@DU?$char_traits@D@std@@@std@@@8 0047a260     Bitmap.obj
 0003:000002a0       ??_R0?AV?$basic_ofstream@DU?$char_traits@D@std@@@std@@@8 0047a2a0     Bitmap.obj
 0003:000002e0       ??_R0?AV?$basic_streambuf@DU?$char_traits@D@std@@@std@@@8 0047a2e0     Bitmap.obj
 0003:00000320       ??_R0?AV?$basic_filebuf@DU?$char_traits@D@std@@@std@@@8 0047a320     Bitmap.obj
 0003:0000035c       ??_C@_0BC@BFHL@Couldnt?5save?5file?$AA@ 0047a35c     Bitmap.obj
 0003:00000370       ??_C@_0BJ@GDBJ@Unable?5to?5load?5JPG?5File?$CB?$AA@ 0047a370     Bitmap.obj
 0003:0000038c       ??_C@_05CKBG@Error?$AA@    0047a38c     Bitmap.obj
 0003:00000394       ??_C@_02JKAF@rb?$AA@       0047a394     Bitmap.obj
 0003:00000398       ??_R0?AVexception@@@8      0047a398     Bitmap.obj
 0003:000003b0       ??_R0?AVbad_cast@std@@@8   0047a3b0     Bitmap.obj
 0003:000003cc       ??_C@_0BF@MMAA@missing?5locale?5facet?$AA@ 0047a3cc     Bitmap.obj
 0003:000003e8       ??_R0?AVfacet@locale@std@@@8 0047a3e8     Bitmap.obj
 0003:00000408       ??_R0?AVcodecvt_base@std@@@8 0047a408     Bitmap.obj
 0003:00000428       ??_R0?AV?$codecvt@DDH@std@@@8 0047a428     Bitmap.obj
 0003:00000448       ??_C@_01FKHJ@C?$AA@        0047a448     Bitmap.obj
 0003:00000450       ??_R0?AVCCamera@@@8        0047a450     Camera.obj
 0003:00000478       ??_R0?AVCDrawUI@@@8        0047a478     DrawUI.obj
 0003:00000490       ??_C@_0O@NCNI@DrawResources?$AA@ 0047a490     DrawUI.obj
 0003:000004a0       ??_C@_06EFDI@?$CL?$CF5?40f?$AA@ 0047a4a0     DrawUI.obj
 0003:000004a8       ??_C@_05MHIP@?$CF4?40f?$AA@ 0047a4a8     DrawUI.obj
 0003:000004b0       ??_C@_02DILL@?$CFs?$AA@    0047a4b0     DrawUI.obj
 0003:000004b8       ??_R0?AVCDrawWater@@@8     0047a4b8     DrawWater.obj
 0003:000004d4       ??_C@_0BC@NJCC@bitmaps?2ocean?4jpg?$AA@ 0047a4d4     DrawWater.obj
 0003:000004e8       ??_R0?AVCFeatureHandler@@@8 0047a4e8     FeatureHandler.obj
 0003:00000508       ??_C@_0BC@JDAB@Mapping?5tdf?5files?$AA@ 0047a508     FeatureHandler.obj
 0003:0000051c       ??_C@_04NMHO@?4tdf?$AA@    0047a51c     FeatureHandler.obj
 0003:00000524       ??_C@_09HGAE@features?2?$AA@ 0047a524     FeatureHandler.obj
 0003:00000530       ??_C@_04EHCP@?4gaf?$AA@    0047a530     Gaf.obj
 0003:00000538       ??_C@_0BC@JJMP@Mapping?5gaf?5files?$AA@ 0047a538     Gaf.obj
 0003:0000054c       ?LightDiffuseLand@@3PAMA   0047a54c     Game.obj
 0003:0000055c       ?LightAmbientLand@@3PAMA   0047a55c     Game.obj
 0003:0000056c       ?LightAmbientWreck@@3PAMA  0047a56c     Game.obj
 0003:0000057c       ?LightPosition@@3PAMA      0047a57c     Game.obj
 0003:0000058c       ?FogLand@@3PAMA            0047a58c     Game.obj
 0003:0000059c       ?FogWhite@@3PAMA           0047a59c     Game.obj
 0003:000005b0       ??_R0?AVCGame@@@8          0047a5b0     Game.obj
 0003:000005c4       ??_C@_0BN@PLIM@Failed?5to?5crete?5registry?5key?$AA@ 0047a5c4     Game.obj
 0003:000005e4       ??_C@_0L@BIKL@Game?5error?$AA@ 0047a5e4     Game.obj
 0003:000005f0       ??_C@_0BD@BNKJ@Software?2SJ?2Spring?$AA@ 0047a5f0     Game.obj
 0003:00000604       ??_C@_0L@MPEB@uikeys?4txt?$AA@ 0047a604     Game.obj
 0003:00000610       ??_C@_0N@OOAI@ViewDistance?$AA@ 0047a610     Game.obj
 0003:00000620       ??_C@_09GJAO@MoveSpeed?$AA@ 0047a620     Game.obj
 0003:00000630       ??_R0?AV?$basic_ifstream@DU?$char_traits@D@std@@@std@@@8 0047a630     Game.obj
 0003:00000670       ??_R0?AV?$basic_istream@DU?$char_traits@D@std@@@std@@@8 0047a670     Game.obj
 0003:000006ac       ??_C@_08EAEM@moveslow?$AA@ 0047a6ac     Game.obj
 0003:000006b8       ??_C@_08FFGA@movefast?$AA@ 0047a6b8     Game.obj
 0003:000006c4       ??_C@_08JBEK@movedown?$AA@ 0047a6c4     Game.obj
 0003:000006d0       ??_C@_06HADF@moveup?$AA@   0047a6d0     Game.obj
 0003:000006d8       ??_C@_09CKGO@moveright?$AA@ 0047a6d8     Game.obj
 0003:000006e4       ??_C@_08FLKH@moveleft?$AA@ 0047a6e4     Game.obj
 0003:000006f0       ??_C@_08CKM@moveback?$AA@  0047a6f0     Game.obj
 0003:000006fc       ??_C@_0M@MMPF@moveforward?$AA@ 0047a6fc     Game.obj
 0003:00000708       ??_C@_04OEJP@?4bmp?$AA@    0047a708     Game.obj
 0003:00000710       ??_C@_06IGBC@screen?$AA@   0047a710     Game.obj
 0003:00000718       ??_C@_0L@BJLF@screenshot?$AA@ 0047a718     Game.obj
 0003:00000724       ??_C@_04FKOI@quit?$AA@     0047a724     Game.obj
 0003:0000072c       ??_C@_09OOFG@speeddown?$AA@ 0047a72c     Game.obj
 0003:00000738       ??_C@_07IAIP@speedup?$AA@  0047a738     Game.obj
 0003:00000740       ??_C@_0L@FINL@lessclouds?$AA@ 0047a740     Game.obj
 0003:0000074c       ??_C@_0P@BEMH@Cloud?5density?5?$AA@ 0047a74c     Game.obj
 0003:0000075c       ??_C@_0L@HMB@moreclouds?$AA@ 0047a75c     Game.obj
 0003:00000768       ??_C@_0BD@DIMP@decreaseviewradius?$AA@ 0047a768     Game.obj
 0003:0000077c       ??_C@_0BD@JFFH@ViewRadius?5is?5now?5?$AA@ 0047a77c     Game.obj
 0003:00000790       ??_C@_0BD@GICG@increaseviewradius?$AA@ 0047a790     Game.obj
 0003:000007a4       ??_C@_0L@HABL@dynamicsky?$AA@ 0047a7a4     Game.obj
 0003:000007b0       ??_C@_07OGMN@drawmap?$AA@  0047a7b0     Game.obj
 0003:000007b8       ??_C@_0O@LGGA@drawresources?$AA@ 0047a7b8     Game.obj
 0003:000007c8       ??_C@_09MKAF@drawkills?$AA@ 0047a7c8     Game.obj
 0003:000007d4       ??_C@_0L@CJNC@drawhealth?$AA@ 0047a7d4     Game.obj
 0003:000007e0       ??_C@_09DBMN@drawnames?$AA@ 0047a7e0     Game.obj
 0003:000007ec       ??_C@_09MEOB@secondfov?$AA@ 0047a7ec     Game.obj
 0003:000007f8       ??_C@_09NMGC@updatefov?$AA@ 0047a7f8     Game.obj
 0003:00000804       ??_C@_05FLHP@debug?$AA@    0047a804     Game.obj
 0003:0000080c       ??_C@_0M@LGBA@commandmode?$AA@ 0047a80c     Game.obj
 0003:00000818       ??_C@_05GBFH@Say?3?5?$AA@  0047a818     Game.obj
 0003:00000820       ??_C@_04FLKK@chat?$AA@     0047a820     Game.obj
 0003:00000828       ??_C@_0L@CDFE@singlestep?$AA@ 0047a828     Game.obj
 0003:00000834       ??_C@_05PBCN@pause?$AA@    0047a834     Game.obj
 0003:0000083c       ??_C@_0CE@BPHF@xpos?3?5?$CF6?40f?5ypos?3?5?$CF6?40f?5zpos?3?5?$CF6@ 0047a83c     Game.obj
 0003:00000860       ??_C@_0M@CCHO@FPS?5?$DN?5?$CF3?40d?$AA@ 0047a860     Game.obj
 0003:00000870       ??_R0?AVCglFont@@@8        0047a870     glFont.obj
 0003:00000888       ??_C@_0BG@JNPP@Error?5generating?5font?$AA@ 0047a888     glFont.obj
 0003:000008a0       ??_C@_0BK@DAJH@Couldnt?5get?5text?5width?5?$CFd?$AA@ 0047a8a0     glFont.obj
 0003:000008bc       ??_C@_0M@HLIB@Courier?5New?$AA@ 0047a8bc     glFont.obj
 0003:000008c8       ??_C@_09IDLG@bagge?4fnt?$AA@ 0047a8c8     glFont.obj
 0003:000008d8       ??_R0?AUctype_base@std@@@8 0047a8d8     glFont.obj
 0003:000008f8       ??_R0?AV?$ctype@D@std@@@8  0047a8f8     glFont.obj
 0003:00000918       ??_R0?AVCglList@@@8        0047a918     glList.obj
 0003:00000930       ??_C@_07MNKB@vehicle?$AA@  0047a930     glList.obj
 0003:00000938       ?myseed@@3HA               0047a938     GlobalStuff.obj
 0003:00000940       ??_R0?AVCGlobalStuff@@@8   0047a940     GlobalStuff.obj
 0003:0000095c       ??_C@_0N@MGCG@WreckageInfo?$AA@ 0047a95c     GlobalStuff.obj
 0003:0000096c       ??_C@_08FFBE@Features?$AA@ 0047a96c     GlobalStuff.obj
 0003:00000978       ??_C@_0L@BALG@FeatureDef?$AA@ 0047a978     GlobalStuff.obj
 0003:00000984       ??_C@_07LBHG@armhawk?$AA@  0047a984     GlobalStuff.obj
 0003:0000098c       ??_C@_0BE@NLKH@maps?2greenhaven?4tnt?$AA@ 0047a98c     GlobalStuff.obj
 0003:000009a0       ??_C@_04MIMI@TA3D?$AA@     0047a9a0     GlobalStuff.obj
 0003:000009a8       ??_C@_0O@DGGD@TADemo?9MKChat?$AA@ 0047a9a8     GlobalStuff.obj
 0003:000009b8       ??_R0?AVCGround@@@8        0047a9b8     Ground.obj
 0003:000009f0       ??_R0?AVCGroundDrawer@@@8  0047a9f0     GroundDrawer.obj
 0003:00000a0c       ??_C@_0N@FGNN@TreeDistance?$AA@ 0047aa0c     GroundDrawer.obj
 0003:00000a1c       ??_C@_0N@EGBM@GroundDetail?$AA@ 0047aa1c     GroundDrawer.obj
 0003:00000a2c       ??_C@_0P@OCHN@Drawing?5ground?$AA@ 0047aa2c     GroundDrawer.obj
 0003:00000a40       ??_R0?AVCGuiKeyReader@@@8  0047aa40     GuiKeyReader.obj
 0003:00000a5c       ??_C@_0BL@LFLH@Couldnt?5parse?5control?5file?$AA@ 0047aa5c     GuiKeyReader.obj
 0003:00000a78       ??_C@_04FBJP@bind?$AA@     0047aa78     GuiKeyReader.obj
 0003:00000a80       ??_C@_01FCOA@?5?$AA@       0047aa80     GuiKeyReader.obj
 0003:00000a84       ??_C@_08FCDM@joyright?$AA@ 0047aa84     GuiKeyReader.obj
 0003:00000a90       ??_C@_07JLK@joyleft?$AA@   0047aa90     GuiKeyReader.obj
 0003:00000a98       ??_C@_07MDFH@joydown?$AA@  0047aa98     GuiKeyReader.obj
 0003:00000aa0       ??_C@_05EBMP@joyup?$AA@    0047aaa0     GuiKeyReader.obj
 0003:00000aa8       ??_C@_04GPIN@joy7?$AA@     0047aaa8     GuiKeyReader.obj
 0003:00000ab0       ??_C@_04MFBK@joy6?$AA@     0047aab0     GuiKeyReader.obj
 0003:00000ab8       ??_C@_04DKKD@joy5?$AA@     0047aab8     GuiKeyReader.obj
 0003:00000ac0       ??_C@_04JADE@joy4?$AA@     0047aac0     GuiKeyReader.obj
 0003:00000ac8       ??_C@_04MFNB@joy3?$AA@     0047aac8     GuiKeyReader.obj
 0003:00000ad0       ??_C@_04GPEG@joy2?$AA@     0047aad0     GuiKeyReader.obj
 0003:00000ad8       ??_C@_04JAPP@joy1?$AA@     0047aad8     GuiKeyReader.obj
 0003:00000ae0       ??_C@_04DKGI@joy0?$AA@     0047aae0     GuiKeyReader.obj
 0003:00000ae8       ??_C@_04MKEN@joyw?$AA@     0047aae8     GuiKeyReader.obj
 0003:00000af0       ??_C@_04JODO@joyz?$AA@     0047aaf0     GuiKeyReader.obj
 0003:00000af8       ??_C@_04GBIH@joyy?$AA@     0047aaf8     GuiKeyReader.obj
 0003:00000b00       ??_C@_04MLBA@joyx?$AA@     0047ab00     GuiKeyReader.obj
 0003:00000b08       ??_C@_05PJFF@right?$AA@    0047ab08     GuiKeyReader.obj
 0003:00000b10       ??_C@_04GACI@left?$AA@     0047ab10     GuiKeyReader.obj
 0003:00000b18       ??_C@_04KKMF@down?$AA@     0047ab18     GuiKeyReader.obj
 0003:00000b20       ??_C@_02HAO@up?$AA@        0047ab20     GuiKeyReader.obj
 0003:00000b24       ??_C@_04OLB@ctrl?$AA@      0047ab24     GuiKeyReader.obj
 0003:00000b2c       ??_C@_07MFCI@numpad?1?$AA@ 0047ab2c     GuiKeyReader.obj
 0003:00000b34       ??_C@_07MFOD@numpad?$CK?$AA@ 0047ab34     GuiKeyReader.obj
 0003:00000b3c       ??_C@_07JAAG@numpad?9?$AA@ 0047ab3c     GuiKeyReader.obj
 0003:00000b44       ??_C@_07GPHE@numpad?$CL?$AA@ 0047ab44     GuiKeyReader.obj
 0003:00000b4c       ??_C@_07JDCK@numpad9?$AA@  0047ab4c     GuiKeyReader.obj
 0003:00000b54       ??_C@_07DJLN@numpad8?$AA@  0047ab54     GuiKeyReader.obj
 0003:00000b5c       ??_C@_07DIOA@numpad7?$AA@  0047ab5c     GuiKeyReader.obj
 0003:00000b64       ??_C@_07JCHH@numpad6?$AA@  0047ab64     GuiKeyReader.obj
 0003:00000b6c       ??_C@_07GNMO@numpad5?$AA@  0047ab6c     GuiKeyReader.obj
 0003:00000b74       ??_C@_07MHFJ@numpad4?$AA@  0047ab74     GuiKeyReader.obj
 0003:00000b7c       ??_C@_07JCLM@numpad3?$AA@  0047ab7c     GuiKeyReader.obj
 0003:00000b84       ??_C@_07DICL@numpad2?$AA@  0047ab84     GuiKeyReader.obj
 0003:00000b8c       ??_C@_07MHJC@numpad1?$AA@  0047ab8c     GuiKeyReader.obj
 0003:00000b94       ??_C@_07GNAF@numpad0?$AA@  0047ab94     GuiKeyReader.obj
 0003:00000b9c       ??_C@_08GGDB@pagedown?$AA@ 0047ab9c     GuiKeyReader.obj
 0003:00000ba8       ??_C@_06PFJA@pageup?$AA@   0047aba8     GuiKeyReader.obj
 0003:00000bb0       ??_C@_03DNBD@end?$AA@      0047abb0     GuiKeyReader.obj
 0003:00000bb4       ??_C@_04EMLE@home?$AA@     0047abb4     GuiKeyReader.obj
 0003:00000bbc       ??_C@_06IDPA@delete?$AA@   0047abbc     GuiKeyReader.obj
 0003:00000bc4       ??_C@_06PNID@insert?$AA@   0047abc4     GuiKeyReader.obj
 0003:00000bcc       ??_C@_05LDBN@tilde?$AA@    0047abcc     GuiKeyReader.obj
 0003:00000bd4       ??_C@_03PBGM@alt?$AA@      0047abd4     GuiKeyReader.obj
 0003:00000bd8       ??_C@_05MCEL@shift?$AA@    0047abd8     GuiKeyReader.obj
 0003:00000be0       ??_C@_0M@OHKO@printscreen?$AA@ 0047abe0     GuiKeyReader.obj
 0003:00000bec       ??_C@_03CMOH@f12?$AA@      0047abec     GuiKeyReader.obj
 0003:00000bf0       ??_C@_03NDFO@f11?$AA@      0047abf0     GuiKeyReader.obj
 0003:00000bf4       ??_C@_03HJMJ@f10?$AA@      0047abf4     GuiKeyReader.obj
 0003:00000bf8       ??_C@_02NLH@f9?$AA@        0047abf8     GuiKeyReader.obj
 0003:00000bfc       ??_C@_02KHCA@f8?$AA@       0047abfc     GuiKeyReader.obj
 0003:00000c00       ??_C@_02KGHN@f7?$AA@       0047ac00     GuiKeyReader.obj
 0003:00000c04       ??_C@_02MOK@f6?$AA@        0047ac04     GuiKeyReader.obj
 0003:00000c08       ??_C@_02PDFD@f5?$AA@       0047ac08     GuiKeyReader.obj
 0003:00000c0c       ??_C@_02FJME@f4?$AA@       0047ac0c     GuiKeyReader.obj
 0003:00000c10       ??_C@_02MCB@f3?$AA@        0047ac10     GuiKeyReader.obj
 0003:00000c14       ??_C@_02KGLG@f2?$AA@       0047ac14     GuiKeyReader.obj
 0003:00000c18       ??_C@_02FJAP@f1?$AA@       0047ac18     GuiKeyReader.obj
 0003:00000c1c       ??_C@_03PLAL@esc?$AA@      0047ac1c     GuiKeyReader.obj
 0003:00000c20       ??_C@_09LAOB@backspace?$AA@ 0047ac20     GuiKeyReader.obj
 0003:00000c2c       ??_C@_05LADD@enter?$AA@    0047ac2c     GuiKeyReader.obj
 0003:00000c34       ??_C@_05GCKI@space?$AA@    0047ac34     GuiKeyReader.obj
 0003:00000c3c       ??_C@_01HAF@?8?$AA@        0047ac3c     GuiKeyReader.obj
 0003:00000c40       ??_C@_0M@JNEN@Unknown?5key?$AA@ 0047ac40     GuiKeyReader.obj
 0003:00000ca0       ??_R0?AVCHpiHandler@@@8    0047aca0     HpiHandler.obj
 0003:00000cbc       ??_C@_05FBGP@?$CK?4hpi?$AA@ 0047acbc     HpiHandler.obj
 0003:00000cc4       ??_C@_05GFFA@?$CK?4ccx?$AA@ 0047acc4     HpiHandler.obj
 0003:00000ccc       ??_C@_05BINI@?$CK?4ufo?$AA@ 0047accc     HpiHandler.obj
 0003:00000cd4       ??_C@_05HCJN@?$CK?4gp3?$AA@ 0047acd4     HpiHandler.obj
 0003:00000cdc       ??_C@_0BI@JPJL@Mapping?5hpi?5files?5in?5?$CFs?$AA@ 0047acdc     HpiHandler.obj
 0003:00000cf4       ??_C@_01PCFE@?2?$AA@       0047acf4     HpiHandler.obj
 0003:00000cf8       ??_C@_05OAME@TADir?$AA@    0047acf8     HpiHandler.obj
 0003:00000d00       ??_C@_04NCOD@path?$AA@     0047ad00     HpiHandler.obj
 0003:00000d08       ??_C@_0DO@PGKP@Software?2Microsoft?2DirectPlay?2Ap@ 0047ad08     HpiHandler.obj
 0003:00000d48       ??_C@_0N@JCLM@HPICloseFile?$AA@ 0047ad48     HpiHandler.obj
 0003:00000d58       ??_C@_06GJHO@HPIGet?$AA@   0047ad58     HpiHandler.obj
 0003:00000d60       ??_C@_0M@KPNF@HPIOpenFile?$AA@ 0047ad60     HpiHandler.obj
 0003:00000d6c       ??_C@_08MOIO@HPIClose?$AA@ 0047ad6c     HpiHandler.obj
 0003:00000d78       ??_C@_0M@MMMG@HPIGetFiles?$AA@ 0047ad78     HpiHandler.obj
 0003:00000d84       ??_C@_07EGDG@HPIOpen?$AA@  0047ad84     HpiHandler.obj
 0003:00000d8c       ??_C@_0P@IFAF@GetTADirectory?$AA@ 0047ad8c     HpiHandler.obj
 0003:00000d9c       ??_C@_0BL@POCA@Failed?5to?5find?5hpiutil?4dll?$AA@ 0047ad9c     HpiHandler.obj
 0003:00000db8       ??_C@_0M@LIGP@hpiutil?4dll?$AA@ 0047adb8     HpiHandler.obj
 0003:00000dc8       ??_R0?AVCInfoConsole@@@8   0047adc8     InfoConsole.obj
 0003:00000de4       ??_C@_03CPCE@?$CFd?5?$AA@  0047ade4     InfoConsole.obj
 0003:00000de8       ??_C@_03CHB@?$CFf?5?$AA@   0047ade8     InfoConsole.obj
 0003:00000df0       ?active@@3_NA              0047adf0     Lesson2.obj
 0003:00000df1       ?fullscreen@@3_NA          0047adf1     Lesson2.obj
 0003:00000e20       ??_C@_0BI@IBIF@Could?5Not?5Release?5hWnd?4?$AA@ 0047ae20     Lesson2.obj
 0003:00000e38       ??_C@_0BP@KJKC@Release?5Device?5Context?5Failed?4?$AA@ 0047ae38     Lesson2.obj
 0003:00000e58       ??_C@_0CC@IAHF@Release?5Rendering?5Context?5Failed@ 0047ae58     Lesson2.obj
 0003:00000e7c       ??_C@_0BN@KHPB@Release?5Of?5DC?5And?5RC?5Failed?4?$AA@ 0047ae7c     Lesson2.obj
 0003:00000e9c       ??_C@_0P@EIPA@SHUTDOWN?5ERROR?$AA@ 0047ae9c     Lesson2.obj
 0003:00000eac       ??_C@_0CJ@NKFI@Can?8t?5Activate?5The?5GL?5Rendering?5@ 0047aeac     Lesson2.obj
 0003:00000ed8       ??_C@_0CI@GJBE@Can?8t?5Create?5A?5GL?5Rendering?5Cont@ 0047aed8     Lesson2.obj
 0003:00000f00       ??_C@_0BL@JMLH@Can?8t?5Set?5The?5PixelFormat?4?$AA@ 0047af00     Lesson2.obj
 0003:00000f1c       ??_C@_0CD@NFCF@Can?8t?5Find?5A?5Suitable?5PixelForma@ 0047af1c     Lesson2.obj
 0003:00000f40       ??_C@_0CF@BKCF@Can?8t?5Create?5A?5GL?5Device?5Context@ 0047af40     Lesson2.obj
 0003:00000f68       ??_C@_0BH@GGAO@Window?5Creation?5Error?4?$AA@ 0047af68     Lesson2.obj
 0003:00000f80       ??_C@_0BI@BJHP@Program?5Will?5Now?5Close?4?$AA@ 0047af80     Lesson2.obj
 0003:00000f98       ??_C@_0FO@DPIJ@The?5Requested?5Fullscreen?5Mode?5Is@ 0047af98     Lesson2.obj
 0003:00000ff8       ??_C@_07LNDH@NeHe?5GL?$AA@ 0047aff8     Lesson2.obj
 0003:00001000       ??_C@_0CF@GABA@Failed?5To?5Register?5The?5Window?5Cl@ 0047b000     Lesson2.obj
 0003:00001028       ??_C@_05EFDD@ERROR?$AA@    0047b028     Lesson2.obj
 0003:00001030       ??_C@_06EHHH@OpenGL?$AA@   0047b030     Lesson2.obj
 0003:00001038       ??_C@_07EEGN@Waiting?$AA@  0047b038     Lesson2.obj
 0003:00001040       ??_C@_04MIJE@3DTA?$AA@     0047b040     Lesson2.obj
 0003:00001048       ??_C@_07MOKN@ScreenY?$AA@  0047b048     Lesson2.obj
 0003:00001050       ??_C@_07GEDK@ScreenX?$AA@  0047b050     Lesson2.obj
 0003:00001058       ??_C@_0L@HD@FullScreen?$AA@ 0047b058     Lesson2.obj
 0003:00001070       ??_R0?AVCMiniMap@@@8       0047b070     MiniMap.obj
 0003:00001088       ??_C@_07HGKM@DrawMap?$AA@  0047b088     MiniMap.obj
 0003:00001090       ??_C@_07OGCP@Minimap?$AA@  0047b090     MiniMap.obj
 0003:000010a0       ??_R0?AVCMouseHandler@@@8  0047b0a0     MouseHandler.obj
 0003:000010bc       ??_C@_08DOAI@InvMouse?$AA@ 0047b0bc     MouseHandler.obj
 0003:000010c8       ??_C@_0L@FNND@MouseSpeed?$AA@ 0047b0c8     MouseHandler.obj
 0003:000010d4       ??_C@_0M@CGOO@mouse?5error?$AA@ 0047b0d4     MouseHandler.obj
 0003:000010e0       ??_C@_05COLM@error?$AA@    0047b0e0     MouseHandler.obj
 0003:000010e8       ?numTextureUnits@@3HA      0047b0e8     myGL.obj
 0003:000010ec       ?maxTexelUnits@@3HA        0047b0ec     myGL.obj
 0003:000010f0       ??_C@_0BA@CMIE@wglFreeMemoryNV?$AA@ 0047b0f0     myGL.obj
 0003:00001100       ??_C@_0BE@JMCI@wglAllocateMemoryNV?$AA@ 0047b100     myGL.obj
 0003:00001114       ??_C@_0BF@NEKF@glVertexArrayRangeNV?$AA@ 0047b114     myGL.obj
 0003:0000112c       ??_C@_0BK@PALM@glFlushVertexArrayRangeNV?$AA@ 0047b12c     myGL.obj
 0003:00001148       ??_C@_0BJ@MCO@GL_NV_vertex_array_range?$AA@ 0047b148     myGL.obj
 0003:00001164       ??_C@_0CF@JOEM@glGetFinalCombinerInputParameter@ 0047b164     myGL.obj
 0003:0000118c       ??_C@_0CF@EOGC@glGetFinalCombinerInputParameter@ 0047b18c     myGL.obj
 0003:000011b4       ??_C@_0CB@EJCC@glGetCombinerOutputParameterivNV@ 0047b1b4     myGL.obj
 0003:000011d8       ??_C@_0CB@JJAM@glGetCombinerOutputParameterfvNV@ 0047b1d8     myGL.obj
 0003:000011fc       ??_C@_0CA@MJDA@glGetCombinerInputParameterivNV?$AA@ 0047b1fc     myGL.obj
 0003:0000121c       ??_C@_0CA@BJBO@glGetCombinerInputParameterfvNV?$AA@ 0047b21c     myGL.obj
 0003:0000123c       ??_C@_0BH@BMKE@glFinalCombinerInputNV?$AA@ 0047b23c     myGL.obj
 0003:00001254       ??_C@_0BD@JOPG@glCombinerOutputNV?$AA@ 0047b254     myGL.obj
 0003:00001268       ??_C@_0BC@CCPE@glCombinerInputNV?$AA@ 0047b268     myGL.obj
 0003:0000127c       ??_C@_0BH@OAAF@glCombinerParameteriNV?$AA@ 0047b27c     myGL.obj
 0003:00001294       ??_C@_0BI@GINF@glCombinerParameterivNV?$AA@ 0047b294     myGL.obj
 0003:000012ac       ??_C@_0BH@MONB@glCombinerParameterfNV?$AA@ 0047b2ac     myGL.obj
 0003:000012c4       ??_C@_0BI@LIPL@glCombinerParameterfvNV?$AA@ 0047b2c4     myGL.obj
 0003:000012dc       ??_C@_0BJ@ILPO@GL_NV_register_combiners?$AA@ 0047b2dc     myGL.obj
 0003:000012f8       ??_C@_0P@HHPL@glGetFenceivNV?$AA@ 0047b2f8     myGL.obj
 0003:00001308       ??_C@_0M@HOHF@glIsFenceNV?$AA@ 0047b308     myGL.obj
 0003:00001314       ??_C@_0BA@MFGK@glFinishFenceNV?$AA@ 0047b314     myGL.obj
 0003:00001324       ??_C@_0O@JFGE@glTestFenceNV?$AA@ 0047b324     myGL.obj
 0003:00001334       ??_C@_0N@KMGB@glSetFenceNV?$AA@ 0047b334     myGL.obj
 0003:00001344       ??_C@_0BB@LDDE@glDeleteFencesNV?$AA@ 0047b344     myGL.obj
 0003:00001358       ??_C@_0O@GJEF@glGenFencesNV?$AA@ 0047b358     myGL.obj
 0003:00001368       ??_C@_0M@MBFH@GL_NV_fence?$AA@ 0047b368     myGL.obj
 0003:00001374       ??_C@_0BL@BCEC@glSecondaryColorPointerEXT?$AA@ 0047b374     myGL.obj
 0003:00001390       ??_C@_0BI@LFHA@glSecondaryColor3usvEXT?$AA@ 0047b390     myGL.obj
 0003:000013a8       ??_C@_0BH@GEAE@glSecondaryColor3usEXT?$AA@ 0047b3a8     myGL.obj
 0003:000013c0       ??_C@_0BI@PGEF@glSecondaryColor3uivEXT?$AA@ 0047b3c0     myGL.obj
 0003:000013d8       ??_C@_0BH@FBBB@glSecondaryColor3uiEXT?$AA@ 0047b3d8     myGL.obj
 0003:000013f0       ??_C@_0BI@BHAA@glSecondaryColor3ubvEXT?$AA@ 0047b3f0     myGL.obj
 0003:00001408       ??_C@_0BH@BEHH@glSecondaryColor3ubEXT?$AA@ 0047b408     myGL.obj
 0003:00001420       ??_C@_0BH@BEMB@glSecondaryColor3svEXT?$AA@ 0047b420     myGL.obj
 0003:00001438       ??_C@_0BG@NFCO@glSecondaryColor3sEXT?$AA@ 0047b438     myGL.obj
 0003:00001450       ??_C@_0BH@FHPE@glSecondaryColor3ivEXT?$AA@ 0047b450     myGL.obj
 0003:00001468       ??_C@_0BG@OADL@glSecondaryColor3iEXT?$AA@ 0047b468     myGL.obj
 0003:00001480       ??_C@_0BH@DGCE@glSecondaryColor3fvEXT?$AA@ 0047b480     myGL.obj
 0003:00001498       ??_C@_0BG@DABF@glSecondaryColor3fEXT?$AA@ 0047b498     myGL.obj
 0003:000014b0       ??_C@_0BH@HGGO@glSecondaryColor3dvEXT?$AA@ 0047b4b0     myGL.obj
 0003:000014c8       ??_C@_0BG@HKLB@glSecondaryColor3dEXT?$AA@ 0047b4c8     myGL.obj
 0003:000014e0       ??_C@_0BH@LGLB@glSecondaryColor3bvEXT?$AA@ 0047b4e0     myGL.obj
 0003:000014f8       ??_C@_0BG@KFFN@glSecondaryColor3bEXT?$AA@ 0047b4f8     myGL.obj
 0003:00001510       ??_C@_0BH@NDOL@GL_EXT_secondary_color?$AA@ 0047b510     myGL.obj
 0003:00001528       ??_C@_0BF@DDPL@glFogCoordPointerEXT?$AA@ 0047b528     myGL.obj
 0003:00001540       ??_C@_0BA@LDLF@glFogCoordfvEXT?$AA@ 0047b540     myGL.obj
 0003:00001550       ??_C@_0P@KBJD@glFogCoordfEXT?$AA@ 0047b550     myGL.obj
 0003:00001560       ??_C@_0BA@PDPP@glFogCoorddvEXT?$AA@ 0047b560     myGL.obj
 0003:00001570       ??_C@_0P@OLDH@glFogCoorddEXT?$AA@ 0047b570     myGL.obj
 0003:00001580       ??_C@_0BB@MPKL@GL_EXT_fog_coord?$AA@ 0047b580     myGL.obj
 0003:00001594       ??_C@_0BD@NDLE@glBlendEquationEXT?$AA@ 0047b594     myGL.obj
 0003:000015a8       ??_C@_0BE@HEDF@GL_EXT_blend_minmax?$AA@ 0047b5a8     myGL.obj
 0003:000015bc       ??_C@_0BA@DEF@glBlendColorEXT?$AA@ 0047b5bc     myGL.obj
 0003:000015cc       ??_C@_0BD@BMBI@GL_EXT_blend_color?$AA@ 0047b5cc     myGL.obj
 0003:000015e0       ??_C@_0BJ@NIEC@glClientActiveTextureARB?$AA@ 0047b5e0     myGL.obj
 0003:000015fc       ??_C@_0BD@IJD@glActiveTextureARB?$AA@ 0047b5fc     myGL.obj
 0003:00001610       ??_C@_0BG@KOJP@glMultiTexCoord4svARB?$AA@ 0047b610     myGL.obj
 0003:00001628       ??_C@_0BF@FEPP@glMultiTexCoord4sARB?$AA@ 0047b628     myGL.obj
 0003:00001640       ??_C@_0BG@ONKK@glMultiTexCoord4ivARB?$AA@ 0047b640     myGL.obj
 0003:00001658       ??_C@_0BF@GBOK@glMultiTexCoord4iARB?$AA@ 0047b658     myGL.obj
 0003:00001670       ??_C@_0BG@IMHK@glMultiTexCoord4fvARB?$AA@ 0047b670     myGL.obj
 0003:00001688       ??_C@_0BF@LBME@glMultiTexCoord4fARB?$AA@ 0047b688     myGL.obj
 0003:000016a0       ??_C@_0BG@MMDA@glMultiTexCoord4dvARB?$AA@ 0047b6a0     myGL.obj
 0003:000016b8       ??_C@_0BF@PLGA@glMultiTexCoord4dARB?$AA@ 0047b6b8     myGL.obj
 0003:000016d0       ??_C@_0BG@EGPP@glMultiTexCoord3svARB?$AA@ 0047b6d0     myGL.obj
 0003:000016e8       ??_C@_0BF@DEAF@glMultiTexCoord3sARB?$AA@ 0047b6e8     myGL.obj
 0003:00001700       ??_C@_0BG@FMK@glMultiTexCoord3ivARB?$AA@ 0047b700     myGL.obj
 0003:00001718       ??_C@_0BF@BBA@glMultiTexCoord3iARB?$AA@ 0047b718     myGL.obj
 0003:00001730       ??_C@_0BG@GEBK@glMultiTexCoord3fvARB?$AA@ 0047b730     myGL.obj
 0003:00001748       ??_C@_0BF@NBDO@glMultiTexCoord3fARB?$AA@ 0047b748     myGL.obj
 0003:00001760       ??_C@_0BG@CEFA@glMultiTexCoord3dvARB?$AA@ 0047b760     myGL.obj
 0003:00001778       ??_C@_0BF@JLJK@glMultiTexCoord3dARB?$AA@ 0047b778     myGL.obj
 0003:00001790       ??_C@_0BG@NDFP@glMultiTexCoord2svARB?$AA@ 0047b790     myGL.obj
 0003:000017a8       ??_C@_0BF@JECA@glMultiTexCoord2sARB?$AA@ 0047b7a8     myGL.obj
 0003:000017c0       ??_C@_0BG@JAGK@glMultiTexCoord2ivARB?$AA@ 0047b7c0     myGL.obj
 0003:000017d8       ??_C@_0BF@KBDF@glMultiTexCoord2iARB?$AA@ 0047b7d8     myGL.obj
 0003:000017f0       ??_C@_0BG@PBLK@glMultiTexCoord2fvARB?$AA@ 0047b7f0     myGL.obj
 0003:00001808       ??_C@_0BF@HBBL@glMultiTexCoord2fARB?$AA@ 0047b808     myGL.obj
 0003:00001820       ??_C@_0BG@LBPA@glMultiTexCoord2dvARB?$AA@ 0047b820     myGL.obj
 0003:00001838       ??_C@_0BF@DLLP@glMultiTexCoord2dARB?$AA@ 0047b838     myGL.obj
 0003:00001850       ??_C@_0BG@GNLP@glMultiTexCoord1svARB?$AA@ 0047b850     myGL.obj
 0003:00001868       ??_C@_0BF@HEEP@glMultiTexCoord1sARB?$AA@ 0047b868     myGL.obj
 0003:00001880       ??_C@_0BG@COIK@glMultiTexCoord1ivARB?$AA@ 0047b880     myGL.obj
 0003:00001898       ??_C@_0BF@EBFK@glMultiTexCoord1iARB?$AA@ 0047b898     myGL.obj
 0003:000018b0       ??_C@_0BG@EPFK@glMultiTexCoord1fvARB?$AA@ 0047b8b0     myGL.obj
 0003:000018c8       ??_C@_0BF@JBHE@glMultiTexCoord1fARB?$AA@ 0047b8c8     myGL.obj
 0003:000018e0       ??_C@_0BG@PBA@glMultiTexCoord1dvARB?$AA@ 0047b8e0     myGL.obj
 0003:000018f8       ??_C@_0BF@NLNA@glMultiTexCoord1dARB?$AA@ 0047b8f8     myGL.obj
 0003:00001910       ??_C@_0BE@EHGK@GL_ARB_multitexture?$AA@ 0047b910     myGL.obj
 0003:00001924       ??_C@_0BL@NCJN@GL_EXT_texture_env_combine?$AA@ 0047b924     myGL.obj
 0003:00001940       ??_C@_07OCFI@ext?4txt?$AA@ 0047b940     myGL.obj
 0003:00001948       ??_C@_0BI@GLAM@GL_ARB_texture_env_dot3?$AA@ 0047b948     myGL.obj
 0003:00001960       ??_R0?AVCObject@@@8        0047b960     Object.obj
 0003:00001978       ??_R0?AVCProjectileHandler@@@8 0047b978     ProjectileHandler.obj
 0003:0000199c       ??_C@_0BA@ICKK@Mapping?5weapons?$AA@ 0047b99c     ProjectileHandler.obj
 0003:000019ac       ??_C@_0P@OOP@Drawing?5extras?$AA@ 0047b9ac     ProjectileHandler.obj
 0003:000019bc       ??_C@_09PMOK@wreck001c?$AA@ 0047b9bc     ProjectileHandler.obj
 0003:000019c8       ??_C@_0BF@PJLH@Unknown?5render?5type?5?$AA@ 0047b9c8     ProjectileHandler.obj
 0003:000019e0       ??_C@_0BE@GMLH@for?5projectile?5type?$AA@ 0047b9e0     ProjectileHandler.obj
 0003:000019f4       ??_C@_04BJJK@?43do?$AA@    0047b9f4     ProjectileHandler.obj
 0003:000019fc       ??_C@_0L@NBBH@objects3d?2?$AA@ 0047b9fc     ProjectileHandler.obj
 0003:00001a08       ??_C@_06NDFO@?4model?$AA@  0047ba08     ProjectileHandler.obj
 0003:00001a10       ??_C@_07HBKG@?4color2?$AA@ 0047ba10     ProjectileHandler.obj
 0003:00001a18       ??_C@_06BIKF@?4color?$AA@  0047ba18     ProjectileHandler.obj
 0003:00001a20       ??_C@_0M@BLLE@?4rendertype?$AA@ 0047ba20     ProjectileHandler.obj
 0003:00001a2c       ??_C@_0BF@GFLP@Couldnt?5find?5weapon?5?$AA@ 0047ba2c     ProjectileHandler.obj
 0003:00001a44       ??_C@_08JIOP@weapons?2?$AA@ 0047ba44     ProjectileHandler.obj
 0003:00001a50       ??_R0?AVCReadMap@@@8       0047ba50     ReadMap.obj
 0003:00001a68       ??_C@_0BG@KINL@bitmaps?2detailtex?4jpg?$AA@ 0047ba68     ReadMap.obj
 0003:00001a80       ??_C@_0BH@NHMO@Loading?5detail?5texture?$AA@ 0047ba80     ReadMap.obj
 0003:00001a98       ??_C@_0BJ@ICNC@Creating?5surface?5normals?$AA@ 0047ba98     ReadMap.obj
 0003:00001ab4       ??_C@_0BK@MGJ@Creating?5overhead?5texture?$AA@ 0047bab4     ReadMap.obj
 0003:00001ad0       ??_C@_0BH@JECN@Creating?5tile?5textures?$AA@ 0047bad0     ReadMap.obj
 0003:00001ae8       ??_C@_0O@BOKC@Loading?5tiles?$AA@ 0047bae8     ReadMap.obj
 0003:00001af8       ??_C@_09IFGM@FilterMap?$AA@ 0047baf8     ReadMap.obj
 0003:00001b04       ??_C@_0BM@NEOH@Loading?5height?$CLfeature?5data?$AA@ 0047bb04     ReadMap.obj
 0003:00001b20       ??_C@_0BC@NOEH@Error?5opening?5map?$AA@ 0047bb20     ReadMap.obj
 0003:00001b34       ??_C@_0BFA@DEBL@Couldnt?5find?5the?5file?5?$CFs?4?5Make?5s@ 0047bb34     ReadMap.obj
 0003:00001c84       ??_C@_0EO@GKKL@The?5map?5name?5is?5empty?4?5Make?5sure@ 0047bc84     ReadMap.obj
 0003:00001cd4       ??_C@_0P@CHPK@maps?2tetra?4tnt?$AA@ 0047bcd4     ReadMap.obj
 0003:00001ce4       ??_C@_0BB@CFKI@Opening?5map?5file?$AA@ 0047bce4     ReadMap.obj
 0003:00001cf8       ??_C@_0BL@CHPM@Software?2Yankspankers?23dta?$AA@ 0047bcf8     RegHandler.obj
 0003:00001d18       ??_R0?AVRegHandler@@@8     0047bd18     RegHandler.obj
 0003:00001d34       ??_C@_0P@GJLM@Registry?5error?$AA@ 0047bd34     RegHandler.obj
 0003:00001d48       ??_R0?AVCSky@@@8           0047bd48     Sky.obj
 0003:00001d5c       ??_C@_0L@MKIH@DynamicSky?$AA@ 0047bd5c     Sky.obj
 0003:00001d68       ??_C@_0N@OJGG@Creating?5sky?$AA@ 0047bd68     Sky.obj
 0003:00001d78       ??_C@_0M@CIMG@Drawing?5sky?$AA@ 0047bd78     Sky.obj
 0003:00001d88       ??_R0?AVCTAPalette@@@8     0047bd88     TAPalette.obj
 0003:00001da4       ??_C@_0M@HLMC@palette?4pal?$AA@ 0047bda4     TAPalette.obj
 0003:00001db0       ??_R0?AVCTextureHandler@@@8 0047bdb0     TextureHandler.obj
 0003:00001dd0       ??_C@_09DJAG@tatex?4bin?$AA@ 0047bdd0     TextureHandler.obj
 0003:00001ddc       ??_C@_09GBBG@tatex?4bmp?$AA@ 0047bddc     TextureHandler.obj
 0003:00001de8       ??_C@_0BM@DDIC@Error?5couldnt?5find?5texture?5?$AA@ 0047bde8     TextureHandler.obj
 0003:00001e04       ??_C@_0BD@MHD@New?5texture?5found?5?$AA@ 0047be04     TextureHandler.obj
 0003:00001e18       ??_R0?AVCTimeProfiler@@@8  0047be18     TimeProfiler.obj
 0003:00001e34       ??_C@_0BE@KAFC@?$CF20s?5?$CF6?42fs?5?$CF5?42f?$CF?$CF?$AA@ 0047be34     TimeProfiler.obj
 0003:00001e48       ??_R0?AVCTreeDrawer@@@8    0047be48     TreeDrawer.obj
 0003:00001e64       ??_C@_0L@DIBM@?4animtrans?$AA@ 0047be64     TreeDrawer.obj
 0003:00001e70       ??_C@_08EGEA@?4seqname?$AA@ 0047be70     TreeDrawer.obj
 0003:00001e7c       ??_C@_09CEOA@?4blocking?$AA@ 0047be7c     TreeDrawer.obj
 0003:00001e88       ??_C@_0N@DFEK@?4reclaimable?$AA@ 0047be88     TreeDrawer.obj
 0003:00001e98       ??_C@_0BA@DGLE@?4indestructible?$AA@ 0047be98     TreeDrawer.obj
 0003:00001ea8       ??_C@_0L@IJNN@oolok?5tree?$AA@ 0047bea8     TreeDrawer.obj
 0003:00001eb4       ??_C@_04LIIK@tree?$AA@     0047beb4     TreeDrawer.obj
 0003:00001ebc       ??_C@_0N@NFMJ@?4description?$AA@ 0047bebc     TreeDrawer.obj
 0003:00001ecc       ??_C@_07GGHI@?4object?$AA@ 0047becc     TreeDrawer.obj
 0003:00001ed4       ??_C@_09MGBK@DrawScars?$AA@ 0047bed4     TreeDrawer.obj
 0003:00001ee0       ??_C@_0BC@ILPA@bitmaps?2gran2?4bmp?$AA@ 0047bee0     TreeDrawer.obj
 0003:00001ef4       ??_C@_0BB@DOAF@bitmaps?2gran?4bmp?$AA@ 0047bef4     TreeDrawer.obj
 0003:00001f08       ??_C@_0BF@MPGA@Loading?5tree?5texture?$AA@ 0047bf08     TreeDrawer.obj
 0003:00001f20       ??_C@_0BB@GOIL@Drawing?5features?$AA@ 0047bf20     TreeDrawer.obj
 0003:00001f34       ??_C@_06OFNA@anims?2?$AA@  0047bf34     TreeDrawer.obj
 0003:00001f3c       ??_C@_09KANI@?4filename?$AA@ 0047bf3c     TreeDrawer.obj
 0003:00001f88       ??_R0?AVCUnitDrawer@@@8    0047bf88     UnitDrawer.obj
 0003:00001fa4       ??_C@_08CEF@CmdNames?$AA@  0047bfa4     UnitDrawer.obj
 0003:00001fb0       ??_C@_09CNMP@KillCount?$AA@ 0047bfb0     UnitDrawer.obj
 0003:00001fbc       ??_C@_0L@KPGJ@HealthBars?$AA@ 0047bfbc     UnitDrawer.obj
 0003:00001fc8       ??_C@_0O@KOMH@Drawing?5units?$AA@ 0047bfc8     UnitDrawer.obj
 0003:00001fd8       ??_C@_02MECO@?$CFd?$AA@    0047bfd8     UnitDrawer.obj
 0003:00001fe0       ??_R0?AVCVertexArray@@@8   0047bfe0     VertexArray.obj
 0003:00002000       ??_R0?AVCVertexArrayRange@@@8 0047c000     VertexArrayRange.obj
 0003:00002020       _windInfo                  0047c020     glaux:tk.obj
 0003:00002040       _tkPopupEnable             0047c040     glaux:tk.obj
 0003:00002044       _tkNumStaticColors         0047c044     glaux:tk.obj
 0003:00002048       _gacrBlackAndWhite         0047c048     glaux:tk.obj
 0003:000020b0       _gaiStaticIndex            0047c0b0     glaux:tk.obj
 0003:00002118       _gaszSysClrNames           0047c118     glaux:tk.obj
 0003:0000217c       _lpszClassName             0047c17c     glaux:tk.obj
 0003:00002180       _lpszClassNameW            0047c180     glaux:tk.obj
 0003:00002188       _colorMaps                 0047c188     glaux:tk.obj
 0003:00002d88       _auxRGBMap                 0047cd88     glaux:tk.obj
 0003:00002e78       _abThreeToEight            0047ce78     glaux:tk.obj
 0003:00002e80       _abTwoToEight              0047ce80     glaux:tk.obj
 0003:00002e84       _abOneToEight              0047ce84     glaux:tk.obj
 0003:00002e88       _aiDefaultOverride         0047ce88     glaux:tk.obj
 0003:00002ed8       _apeDefaultPalEntry        0047ced8     glaux:tk.obj
 0003:00002f28       ??_C@_0CL@KPEE@Application?5transferred?5too?5many@ 0047cf28     jpeg:jerror.obj
 0003:00002f54       ??_C@_0CL@DGCP@Invalid?5SOS?5parameters?5for?5seque@ 0047cf54     jpeg:jerror.obj
 0003:00002f80       ??_C@_0DI@KKMD@Corrupt?5JPEG?5data?3?5found?5marker?5@ 0047cf80     jpeg:jerror.obj
 0003:00002fb8       ??_C@_0BL@CCLA@Premature?5end?5of?5JPEG?5file?$AA@ 0047cfb8     jpeg:jerror.obj
 0003:00002fd4       ??_C@_0CO@KOEI@Warning?3?5unknown?5JFIF?5revision?5n@ 0047cfd4     jpeg:jerror.obj
 0003:00003004       ??_C@_0CE@LJLO@Corrupt?5JPEG?5data?3?5bad?5Huffman?5c@ 0047d004     jpeg:jerror.obj
 0003:00003028       ??_C@_0DB@NJCK@Corrupt?5JPEG?5data?3?5premature?5end@ 0047d028     jpeg:jerror.obj
 0003:0000305c       ??_C@_0DM@LCPP@Corrupt?5JPEG?5data?3?5?$CFu?5extraneous@ 0047d05c     jpeg:jerror.obj
 0003:00003098       ??_C@_0EC@HHMG@Inconsistent?5progression?5sequenc@ 0047d098     jpeg:jerror.obj
 0003:000030dc       ??_C@_0CG@NMIJ@Unknown?5Adobe?5color?5transform?5co@ 0047d0dc     jpeg:jerror.obj
 0003:00003104       ??_C@_0BH@FJIP@Obtained?5XMS?5handle?5?$CFu?$AA@ 0047d104     jpeg:jerror.obj
 0003:0000311c       ??_C@_0BE@OPPB@Freed?5XMS?5handle?5?$CFu?$AA@ 0047d11c     jpeg:jerror.obj
 0003:00003130       ??_C@_0DE@HBF@Unrecognized?5component?5IDs?5?$CFd?5?$CFd@ 0047d130     jpeg:jerror.obj
 0003:00003164       ??_C@_0DG@OMEL@JFIF?5extension?5marker?3?5RGB?5thumb@ 0047d164     jpeg:jerror.obj
 0003:0000319c       ??_C@_0DK@DDOL@JFIF?5extension?5marker?3?5palette?5t@ 0047d19c     jpeg:jerror.obj
 0003:000031d8       ??_C@_0EC@OLOP@JFIF?5extension?5marker?3?5JPEG?9comp@ 0047d1d8     jpeg:jerror.obj
 0003:0000321c       ??_C@_0BJ@EFFL@Opened?5temporary?5file?5?$CFs?$AA@ 0047d21c     jpeg:jerror.obj
 0003:00003238       ??_C@_0BJ@DBD@Closed?5temporary?5file?5?$CFs?$AA@ 0047d238     jpeg:jerror.obj
 0003:00003254       ??_C@_0BN@DPAO@?5?5Ss?$DN?$CFd?0?5Se?$DN?$CFd?0?5Ah?$DN?$CFd?0?5Al?$DN?$CFd?$AA@ 0047d254     jpeg:jerror.obj
 0003:00003274       ??_C@_0BO@DMDD@?5?5?5?5Component?5?$CFd?3?5dc?$DN?$CFd?5ac?$DN?$CFd?$AA@ 0047d274     jpeg:jerror.obj
 0003:00003294       ??_C@_0BN@BLFJ@Start?5Of?5Scan?3?5?$CFd?5components?$AA@ 0047d294     jpeg:jerror.obj
 0003:000032b4       ??_C@_0P@FAEJ@Start?5of?5Image?$AA@ 0047d2b4     jpeg:jerror.obj
 0003:000032c4       ??_C@_0BP@FKBK@?5?5?5?5Component?5?$CFd?3?5?$CFdhx?$CFdv?5q?$DN?$CFd?$AA@ 0047d2c4     jpeg:jerror.obj
 0003:000032e4       ??_C@_0DK@IGCC@Start?5Of?5Frame?50x?$CF02x?3?5width?$DN?$CFu?0@ 0047d2e4     jpeg:jerror.obj
 0003:00003320       ??_C@_0DJ@BEKA@Smoothing?5not?5supported?5with?5non@ 0047d320     jpeg:jerror.obj
 0003:0000335c       ??_C@_05NKN@RST?$CFd?$AA@  0047d35c     jpeg:jerror.obj
 0003:00003364       ??_C@_0CF@DIDH@At?5marker?50x?$CF02x?0?5recovery?5actio@ 0047d364     jpeg:jerror.obj
 0003:0000338c       ??_C@_0CE@OOJH@Selected?5?$CFd?5colors?5for?5quantizat@ 0047d38c     jpeg:jerror.obj
 0003:000033b0       ??_C@_0BI@IPAL@Quantizing?5to?5?$CFd?5colors?$AA@ 0047d3b0     jpeg:jerror.obj
 0003:000033c8       ??_C@_0CD@IBAL@Quantizing?5to?5?$CFd?5?$DN?5?$CFd?$CK?$CFd?$CK?$CFd?5colo@ 0047d3c8     jpeg:jerror.obj
 0003:000033ec       ??_C@_0CI@JOIL@?5?5?5?5?5?5?5?5?$CF4u?5?$CF4u?5?$CF4u?5?$CF4u?5?$CF4u?5?$CF4u?5@ 0047d3ec     jpeg:jerror.obj
 0003:00003414       ??_C@_0BJ@LGOI@Unexpected?5marker?50x?$CF02x?$AA@ 0047d414     jpeg:jerror.obj
 0003:00003430       ??_C@_0CH@NFBM@Miscellaneous?5marker?50x?$CF02x?0?5len@ 0047d430     jpeg:jerror.obj
 0003:00003458       ??_C@_0CB@KGBF@?5?5?5?5with?5?$CFd?5x?5?$CFd?5thumbnail?5image@ 0047d458     jpeg:jerror.obj
 0003:0000347c       ??_C@_0CO@MHNF@JFIF?5extension?5marker?3?5type?50x?$CF0@ 0047d47c     jpeg:jerror.obj
 0003:000034ac       ??_C@_0DM@PAHO@Warning?3?5thumbnail?5image?5size?5do@ 0047d4ac     jpeg:jerror.obj
 0003:000034e8       ??_C@_0DF@PJO@JFIF?5APP0?5marker?3?5version?5?$CFd?4?$CF02@ 0047d4e8     jpeg:jerror.obj
 0003:00003520       ??_C@_0CI@HOID@?5?5?5?5?5?5?5?5?$CF3d?5?$CF3d?5?$CF3d?5?$CF3d?5?$CF3d?5?$CF3d?5@ 0047d520     jpeg:jerror.obj
 0003:00003548       ??_C@_0N@CBOJ@End?5Of?5Image?$AA@ 0047d548     jpeg:jerror.obj
 0003:00003558       ??_C@_0BH@NAOE@Obtained?5EMS?5handle?5?$CFu?$AA@ 0047d558     jpeg:jerror.obj
 0003:00003570       ??_C@_0BE@GGJK@Freed?5EMS?5handle?5?$CFu?$AA@ 0047d570     jpeg:jerror.obj
 0003:00003584       ??_C@_0BL@COFD@Define?5Restart?5Interval?5?$CFu?$AA@ 0047d584     jpeg:jerror.obj
 0003:000035a0       ??_C@_0CL@OPD@Define?5Quantization?5Table?5?$CFd?5?5pr@ 0047d5a0     jpeg:jerror.obj
 0003:000035cc       ??_C@_0BM@NIIN@Define?5Huffman?5Table?50x?$CF02x?$AA@ 0047d5cc     jpeg:jerror.obj
 0003:000035e8       ??_C@_0CH@CAM@Define?5Arithmetic?5Table?50x?$CF02x?3?5@ 0047d5e8     jpeg:jerror.obj
 0003:00003610       ??_C@_0CM@ONLH@Unknown?5APP14?5marker?5?$CInot?5Adobe?$CJ@ 0047d610     jpeg:jerror.obj
 0003:0000363c       ??_C@_0CK@CFHB@Unknown?5APP0?5marker?5?$CInot?5JFIF?$CJ?0?5@ 0047d63c     jpeg:jerror.obj
 0003:00003668       ??_C@_0EC@JKMJ@Adobe?5APP14?5marker?3?5version?5?$CFd?0?5@ 0047d668     jpeg:jerror.obj
 0003:000036ac       ??_C@_0DO@IFPM@Caution?3?5quantization?5tables?5are@ 0047d6ac     jpeg:jerror.obj
 0003:000036ec       ??_C@_0BA@BDJA@6b?5?527?9Mar?91998?$AA@ 0047d6ec     jpeg:jerror.obj
 0003:000036fc       ??_C@_0CD@CFGJ@Copyright?5?$CIC?$CJ?51998?0?5Thomas?5G?4?5La@ 0047d6fc     jpeg:jerror.obj
 0003:00003720       ??_C@_0BE@PGKE@Write?5to?5XMS?5failed?$AA@ 0047d720     jpeg:jerror.obj
 0003:00003734       ??_C@_0BF@MCFF@Read?5from?5XMS?5failed?$AA@ 0047d734     jpeg:jerror.obj
 0003:0000374c       ??_C@_0CH@JLNP@Image?5too?5wide?5for?5this?5implemen@ 0047d74c     jpeg:jerror.obj
 0003:00003774       ??_C@_0CD@CKND@Virtual?5array?5controller?5messed?5@ 0047d774     jpeg:jerror.obj
 0003:00003798       ??_C@_0BP@GHDH@Unsupported?5marker?5type?50x?$CF02x?$AA@ 0047d798     jpeg:jerror.obj
 0003:000037b8       ??_C@_0CK@HFBB@Application?5transferred?5too?5few?5@ 0047d7b8     jpeg:jerror.obj
 0003:000037e4       ??_C@_0DG@FGBC@Write?5failed?5on?5temporary?5file?5?9@ 0047d7e4     jpeg:jerror.obj
 0003:0000381c       ??_C@_0BO@POJN@Seek?5failed?5on?5temporary?5file?$AA@ 0047d81c     jpeg:jerror.obj
 0003:0000383c       ??_C@_0BO@NLPB@Read?5failed?5on?5temporary?5file?$AA@ 0047d83c     jpeg:jerror.obj
 0003:0000385c       ??_C@_0CD@OPHA@Failed?5to?5create?5temporary?5file?5@ 0047d85c     jpeg:jerror.obj
 0003:00003880       ??_C@_0CM@LEOA@Invalid?5JPEG?5file?5structure?3?5SOS@ 0047d880     jpeg:jerror.obj
 0003:000038ac       ??_C@_0CN@BOPG@Invalid?5JPEG?5file?5structure?3?5two@ 0047d8ac     jpeg:jerror.obj
 0003:000038dc       ??_C@_0CK@JIMH@Unsupported?5JPEG?5process?3?5SOF?5ty@ 0047d8dc     jpeg:jerror.obj
 0003:00003908       ??_C@_0DA@EFHH@Invalid?5JPEG?5file?5structure?3?5mis@ 0047d908     jpeg:jerror.obj
 0003:00003938       ??_C@_0CN@EDEP@Invalid?5JPEG?5file?5structure?3?5two@ 0047d938     jpeg:jerror.obj
 0003:00003968       ??_C@_0CH@GIKM@Cannot?5quantize?5to?5more?5than?5?$CFd?5@ 0047d968     jpeg:jerror.obj
 0003:00003990       ??_C@_0CI@GPJB@Cannot?5quantize?5to?5fewer?5than?5?$CFd@ 0047d990     jpeg:jerror.obj
 0003:000039b8       ??_C@_0CO@BMMA@Cannot?5quantize?5more?5than?5?$CFd?5col@ 0047d9b8     jpeg:jerror.obj
 0003:000039e8       ??_C@_0BO@DGCL@Insufficient?5memory?5?$CIcase?5?$CFd?$CJ?$AA@ 0047d9e8     jpeg:jerror.obj
 0003:00003a08       ??_C@_0CL@CCLH@Not?5a?5JPEG?5file?3?5starts?5with?50x?$CF@ 0047da08     jpeg:jerror.obj
 0003:00003a34       ??_C@_0CK@MKLH@Quantization?5table?50x?$CF02x?5was?5no@ 0047da34     jpeg:jerror.obj
 0003:00003a60       ??_C@_0CC@FLIL@JPEG?5datastream?5contains?5no?5imag@ 0047da60     jpeg:jerror.obj
 0003:00003a84       ??_C@_0CF@IGEA@Huffman?5table?50x?$CF02x?5was?5not?5def@ 0047da84     jpeg:jerror.obj
 0003:00003aac       ??_C@_0BM@LFDP@Backing?5store?5not?5supported?$AA@ 0047daac     jpeg:jerror.obj
 0003:00003ac8       ??_C@_0CO@LEJG@Requested?5feature?5was?5omitted?5at@ 0047dac8     jpeg:jerror.obj
 0003:00003af8       ??_C@_0BE@FPCJ@Not?5implemented?5yet?$AA@ 0047daf8     jpeg:jerror.obj
 0003:00003b0c       ??_C@_0CH@JKLM@Invalid?5color?5quantization?5mode?5@ 0047db0c     jpeg:jerror.obj
 0003:00003b34       ??_C@_0CH@IKIP@Scan?5script?5does?5not?5transmit?5al@ 0047db34     jpeg:jerror.obj
 0003:00003b5c       ??_C@_0DO@CPDA@Cannot?5transcode?5due?5to?5multiple@ 0047db5c     jpeg:jerror.obj
 0003:00003b9c       ??_C@_0BM@LFEG@Premature?5end?5of?5input?5file?$AA@ 0047db9c     jpeg:jerror.obj
 0003:00003bb8       ??_C@_0BB@CPJA@Empty?5input?5file?$AA@ 0047dbb8     jpeg:jerror.obj
 0003:00003bcc       ??_C@_0CP@OHKB@Maximum?5supported?5image?5dimensio@ 0047dbcc     jpeg:jerror.obj
 0003:00003bfc       ??_C@_0CB@LEBD@Missing?5Huffman?5code?5table?5entry@ 0047dbfc     jpeg:jerror.obj
 0003:00003c20       ??_C@_0CB@CLO@Huffman?5code?5size?5table?5overflow@ 0047dc20     jpeg:jerror.obj
 0003:00003c44       ??_C@_0CI@GGDO@Fractional?5sampling?5not?5implemen@ 0047dc44     jpeg:jerror.obj
 0003:00003c6c       ??_C@_0CP@LPEK@Output?5file?5write?5error?5?9?9?9?5out?5@ 0047dc6c     jpeg:jerror.obj
 0003:00003c9c       ??_C@_0BG@JKLB@Input?5file?5read?5error?$AA@ 0047dc9c     jpeg:jerror.obj
 0003:00003cb4       ??_C@_0CB@LEKJ@Didn?8t?5expect?5more?5than?5one?5scan@ 0047dcb4     jpeg:jerror.obj
 0003:00003cd8       ??_C@_0BE@MEFJ@Write?5to?5EMS?5failed?$AA@ 0047dcd8     jpeg:jerror.obj
 0003:00003cec       ??_C@_0BF@PAKI@Read?5from?5EMS?5failed?$AA@ 0047dcec     jpeg:jerror.obj
 0003:00003d04       ??_C@_0CF@NBMO@Empty?5JPEG?5image?5?$CIDNL?5not?5suppor@ 0047dd04     jpeg:jerror.obj
 0003:00003d2c       ??_C@_0BD@MHLJ@Bogus?5DQT?5index?5?$CFd?$AA@ 0047dd2c     jpeg:jerror.obj
 0003:00003d40       ??_C@_0BD@NBLE@Bogus?5DHT?5index?5?$CFd?$AA@ 0047dd40     jpeg:jerror.obj
 0003:00003d54       ??_C@_0BF@LMAO@Bogus?5DAC?5value?50x?$CFx?$AA@ 0047dd54     jpeg:jerror.obj
 0003:00003d6c       ??_C@_0BD@DMCO@Bogus?5DAC?5index?5?$CFd?$AA@ 0047dd6c     jpeg:jerror.obj
 0003:00003d80       ??_C@_0CF@POAA@Unsupported?5color?5conversion?5req@ 0047dd80     jpeg:jerror.obj
 0003:00003da8       ??_C@_0CG@GHCD@Too?5many?5color?5components?3?5?$CFd?0?5m@ 0047dda8     jpeg:jerror.obj
 0003:00003dd0       ??_C@_0CF@MONF@CCIR601?5sampling?5not?5implemented@ 0047ddd0     jpeg:jerror.obj
 0003:00003df8       ??_C@_0BM@MGNK@Suspension?5not?5allowed?5here?$AA@ 0047ddf8     jpeg:jerror.obj
 0003:00003e14       ??_C@_0CL@EPCK@Buffer?5passed?5to?5JPEG?5library?5is@ 0047de14     jpeg:jerror.obj
 0003:00003e40       ??_C@_0BL@IGMP@Bogus?5virtual?5array?5access?$AA@ 0047de40     jpeg:jerror.obj
 0003:00003e5c       ??_C@_0EN@HMFC@JPEG?5parameter?5struct?5mismatch?3?5@ 0047de5c     jpeg:jerror.obj
 0003:00003eac       ??_C@_0CK@CEON@Improper?5call?5to?5JPEG?5library?5in@ 0047deac     jpeg:jerror.obj
 0003:00003ed8       ??_C@_0CA@FMAB@Invalid?5scan?5script?5at?5entry?5?$CFd?$AA@ 0047ded8     jpeg:jerror.obj
 0003:00003ef8       ??_C@_0BH@MNN@Bogus?5sampling?5factors?$AA@ 0047def8     jpeg:jerror.obj
 0003:00003f10       ??_C@_0DH@DIJK@Invalid?5progressive?5parameters?5a@ 0047df10     jpeg:jerror.obj
 0003:00003f48       ??_C@_0DH@HHBL@Invalid?5progressive?5parameters?5S@ 0047df48     jpeg:jerror.obj
 0003:00003f80       ??_C@_0CD@BPNC@Unsupported?5JPEG?5data?5precision?5@ 0047df80     jpeg:jerror.obj
 0003:00003fa4       ??_C@_0BM@HOOF@Invalid?5memory?5pool?5code?5?$CFd?$AA@ 0047dfa4     jpeg:jerror.obj
 0003:00003fc0       ??_C@_0DA@FGHF@Sampling?5factors?5too?5large?5for?5i@ 0047dfc0     jpeg:jerror.obj
 0003:00003ff0       ??_C@_0DN@IBDJ@Wrong?5JPEG?5library?5version?3?5libr@ 0047dff0     jpeg:jerror.obj
 0003:00004030       ??_C@_0BE@DFMG@Bogus?5marker?5length?$AA@ 0047e030     jpeg:jerror.obj
 0003:00004044       ??_C@_0BG@NFIP@Bogus?5JPEG?5colorspace?$AA@ 0047e044     jpeg:jerror.obj
 0003:0000405c       ??_C@_0BH@FCFN@Bogus?5input?5colorspace?$AA@ 0047e05c     jpeg:jerror.obj
 0003:00004074       ??_C@_0BP@FKAG@Bogus?5Huffman?5table?5definition?$AA@ 0047e074     jpeg:jerror.obj
 0003:00004094       ??_C@_0CI@PMIN@IDCT?5output?5block?5size?5?$CFd?5not?5su@ 0047e094     jpeg:jerror.obj
 0003:000040bc       ??_C@_0BN@LHMG@DCT?5coefficient?5out?5of?5range?$AA@ 0047e0bc     jpeg:jerror.obj
 0003:000040dc       ??_C@_0BP@PHIG@Invalid?5component?5ID?5?$CFd?5in?5SOS?$AA@ 0047e0dc     jpeg:jerror.obj
 0003:000040fc       ??_C@_0BK@NLEP@Bogus?5buffer?5control?5mode?$AA@ 0047e0fc     jpeg:jerror.obj
 0003:00004118       ??_C@_0CF@JENB@MAX_ALLOC_CHUNK?5is?5wrong?0?5please@ 0047e118     jpeg:jerror.obj
 0003:00004140       ??_C@_0CA@GCN@ALIGN_TYPE?5is?5wrong?0?5please?5fix?$AA@ 0047e140     jpeg:jerror.obj
 0003:00004160       ??_C@_0DJ@LIJI@Sorry?0?5there?5are?5legal?5restricti@ 0047e160     jpeg:jerror.obj
 0003:0000419c       ??_C@_0BG@LNGG@Bogus?5message?5code?5?$CFd?$AA@ 0047e19c     jpeg:jerror.obj
 0003:000041b4       ??_C@_03HHKO@?$CFs?6?$AA@  0047e1b4     jpeg:jerror.obj
 0003:000041b8       ??_C@_05HLOL@?$CFld?$CFc?$AA@ 0047e1b8     jpeg:jmemmgr.obj
 0003:000041c0       ??_C@_07CBHP@JPEGMEM?$AA@  0047e1c0     jpeg:jmemmgr.obj
 0003:000041c8       ??_R0?AVlogic_error@std@@@8 0047e1c8     libcp:string.obj
 0003:000041e8       ??_R0?AVlength_error@std@@@8 0047e1e8     libcp:string.obj
 0003:00004208       ??_R0?AVout_of_range@std@@@8 0047e208     libcp:string.obj
 0003:00004228       ?_Init_cnt@Init@ios_base@std@@0HA 0047e228     libcp:iostream.obj
 0003:0000422c       ?_Init_cnt@_Winit@std@@0HA 0047e22c     libcp:wiostrea.obj
 0003:00004230       ??_R0?AV?$basic_ios@GU?$char_traits@G@std@@@std@@@8 0047e230     libcp:wiostrea.obj
 0003:00004268       ??_R0?AV?$basic_istream@GU?$char_traits@G@std@@@std@@@8 0047e268     libcp:wiostrea.obj
 0003:000042a8       ??_R0?AV?$basic_ostream@GU?$char_traits@G@std@@@std@@@8 0047e2a8     libcp:wiostrea.obj
 0003:000042e8       ??_R0?AV?$basic_filebuf@GU?$char_traits@G@std@@@std@@@8 0047e2e8     libcp:wiostrea.obj
 0003:00004328       ??_R0?AV?$basic_streambuf@GU?$char_traits@G@std@@@std@@@8 0047e328     libcp:wiostrea.obj
 0003:00004364       ?_Sync@ios_base@std@@0_NA  0047e364     libcp:ios.obj
 0003:00004368       ??_R0?AVruntime_error@std@@@8 0047e368     libcp:ios.obj
 0003:00004388       ??_R0?AVfailure@ios_base@std@@@8 0047e388     libcp:ios.obj
 0003:000043e8       ??_R0?AV_Locimp@locale@std@@@8 0047e3e8     libcp:locale0.obj
 0003:00004410       ??_R0?AV?$num_put@DV?$ostreambuf_iterator@DU?$char_traits@D@std@@@std@@@std@@@8 0047e410     libcp:locale.obj
 0003:00004468       ??_R0?AV?$num_get@DV?$istreambuf_iterator@DU?$char_traits@D@std@@@std@@@std@@@8 0047e468     libcp:locale.obj
 0003:000044c0       ??_R0?AV?$numpunct@D@std@@@8 0047e4c0     libcp:locale.obj
 0003:000044e0       ??_R0?AVbad_alloc@std@@@8  0047e4e0     libcp:nomemory.obj
 0003:00004500       ??_R0?AV?$ctype@G@std@@@8  0047e500     libcp:wlocale.obj
 0003:00004520       ??_R0?AV?$numpunct@G@std@@@8 0047e520     libcp:wlocale.obj
 0003:00004540       ??_R0?AV?$time_put@GV?$ostreambuf_iterator@GU?$char_traits@G@std@@@std@@@std@@@8 0047e540     libcp:wlocale.obj
 0003:00004598       ??_R0?AUtime_base@std@@@8  0047e598     libcp:wlocale.obj
 0003:000045b8       ??_R0?AV?$time_get@GV?$istreambuf_iterator@GU?$char_traits@G@std@@@std@@@std@@@8 0047e5b8     libcp:wlocale.obj
 0003:00004610       ??_R0?AV?$num_put@GV?$ostreambuf_iterator@GU?$char_traits@G@std@@@std@@@std@@@8 0047e610     libcp:wlocale.obj
 0003:00004668       ??_R0?AV?$moneypunct@G$00@std@@@8 0047e668     libcp:wlocale.obj
 0003:00004690       ??_R0?AUmoney_base@std@@@8 0047e690     libcp:wlocale.obj
 0003:000046b0       ??_R0?AV?$_Mpunct@G@std@@@8 0047e6b0     libcp:wlocale.obj
 0003:000046d0       ??_R0?AV?$moneypunct@G$0A@@std@@@8 0047e6d0     libcp:wlocale.obj
 0003:000046f8       ??_R0?AV?$money_put@GV?$ostreambuf_iterator@GU?$char_traits@G@std@@@std@@@std@@@8 0047e6f8     libcp:wlocale.obj
 0003:00004750       ??_R0?AV?$money_get@GV?$istreambuf_iterator@GU?$char_traits@G@std@@@std@@@std@@@8 0047e750     libcp:wlocale.obj
 0003:000047a8       ??_R0?AUmessages_base@std@@@8 0047e7a8     libcp:wlocale.obj
 0003:000047c8       ??_R0?AV?$messages@G@std@@@8 0047e7c8     libcp:wlocale.obj
 0003:000047e8       ??_R0?AV?$collate@G@std@@@8 0047e7e8     libcp:wlocale.obj
 0003:00004808       ??_R0?AV?$num_get@GV?$istreambuf_iterator@GU?$char_traits@G@std@@@std@@@std@@@8 0047e808     libcp:wlocale.obj
 0003:00004860       ??_R0?AV?$codecvt@GDH@std@@@8 0047e860     libcp:wlocale.obj
 0003:00004880       ??_R0?AV?$time_put@DV?$ostreambuf_iterator@DU?$char_traits@D@std@@@std@@@std@@@8 0047e880     libcp:xlocale.obj
 0003:000048d8       ??_R0?AV?$time_get@DV?$istreambuf_iterator@DU?$char_traits@D@std@@@std@@@std@@@8 0047e8d8     libcp:xlocale.obj
 0003:00004930       ??_R0?AV?$moneypunct@D$00@std@@@8 0047e930     libcp:xlocale.obj
 0003:00004958       ??_R0?AV?$_Mpunct@D@std@@@8 0047e958     libcp:xlocale.obj
 0003:00004978       ??_R0?AV?$moneypunct@D$0A@@std@@@8 0047e978     libcp:xlocale.obj
 0003:000049a0       ??_R0?AV?$collate@D@std@@@8 0047e9a0     libcp:xlocale.obj
 0003:000049c0       ??_R0?AV?$money_put@DV?$ostreambuf_iterator@DU?$char_traits@D@std@@@std@@@std@@@8 0047e9c0     libcp:xlocale.obj
 0003:00004a18       ??_R0?AV?$money_get@DV?$istreambuf_iterator@DU?$char_traits@D@std@@@std@@@std@@@8 0047ea18     libcp:xlocale.obj
 0003:00004a70       ??_R0?AV?$messages@D@std@@@8 0047ea70     libcp:xlocale.obj
 0003:00004a90       ??_R0?AVtype_info@@@8      0047ea90     LIBC:typinfo.obj
 0003:00004aa8       __fltused                  0047eaa8     LIBC:fpinit.obj
 0003:00004aac       __ldused                   0047eaac     LIBC:fpinit.obj
 0003:00004ab0       __FPinit                   0047eab0     LIBC:fpinit.obj
 0003:00004ab4       __FPmtinit                 0047eab4     LIBC:fpinit.obj
 0003:00004ab8       __FPmtterm                 0047eab8     LIBC:fpinit.obj
 0003:00004abc       __NLG_Destination          0047eabc     LIBC:exsup.obj
 0003:00004ad0       ?__pMyUnhandledExceptionFilter@@3PAXA 0047ead0     LIBC:throw.obj
 0003:00004af0       __half                     0047eaf0     LIBC:pow.obj
 0003:00004afc       __aexit_rtn                0047eafc     LIBC:wincrt0.obj
 0003:00004b00       ___app_type                0047eb00     LIBC:wincrt0.obj
 0003:00004b08       __iob                      0047eb08     LIBC:_file.obj
 0003:00004ea0       ___lc_category             0047eea0     LIBC:setlocal.obj
 0003:00004ee8       ___lconv_static_decimal    0047eee8     LIBC:lconv.obj
 0003:00004ef0       ___lconv_c                 0047eef0     LIBC:lconv.obj
 0003:00004f20       ___lconv                   0047ef20     LIBC:lconv.obj
 0003:00004f30       ___mb_cur_max              0047ef30     LIBC:nlsdata1.obj
 0003:00004f34       ___decimal_point           0047ef34     LIBC:nlsdata1.obj
 0003:00004f38       ___decimal_point_length    0047ef38     LIBC:nlsdata1.obj
 0003:00004f3c       __pctype                   0047ef3c     LIBC:ctype.obj
 0003:00004f40       __pwctype                  0047ef40     LIBC:ctype.obj
 0003:00004f44       __ctype                    0047ef44     LIBC:ctype.obj
 0003:00005148       ___lc_time_curr            0047f148     LIBC:strftime.obj
 0003:00005150       ___lc_time_c               0047f150     LIBC:strftime.obj
 0003:00005200       __cfltcvt_tab              0047f200     LIBC:cmiscdat.obj
 0003:00005220       ?__pUnexpected@@3P6AXXZA   0047f220     LIBC:hooks.obj
 0003:00005224       ?__pInconsistency@@3P6AXXZA 0047f224     LIBC:hooks.obj
 0003:00005228       __amblksiz                 0047f228     LIBC:heapinit.obj
 0003:00005230       ___old_small_block_heap    0047f230     LIBC:sbheap.obj
 0003:00007254       ___old_sbh_threshold       00481254     LIBC:sbheap.obj
 0003:00007260       __XcptActTab               00481260     LIBC:winxfltr.obj
 0003:000072d8       __First_FPE_Indx           004812d8     LIBC:winxfltr.obj
 0003:000072dc       __Num_FPE                  004812dc     LIBC:winxfltr.obj
 0003:000072e0       __XcptActTabCount          004812e0     LIBC:winxfltr.obj
 0003:000072e4       __fpecode                  004812e4     LIBC:winxfltr.obj
 0003:000072e8       ___nullstring              004812e8     LIBC:output.obj
 0003:000072ec       ___wnullstring             004812ec     LIBC:output.obj
 0003:000073c8       __d_inf                    004813c8     LIBC:util.obj
 0003:000073d0       __d_ind                    004813d0     LIBC:util.obj
 0003:000073d8       __d_max                    004813d8     LIBC:util.obj
 0003:000073e0       __d_min                    004813e0     LIBC:util.obj
 0003:000073e8       __d_mzero                  004813e8     LIBC:util.obj
 0003:00007410       __infinity                 00481410     LIBC:87tran.obj
 0003:0000741a       __minfinity                0048141a     LIBC:87tran.obj
 0003:00007424       __logemax                  00481424     LIBC:87tran.obj
 0003:00007454       __OP_EXPjmptab             00481454     LIBC:87tran.obj
 0003:00007480       __indefinite               00481480     LIBC:87disp.obj
 0003:0000748a       __piby2                    0048148a     LIBC:87disp.obj
 0003:0000749c       __cpower                   0048149c     LIBC:87disp.obj
 0003:000074b0       ___badioinfo               004814b0     LIBC:ioinit.obj
 0003:00007554       __tmpoff                   00481554     LIBC:rmtmp.obj
 0003:00007558       __tempoff                  00481558     LIBC:rmtmp.obj
 0003:00007560       ___rgLocInfo               00481560     LIBC:getqloc.obj
 0003:00007a04       ___rglangidNotDefault      00481a04     LIBC:getqloc.obj
 0003:00007a18       ___rg_country              00481a18     LIBC:getqloc.obj
 0003:00007ad0       ___rg_language             00481ad0     LIBC:getqloc.obj
 0003:00007cd8       __timezone                 00481cd8     LIBC:timeset.obj
 0003:00007cdc       __daylight                 00481cdc     LIBC:timeset.obj
 0003:00007ce0       __dstbias                  00481ce0     LIBC:timeset.obj
 0003:00007d64       __tzname                   00481d64     LIBC:timeset.obj
 0003:00007d90       __HUGE                     00481d90     LIBC:huge.obj
 0003:00007f30       __lpdays                   00481f30     LIBC:days.obj
 0003:00007f64       __days                     00481f64     LIBC:days.obj
 0003:00007fa0       __matherr_flag             00481fa0     LIBC:matherr.obj
 0003:00008210       __pow10pos                 00482210     LIBC:constpow.obj
 0003:00008370       __pow10neg                 00482370     LIBC:constpow.obj
 0003:000084cc       ?x_maxbit@ios@@0JA         004824cc     libci:_ios.obj
 0003:000084d0       ?x_curindex@ios@@0HA       004824d0     libci:_ios.obj
 0003:000084d8       ??_R0?AVios@@@8            004824d8     libci:_ios.obj
 0003:000084f0       ??_R0?AVistream@@@8        004824f0     libci:ifstream.obj
 0003:00008508       ??_R0?AVifstream@@@8       00482508     libci:ifstream.obj
 0003:00008520       ??_R0?AVstreambuf@@@8      00482520     libci:filebuf.obj
 0003:00008538       ??_R0?AVfilebuf@@@8        00482538     libci:filebuf.obj
 0003:00008550       ??_R0?AVistream_withassign@@@8 00482550     libci:istream.obj
 0003:00008578       ??_R0?AVostream@@@8        00482578     libci:ostream.obj
 0003:00008590       ??_R0?AVostream_withassign@@@8 00482590     libci:ostream.obj
 0003:000085b8       ?unitparser@@3PAVC3DOParser@@A 004825b8     3DOParser.obj
 0003:000085c0       ?_Nilrefs@?$_Tree@V?$basic_string@DU?$char_traits@D@std@@V?$allocator@D@2@@std@@U?$pair@$$CBV?$basic_string@DU?$char_traits@D@std@@V?$allocator@D@2@@std@@PAUS3DO@@@2@U_Kfn@?$map@V?$basic_string@DU?$char_traits@D@std@@V?$allocator@D@2@@std@@PAUS3DO@@U?$less@V?$basic_string@DU?$char_traits@D@std@@V?$allocator@D@2@@std@@@2@V?$allocator@PAUS3DO@@@2@@2@U?$less@V?$basic_string@DU?$char_traits@D@std@@V?$allocator@D@2@@std@@@2@V?$allocator@PAUS3DO@@@2@@std@@1IA 004825c0     3DOParser.obj
 0003:000085c4       ?_Nil@?$_Tree@V?$basic_string@DU?$char_traits@D@std@@V?$allocator@D@2@@std@@U?$pair@$$CBV?$basic_string@DU?$char_traits@D@std@@V?$allocator@D@2@@std@@PAUS3DO@@@2@U_Kfn@?$map@V?$basic_string@DU?$char_traits@D@std@@V?$allocator@D@2@@std@@PAUS3DO@@U?$less@V?$basic_string@DU?$char_traits@D@std@@V?$allocator@D@2@@std@@@2@V?$allocator@PAUS3DO@@@2@@2@U?$less@V?$basic_string@DU?$char_traits@D@std@@V?$allocator@D@2@@std@@@2@V?$allocator@PAUS3DO@@@2@@std@@1PAU_Node@12@A 004825c4     3DOParser.obj
 0003:000085c8       ?_Nilrefs@?$_Tree@HU?$pair@$$CBHH@std@@U_Kfn@?$map@HHU?$less@H@std@@V?$allocator@H@2@@2@U?$less@H@2@V?$allocator@H@2@@std@@1IA 004825c8     3DOParser.obj
 0003:000085cc       ?_Nil@?$_Tree@HU?$pair@$$CBHH@std@@U_Kfn@?$map@HHU?$less@H@std@@V?$allocator@H@2@@2@U?$less@H@2@V?$allocator@H@2@@std@@1PAU_Node@12@A 004825cc     3DOParser.obj
 0003:000085d0       ?_Psave@?1??use_facet@std@@YAABV?$codecvt@DDH@2@ABVlocale@2@PBV32@_N@Z@4PBVfacet@42@B 004825d0     Bitmap.obj
 0003:000085d4       ?_Facsav@?$_Tidyfac@V?$codecvt@DDH@std@@@std@@0PAV?$codecvt@DDH@2@A 004825d4     Bitmap.obj
 0003:000085d8       ?camera@@3VCCamera@@A      004825d8     Camera.obj
 0003:00008650       ?viewCam@@3VCCamera@@A     00482650     Camera.obj
 0003:000086d0       ?featureHandler@@3VCFeatureHandler@@A 004826d0     FeatureHandler.obj
 0003:000086f0       ?_Nilrefs@?$_Tree@V?$basic_string@DU?$char_traits@D@std@@V?$allocator@D@2@@std@@U?$pair@$$CBV?$basic_string@DU?$char_traits@D@std@@V?$allocator@D@2@@std@@V12@@2@U_Kfn@?$map@V?$basic_string@DU?$char_traits@D@std@@V?$allocator@D@2@@std@@V12@U?$less@V?$basic_string@DU?$char_traits@D@std@@V?$allocator@D@2@@std@@@2@V?$allocator@V?$basic_string@DU?$char_traits@D@std@@V?$allocator@D@2@@std@@@2@@2@U?$less@V?$basic_string@DU?$char_traits@D@std@@V?$allocator@D@2@@std@@@2@V?$allocator@V?$basic_string@DU?$char_traits@D@std@@V?$allocator@D@2@@std@@@2@@std@@1IA 004826f0     FeatureHandler.obj
 0003:000086f4       ?_Nil@?$_Tree@V?$basic_string@DU?$char_traits@D@std@@V?$allocator@D@2@@std@@U?$pair@$$CBV?$basic_string@DU?$char_traits@D@std@@V?$allocator@D@2@@std@@V12@@2@U_Kfn@?$map@V?$basic_string@DU?$char_traits@D@std@@V?$allocator@D@2@@std@@V12@U?$less@V?$basic_string@DU?$char_traits@D@std@@V?$allocator@D@2@@std@@@2@V?$allocator@V?$basic_string@DU?$char_traits@D@std@@V?$allocator@D@2@@std@@@2@@2@U?$less@V?$basic_string@DU?$char_traits@D@std@@V?$allocator@D@2@@std@@@2@V?$allocator@V?$basic_string@DU?$char_traits@D@std@@V?$allocator@D@2@@std@@@2@@std@@1PAU_Node@12@A 004826f4     FeatureHandler.obj
 0003:000086f8       ??_C@_00A@?$AA@            004826f8     FeatureHandler.obj
 0003:000086fc       ?_Nil@?$_Tree@V?$basic_string@DU?$char_traits@D@std@@V?$allocator@D@2@@std@@U?$pair@$$CBV?$basic_string@DU?$char_traits@D@std@@V?$allocator@D@2@@std@@UFileData@CHpiHandler@@@2@U_Kfn@?$map@V?$basic_string@DU?$char_traits@D@std@@V?$allocator@D@2@@std@@UFileData@CHpiHandler@@U?$less@V?$basic_string@DU?$char_traits@D@std@@V?$allocator@D@2@@std@@@2@V?$allocator@UFileData@CHpiHandler@@@2@@2@U?$less@V?$basic_string@DU?$char_traits@D@std@@V?$allocator@D@2@@std@@@2@V?$allocator@UFileData@CHpiHandler@@@2@@std@@1PAU_Node@12@A 004826fc     FeatureHandler.obj
 0003:00008700       ?gafHandler@@3PAVCGaf@@A   00482700     Gaf.obj
 0003:00008708       ?FogBlack@@3PAMA           00482708     Game.obj
 0003:00008718       ?font@@3PAVCglFont@@A      00482718     glFont.obj
 0003:0000871c       ?_Psave@?1??use_facet@std@@YAABV?$ctype@D@2@ABVlocale@2@PBV32@_N@Z@4PBVfacet@42@B 0048271c     glFont.obj
 0003:00008720       ?_Facsav@?$_Tidyfac@V?$ctype@D@std@@@std@@0PAV?$ctype@D@2@A 00482720     glFont.obj
 0003:00008728       ?g@@3VCGlobalStuff@@A      00482728     GlobalStuff.obj
 0003:00008768       ?lastrandframe@@3HA        00482768     GlobalStuff.obj
 0003:0000876c       ?ground@@3PAVCGround@@A    0048276c     Ground.obj
 0003:00008784       ?groundDrawer@@3PAVCGroundDrawer@@A 00482784     GroundDrawer.obj
 0003:00008794       ?_Nilrefs@?$_Tree@HU?$pair@$$CBHV?$basic_string@DU?$char_traits@D@std@@V?$allocator@D@2@@std@@@std@@U_Kfn@?$map@HV?$basic_string@DU?$char_traits@D@std@@V?$allocator@D@2@@std@@U?$less@H@2@V?$allocator@V?$basic_string@DU?$char_traits@D@std@@V?$allocator@D@2@@std@@@2@@2@U?$less@H@2@V?$allocator@V?$basic_string@DU?$char_traits@D@std@@V?$allocator@D@2@@std@@@2@@std@@1IA 00482794     GuiKeyReader.obj
 0003:00008798       ?_Nil@?$_Tree@HU?$pair@$$CBHV?$basic_string@DU?$char_traits@D@std@@V?$allocator@D@2@@std@@@std@@U_Kfn@?$map@HV?$basic_string@DU?$char_traits@D@std@@V?$allocator@D@2@@std@@U?$less@H@2@V?$allocator@V?$basic_string@DU?$char_traits@D@std@@V?$allocator@D@2@@std@@@2@@2@U?$less@H@2@V?$allocator@V?$basic_string@DU?$char_traits@D@std@@V?$allocator@D@2@@std@@@2@@std@@1PAU_Node@12@A 00482798     GuiKeyReader.obj
 0003:0000879c       ?_Nilrefs@?$_Tree@V?$basic_string@DU?$char_traits@D@std@@V?$allocator@D@2@@std@@U?$pair@$$CBV?$basic_string@DU?$char_traits@D@std@@V?$allocator@D@2@@std@@H@2@U_Kfn@?$map@V?$basic_string@DU?$char_traits@D@std@@V?$allocator@D@2@@std@@HU?$less@V?$basic_string@DU?$char_traits@D@std@@V?$allocator@D@2@@std@@@2@V?$allocator@H@2@@2@U?$less@V?$basic_string@DU?$char_traits@D@std@@V?$allocator@D@2@@std@@@2@V?$allocator@H@2@@std@@1IA 0048279c     GuiKeyReader.obj
 0003:000087a0       ?_Nil@?$_Tree@V?$basic_string@DU?$char_traits@D@std@@V?$allocator@D@2@@std@@U?$pair@$$CBV?$basic_string@DU?$char_traits@D@std@@V?$allocator@D@2@@std@@H@2@U_Kfn@?$map@V?$basic_string@DU?$char_traits@D@std@@V?$allocator@D@2@@std@@HU?$less@V?$basic_string@DU?$char_traits@D@std@@V?$allocator@D@2@@std@@@2@V?$allocator@H@2@@2@U?$less@V?$basic_string@DU?$char_traits@D@std@@V?$allocator@D@2@@std@@@2@V?$allocator@H@2@@std@@1PAU_Node@12@A 004827a0     GuiKeyReader.obj
 0003:000087a4       ?hpiHandler@@3PAVCHpiHandler@@A 004827a4     HpiHandler.obj
 0003:000087a8       ?_Nilrefs@?$_Tree@V?$basic_string@DU?$char_traits@D@std@@V?$allocator@D@2@@std@@U?$pair@$$CBV?$basic_string@DU?$char_traits@D@std@@V?$allocator@D@2@@std@@UFileData@CHpiHandler@@@2@U_Kfn@?$map@V?$basic_string@DU?$char_traits@D@std@@V?$allocator@D@2@@std@@UFileData@CHpiHandler@@U?$less@V?$basic_string@DU?$char_traits@D@std@@V?$allocator@D@2@@std@@@2@V?$allocator@UFileData@CHpiHandler@@@2@@2@U?$less@V?$basic_string@DU?$char_traits@D@std@@V?$allocator@D@2@@std@@@2@V?$allocator@UFileData@CHpiHandler@@@2@@std@@1IA 004827a8     HpiHandler.obj
 0003:000087ac       ?info@@3PAVCInfoConsole@@A 004827ac     InfoConsole.obj
 0003:000087b0       ?keys@@3PA_NA              004827b0     Lesson2.obj
 0003:000088b4       ?hInstance@@3PAUHINSTANCE__@@A 004828b4     Lesson2.obj
 0003:000088b8       ?hDC@@3PAUHDC__@@A         004828b8     Lesson2.obj
 0003:000088bc       ?hRC@@3PAUHGLRC__@@A       004828bc     Lesson2.obj
 0003:000088c0       ?hWnd@@3PAUHWND__@@A       004828c0     Lesson2.obj
 0003:000088c4       ?quit@@3_NA                004828c4     Lesson2.obj
 0003:000088c8       ?game@@3PAVCGame@@A        004828c8     Lesson2.obj
 0003:000088d0       ?mempool@@3VCMemPool@@A    004828d0     MemPool.obj
 0003:00008c98       ?minimap@@3PAVCMiniMap@@A  00482c98     MiniMap.obj
 0003:00008ca0       ?mouse@@3PAVCMouseHandler@@A 00482ca0     MouseHandler.obj
 0003:00008ca4       ?glMultiTexCoord1sARB@@3P6GXIF@ZA 00482ca4     myGL.obj
 0003:00008ca8       ?glGetCombinerOutputParameterfvNV@@3P6GXIIIPAM@ZA 00482ca8     myGL.obj
 0003:00008cac       ?multiTextureEnabled@@3_NA 00482cac     myGL.obj
 0003:00008cb0       ?glGetFinalCombinerInputParameterfvNV@@3P6GXIIPAM@ZA 00482cb0     myGL.obj
 0003:00008cb4       ?glMultiTexCoord1dARB@@3P6GXIN@ZA 00482cb4     myGL.obj
 0003:00008cb8       ?glMultiTexCoord1ivARB@@3P6GXIPBH@ZA 00482cb8     myGL.obj
 0003:00008cbc       ?glCombinerParameterivNV@@3P6GXIPBH@ZA 00482cbc     myGL.obj
 0003:00008cc0       ?glGetFenceivNV@@3P6GXIIPAH@ZA 00482cc0     myGL.obj
 0003:00008cc4       ?glBlendEquationEXT@@3P6GXI@ZA 00482cc4     myGL.obj
 0003:00008cc8       ?glMultiTexCoord4dvARB@@3P6GXIPBN@ZA 00482cc8     myGL.obj
 0003:00008ccc       ?glSecondaryColor3dEXT@@3P6GXNNN@ZA 00482ccc     myGL.obj
 0003:00008cd0       ?glSecondaryColor3sEXT@@3P6GXFFF@ZA 00482cd0     myGL.obj
 0003:00008cd4       ?glDeleteFencesNV@@3P6GXHPBI@ZA 00482cd4     myGL.obj
 0003:00008cd8       ?glSecondaryColor3bvEXT@@3P6GXPBC@ZA 00482cd8     myGL.obj
 0003:00008cdc       ?glCombinerParameterfNV@@3P6GXIM@ZA 00482cdc     myGL.obj
 0003:00008ce0       ?glFogCoordfEXT@@3P6GXM@ZA 00482ce0     myGL.obj
 0003:00008ce4       ?glMultiTexCoord4iARB@@3P6GXIHHHH@ZA 00482ce4     myGL.obj
 0003:00008ce8       ?glMultiTexCoord1fARB@@3P6GXIM@ZA 00482ce8     myGL.obj
 0003:00008cec       ?glMultiTexCoord4svARB@@3P6GXIPBF@ZA 00482cec     myGL.obj
 0003:00008cf0       ?glSecondaryColor3bEXT@@3P6GXCCC@ZA 00482cf0     myGL.obj
 0003:00008cf4       ?glGetCombinerOutputParameterivNV@@3P6GXIIIPAH@ZA 00482cf4     myGL.obj
 0003:00008cf8       ?glSetFenceNV@@3P6GXII@ZA  00482cf8     myGL.obj
 0003:00008cfc       ?glSecondaryColor3usvEXT@@3P6GXPBG@ZA 00482cfc     myGL.obj
 0003:00008d00       ?glMultiTexCoord3svARB@@3P6GXIPBF@ZA 00482d00     myGL.obj
 0003:00008d04       ?glMultiTexCoord3dvARB@@3P6GXIPBN@ZA 00482d04     myGL.obj
 0003:00008d08       ?glSecondaryColor3fvEXT@@3P6GXPBM@ZA 00482d08     myGL.obj
 0003:00008d0c       ?wglFreeMemoryNV@@3P6GXPAX@ZA 00482d0c     myGL.obj
 0003:00008d10       ?glFogCoorddvEXT@@3P6GXPBN@ZA 00482d10     myGL.obj
 0003:00008d14       ?glMultiTexCoord2sARB@@3P6GXIFF@ZA 00482d14     myGL.obj
 0003:00008d18       ?glMultiTexCoord4ivARB@@3P6GXIPBH@ZA 00482d18     myGL.obj
 0003:00008d1c       ?glMultiTexCoord1fvARB@@3P6GXIPBM@ZA 00482d1c     myGL.obj
 0003:00008d20       ?glGetCombinerInputParameterivNV@@3P6GXIIIIPAH@ZA 00482d20     myGL.obj
 0003:00008d24       ?glMultiTexCoord2dARB@@3P6GXINN@ZA 00482d24     myGL.obj
 0003:00008d28       ?glMultiTexCoord2fvARB@@3P6GXIPBM@ZA 00482d28     myGL.obj
 0003:00008d2c       ?nvidiaExt@@3_NA           00482d2c     myGL.obj
 0003:00008d30       ?glMultiTexCoord3ivARB@@3P6GXIPBH@ZA 00482d30     myGL.obj
 0003:00008d34       ?glMultiTexCoord1iARB@@3P6GXIH@ZA 00482d34     myGL.obj
 0003:00008d38       ?glVertexArrayRangeNV@@3P6GXHPBX@ZA 00482d38     myGL.obj
 0003:00008d3c       ?glGetFinalCombinerInputParameterivNV@@3P6GXIIPAH@ZA 00482d3c     myGL.obj
 0003:00008d40       ?glSecondaryColor3uiEXT@@3P6GXIII@ZA 00482d40     myGL.obj
 0003:00008d44       ?glFinishFenceNV@@3P6GXI@ZA 00482d44     myGL.obj
 0003:00008d48       ?glSecondaryColor3uivEXT@@3P6GXPBI@ZA 00482d48     myGL.obj
 0003:00008d4c       ?glFinalCombinerInputNV@@3P6GXIIII@ZA 00482d4c     myGL.obj
 0003:00008d50       ?glMultiTexCoord2fARB@@3P6GXIMM@ZA 00482d50     myGL.obj
 0003:00008d54       ?glSecondaryColorPointerEXT@@3P6GXHIHPAX@ZA 00482d54     myGL.obj
 0003:00008d58       ?glMultiTexCoord2ivARB@@3P6GXIPBH@ZA 00482d58     myGL.obj
 0003:00008d5c       ?glBlendColorEXT@@3P6GXMMMM@ZA 00482d5c     myGL.obj
 0003:00008d60       ?glMultiTexCoord3sARB@@3P6GXIFFF@ZA 00482d60     myGL.obj
 0003:00008d64       ?glSecondaryColor3svEXT@@3P6GXPBF@ZA 00482d64     myGL.obj
 0003:00008d68       ?glMultiTexCoord3dARB@@3P6GXINNN@ZA 00482d68     myGL.obj
 0003:00008d6c       ?big_array@@3PAMA          00482d6c     myGL.obj
 0003:00008d70       ?glClientActiveTextureARB@@3P6GXI@ZA 00482d70     myGL.obj
 0003:00008d74       ?glMultiTexCoord2iARB@@3P6GXIHH@ZA 00482d74     myGL.obj
 0003:00008d78       ?glMultiTexCoord4fvARB@@3P6GXIPBM@ZA 00482d78     myGL.obj
 0003:00008d7c       ?glMultiTexCoord3fvARB@@3P6GXIPBM@ZA 00482d7c     myGL.obj
 0003:00008d80       ?glGenFencesNV@@3P6GXHPAI@ZA 00482d80     myGL.obj
 0003:00008d84       ?glActiveTextureARB@@3P6GXI@ZA 00482d84     myGL.obj
 0003:00008d88       ?glMultiTexCoord3fARB@@3P6GXIMMM@ZA 00482d88     myGL.obj
 0003:00008d8c       ?glSecondaryColor3dvEXT@@3P6GXPBN@ZA 00482d8c     myGL.obj
 0003:00008d90       ?glSecondaryColor3ubvEXT@@3P6GXPBE@ZA 00482d90     myGL.obj
 0003:00008d94       ?glSecondaryColor3iEXT@@3P6GXHHH@ZA 00482d94     myGL.obj
 0003:00008d98       ?glGetCombinerInputParameterfvNV@@3P6GXIIIIPAM@ZA 00482d98     myGL.obj
 0003:00008d9c       ?glMultiTexCoord2svARB@@3P6GXIPBF@ZA 00482d9c     myGL.obj
 0003:00008da0       ?glIsFenceNV@@3P6GEI@ZA    00482da0     myGL.obj
 0003:00008da4       ?glMultiTexCoord2dvARB@@3P6GXIPBN@ZA 00482da4     myGL.obj
 0003:00008da8       ?glCombinerOutputNV@@3P6GXIIIIIIIEEE@ZA 00482da8     myGL.obj
 0003:00008dac       ?glSecondaryColor3ubEXT@@3P6GXEEE@ZA 00482dac     myGL.obj
 0003:00008db0       ?glMultiTexCoord4sARB@@3P6GXIFFFF@ZA 00482db0     myGL.obj
 0003:00008db4       ?glFogCoordfvEXT@@3P6GXPBM@ZA 00482db4     myGL.obj
 0003:00008db8       ?glMultiTexCoord4dARB@@3P6GXINNNN@ZA 00482db8     myGL.obj
 0003:00008dbc       ?glMultiTexCoord1svARB@@3P6GXIPBF@ZA 00482dbc     myGL.obj
 0003:00008dc0       ?glCombinerParameterfvNV@@3P6GXIPBM@ZA 00482dc0     myGL.obj
 0003:00008dc4       ?glMultiTexCoord1dvARB@@3P6GXIPBN@ZA 00482dc4     myGL.obj
 0003:00008dc8       ?glSecondaryColor3ivEXT@@3P6GXPBH@ZA 00482dc8     myGL.obj
 0003:00008dcc       ?glFlushVertexArrayRangeNV@@3P6GXXZA 00482dcc     myGL.obj
 0003:00008dd0       ?glMultiTexCoord3iARB@@3P6GXIHHH@ZA 00482dd0     myGL.obj
 0003:00008dd4       ?glSecondaryColor3usEXT@@3P6GXGGG@ZA 00482dd4     myGL.obj
 0003:00008dd8       ?glCombinerInputNV@@3P6GXIIIIII@ZA 00482dd8     myGL.obj
 0003:00008ddc       ?wglAllocateMemoryNV@@3P6GPAXHMMM@ZA 00482ddc     myGL.obj
 0003:00008de0       ?glCombinerParameteriNV@@3P6GXIH@ZA 00482de0     myGL.obj
 0003:00008de4       ?glTestFenceNV@@3P6GEI@ZA  00482de4     myGL.obj
 0003:00008de8       ?glMultiTexCoord4fARB@@3P6GXIMMMM@ZA 00482de8     myGL.obj
 0003:00008dec       ?glFogCoordPointerEXT@@3P6GXIHPBX@ZA 00482dec     myGL.obj
 0003:00008df0       ?glSecondaryColor3fEXT@@3P6GXMMM@ZA 00482df0     myGL.obj
 0003:00008df4       ?glFogCoorddEXT@@3P6GXN@ZA 00482df4     myGL.obj
 0003:00008df8       ?dot3Ext@@3_NA             00482df8     myGL.obj
 0003:00014990       ?ph@@3PAVCProjectileHandler@@A 0048e990     ProjectileHandler.obj
 0003:00040410       ?readmap@@3PAVCReadMap@@A  004ba410     ReadMap.obj
 0003:00040414       ?_instance@CReadMap@@0PAV1@A 004ba414     ReadMap.obj
 0003:00040418       ?regHandler@@3VRegHandler@@A 004ba418     RegHandler.obj
 0003:00040428       ?sky@@3PAVCSky@@A          004ba428     Sky.obj
 0003:00040430       ?palette@@3VCTAPalette@@A  004ba430     TAPalette.obj
 0003:00040834       ?texturehandler@@3PAVCTextureHandler@@A 004ba834     TextureHandler.obj
 0003:0004083c       ?_Nilrefs@?$_Tree@V?$basic_string@DU?$char_traits@D@std@@V?$allocator@D@2@@std@@U?$pair@$$CBV?$basic_string@DU?$char_traits@D@std@@V?$allocator@D@2@@std@@UBigTex@CTextureHandler@@@2@U_Kfn@?$map@V?$basic_string@DU?$char_traits@D@std@@V?$allocator@D@2@@std@@UBigTex@CTextureHandler@@U?$less@V?$basic_string@DU?$char_traits@D@std@@V?$allocator@D@2@@std@@@2@V?$allocator@UBigTex@CTextureHandler@@@2@@2@U?$less@V?$basic_string@DU?$char_traits@D@std@@V?$allocator@D@2@@std@@@2@V?$allocator@UBigTex@CTextureHandler@@@2@@std@@1IA 004ba83c     TextureHandler.obj
 0003:00040840       ?_Nil@?$_Tree@V?$basic_string@DU?$char_traits@D@std@@V?$allocator@D@2@@std@@U?$pair@$$CBV?$basic_string@DU?$char_traits@D@std@@V?$allocator@D@2@@std@@UBigTex@CTextureHandler@@@2@U_Kfn@?$map@V?$basic_string@DU?$char_traits@D@std@@V?$allocator@D@2@@std@@UBigTex@CTextureHandler@@U?$less@V?$basic_string@DU?$char_traits@D@std@@V?$allocator@D@2@@std@@@2@V?$allocator@UBigTex@CTextureHandler@@@2@@2@U?$less@V?$basic_string@DU?$char_traits@D@std@@V?$allocator@D@2@@std@@@2@V?$allocator@UBigTex@CTextureHandler@@@2@@std@@1PAU_Node@12@A 004ba840     TextureHandler.obj
 0003:00040844       ?_Nilrefs@?$_Tree@V?$basic_string@DU?$char_traits@D@std@@V?$allocator@D@2@@std@@U?$pair@$$CBV?$basic_string@DU?$char_traits@D@std@@V?$allocator@D@2@@std@@PAUtaTexture@@@2@U_Kfn@?$map@V?$basic_string@DU?$char_traits@D@std@@V?$allocator@D@2@@std@@PAUtaTexture@@U?$less@V?$basic_string@DU?$char_traits@D@std@@V?$allocator@D@2@@std@@@2@V?$allocator@PAUtaTexture@@@2@@2@U?$less@V?$basic_string@DU?$char_traits@D@std@@V?$allocator@D@2@@std@@@2@V?$allocator@PAUtaTexture@@@2@@std@@1IA 004ba844     TextureHandler.obj
 0003:00040848       ?_Nil@?$_Tree@V?$basic_string@DU?$char_traits@D@std@@V?$allocator@D@2@@std@@U?$pair@$$CBV?$basic_string@DU?$char_traits@D@std@@V?$allocator@D@2@@std@@PAUtaTexture@@@2@U_Kfn@?$map@V?$basic_string@DU?$char_traits@D@std@@V?$allocator@D@2@@std@@PAUtaTexture@@U?$less@V?$basic_string@DU?$char_traits@D@std@@V?$allocator@D@2@@std@@@2@V?$allocator@PAUtaTexture@@@2@@2@U?$less@V?$basic_string@DU?$char_traits@D@std@@V?$allocator@D@2@@std@@@2@V?$allocator@PAUtaTexture@@@2@@std@@1PAU_Node@12@A 004ba848     TextureHandler.obj
 0003:00040850       ?profiler@@3VCTimeProfiler@@A 004ba850     TimeProfiler.obj
 0003:00040870       ?_Nilrefs@?$_Tree@V?$basic_string@DU?$char_traits@D@std@@V?$allocator@D@2@@std@@U?$pair@$$CBV?$basic_string@DU?$char_traits@D@std@@V?$allocator@D@2@@std@@UTimeRecord@CTimeProfiler@@@2@U_Kfn@?$map@V?$basic_string@DU?$char_traits@D@std@@V?$allocator@D@2@@std@@UTimeRecord@CTimeProfiler@@U?$less@V?$basic_string@DU?$char_traits@D@std@@V?$allocator@D@2@@std@@@2@V?$allocator@UTimeRecord@CTimeProfiler@@@2@@2@U?$less@V?$basic_string@DU?$char_traits@D@std@@V?$allocator@D@2@@std@@@2@V?$allocator@UTimeRecord@CTimeProfiler@@@2@@std@@1IA 004ba870     TimeProfiler.obj
 0003:00040874       ?_Nil@?$_Tree@V?$basic_string@DU?$char_traits@D@std@@V?$allocator@D@2@@std@@U?$pair@$$CBV?$basic_string@DU?$char_traits@D@std@@V?$allocator@D@2@@std@@UTimeRecord@CTimeProfiler@@@2@U_Kfn@?$map@V?$basic_string@DU?$char_traits@D@std@@V?$allocator@D@2@@std@@UTimeRecord@CTimeProfiler@@U?$less@V?$basic_string@DU?$char_traits@D@std@@V?$allocator@D@2@@std@@@2@V?$allocator@UTimeRecord@CTimeProfiler@@@2@@2@U?$less@V?$basic_string@DU?$char_traits@D@std@@V?$allocator@D@2@@std@@@2@V?$allocator@UTimeRecord@CTimeProfiler@@@2@@std@@1PAU_Node@12@A 004ba874     TimeProfiler.obj
 0003:00040888       _tkhwnd                    004ba888     glaux:tk.obj
 0003:0004088c       _tkhdc                     004ba88c     glaux:tk.obj
 0003:00040890       _tkhrc                     004ba890     glaux:tk.obj
 0003:00040894       _tkhpalette                004ba894     glaux:tk.obj
 0003:00040898       _tkUseStaticColors         004ba898     glaux:tk.obj
 0003:0004089c       _tkSystemColorsInUse       004ba89c     glaux:tk.obj
 0003:000408a0       _tkStaticColorsSaved       004ba8a0     glaux:tk.obj
 0003:000408a4       _ExposeFunc                004ba8a4     glaux:tk.obj
 0003:000408a8       _ReshapeFunc               004ba8a8     glaux:tk.obj
 0003:000408ac       _DisplayFunc               004ba8ac     glaux:tk.obj
 0003:000408b0       _KeyDownFunc               004ba8b0     glaux:tk.obj
 0003:000408b4       _MouseDownFunc             004ba8b4     glaux:tk.obj
 0003:000408b8       _MouseUpFunc               004ba8b8     glaux:tk.obj
 0003:000408bc       _MouseMoveFunc             004ba8bc     glaux:tk.obj
 0003:000408c0       _IdleFunc                  004ba8c0     glaux:tk.obj
 0003:000408c8       ?clog@std@@3V?$basic_ostream@DU?$char_traits@D@std@@@1@A 004ba8c8     libcp:iostream.obj
 0003:00040958       ?cout@std@@3V?$basic_ostream@DU?$char_traits@D@std@@@1@A 004ba958     libcp:iostream.obj
 0003:000409e8       ?cin@std@@3V?$basic_istream@DU?$char_traits@D@std@@@1@A 004ba9e8     libcp:iostream.obj
 0003:00040a80       ?cerr@std@@3V?$basic_ostream@DU?$char_traits@D@std@@@1@A 004baa80     libcp:iostream.obj
 0003:00040ab8       ?wcerr@std@@3V?$basic_ostream@GU?$char_traits@G@std@@@1@A 004baab8     libcp:wiostrea.obj
 0003:00040af8       ?wclog@std@@3V?$basic_ostream@GU?$char_traits@G@std@@@1@A 004baaf8     libcp:wiostrea.obj
 0003:00040b30       ?wcin@std@@3V?$basic_istream@GU?$char_traits@G@std@@@1@A 004bab30     libcp:wiostrea.obj
 0003:00040c20       ?wcout@std@@3V?$basic_ostream@GU?$char_traits@G@std@@@1@A 004bac20     libcp:wiostrea.obj
 0003:00040cac       ?_Index@ios_base@std@@0HA  004bacac     libcp:ios.obj
 0003:00040ce4       ?_Clocptr@_Locimp@locale@std@@0PAV123@A 004bace4     libcp:locale0.obj
 0003:00040ce8       ?_Global@_Locimp@locale@std@@0PAV123@A 004bace8     libcp:locale0.obj
 0003:00040cec       ?_Id_cnt@id@locale@std@@0HA 004bacec     libcp:locale0.obj
 0003:00040cf0       ?_Cltab@?$ctype@D@std@@0PBFB 004bacf0     libcp:locale0.obj
 0003:00040cf4       ?id@?$codecvt@DDH@std@@2V0locale@2@A 004bacf4     libcp:locale.obj
 0003:00040cf8       ?id@?$num_get@DV?$istreambuf_iterator@DU?$char_traits@D@std@@@std@@@std@@2V0locale@2@A 004bacf8     libcp:locale.obj
 0003:00040cfc       ?id@?$ctype@D@std@@2V0locale@2@A 004bacfc     libcp:locale.obj
 0003:00040d00       ?id@?$numpunct@D@std@@2V0locale@2@A 004bad00     libcp:locale.obj
 0003:00040d04       ?id@?$num_put@DV?$ostreambuf_iterator@DU?$char_traits@D@std@@@std@@@std@@2V0locale@2@A 004bad04     libcp:locale.obj
 0003:00040d08       ?_Psave@?1??use_facet@std@@YAABV?$num_get@DV?$istreambuf_iterator@DU?$char_traits@D@std@@@std@@@2@ABVlocale@2@PBV32@_N@Z@4PBVfacet@42@B 004bad08     libcp:locale.obj
 0003:00040d0c       ?_Psave@?1??use_facet@std@@YAABV?$num_put@DV?$ostreambuf_iterator@DU?$char_traits@D@std@@@std@@@2@ABVlocale@2@PBV32@_N@Z@4PBVfacet@42@B 004bad0c     libcp:locale.obj
 0003:00040d10       ?_Psave@?1??use_facet@std@@YAABV?$numpunct@D@2@ABVlocale@2@PBV32@_N@Z@4PBVfacet@42@B 004bad10     libcp:locale.obj
 0003:00040d14       ?_Facsav@?$_Tidyfac@V?$num_get@DV?$istreambuf_iterator@DU?$char_traits@D@std@@@std@@@std@@@std@@0PAV?$num_get@DV?$istreambuf_iterator@DU?$char_traits@D@std@@@std@@@2@A 004bad14     libcp:locale.obj
 0003:00040d18       ?_Facsav@?$_Tidyfac@V?$num_put@DV?$ostreambuf_iterator@DU?$char_traits@D@std@@@std@@@std@@@std@@0PAV?$num_put@DV?$ostreambuf_iterator@DU?$char_traits@D@std@@@std@@@2@A 004bad18     libcp:locale.obj
 0003:00040d1c       ?_Facsav@?$_Tidyfac@V?$numpunct@D@std@@@std@@0PAV?$numpunct@D@2@A 004bad1c     libcp:locale.obj
 0003:00040d44       ?id@?$numpunct@G@std@@2V0locale@2@A 004bad44     libcp:wlocale.obj
 0003:00040d48       ?id@?$money_get@GV?$istreambuf_iterator@GU?$char_traits@G@std@@@std@@@std@@2V0locale@2@A 004bad48     libcp:wlocale.obj
 0003:00040d4c       ?id@?$messages@G@std@@2V0locale@2@A 004bad4c     libcp:wlocale.obj
 0003:00040d50       ?id@?$moneypunct@G$00@std@@2V0locale@2@A 004bad50     libcp:wlocale.obj
 0003:00040d54       ?id@?$num_put@GV?$ostreambuf_iterator@GU?$char_traits@G@std@@@std@@@std@@2V0locale@2@A 004bad54     libcp:wlocale.obj
 0003:00040d58       ?id@?$collate@G@std@@2V0locale@2@A 004bad58     libcp:wlocale.obj
 0003:00040d5c       ?id@?$time_get@GV?$istreambuf_iterator@GU?$char_traits@G@std@@@std@@@std@@2V0locale@2@A 004bad5c     libcp:wlocale.obj
 0003:00040d60       ?id@?$ctype@G@std@@2V0locale@2@A 004bad60     libcp:wlocale.obj
 0003:00040d64       ?id@?$num_get@GV?$istreambuf_iterator@GU?$char_traits@G@std@@@std@@@std@@2V0locale@2@A 004bad64     libcp:wlocale.obj
 0003:00040d68       ?id@?$codecvt@GDH@std@@2V0locale@2@A 004bad68     libcp:wlocale.obj
 0003:00040d6c       ?id@?$time_put@GV?$ostreambuf_iterator@GU?$char_traits@G@std@@@std@@@std@@2V0locale@2@A 004bad6c     libcp:wlocale.obj
 0003:00040d70       ?id@?$moneypunct@G$0A@@std@@2V0locale@2@A 004bad70     libcp:wlocale.obj
 0003:00040d74       ?id@?$money_put@GV?$ostreambuf_iterator@GU?$char_traits@G@std@@@std@@@std@@2V0locale@2@A 004bad74     libcp:wlocale.obj
 0003:00040d78       ?_Psave@?1??use_facet@std@@YAABV?$ctype@G@2@ABVlocale@2@PBV32@_N@Z@4PBVfacet@42@B 004bad78     libcp:wlocale.obj
 0003:00040d7c       ?_Psave@?1??use_facet@std@@YAABV?$num_get@GV?$istreambuf_iterator@GU?$char_traits@G@std@@@std@@@2@ABVlocale@2@PBV32@_N@Z@4PBVfacet@42@B 004bad7c     libcp:wlocale.obj
 0003:00040d80       ?_Psave@?1??use_facet@std@@YAABV?$num_put@GV?$ostreambuf_iterator@GU?$char_traits@G@std@@@std@@@2@ABVlocale@2@PBV32@_N@Z@4PBVfacet@42@B 004bad80     libcp:wlocale.obj
 0003:00040d84       ?_Psave@?1??use_facet@std@@YAABV?$numpunct@G@2@ABVlocale@2@PBV32@_N@Z@4PBVfacet@42@B 004bad84     libcp:wlocale.obj
 0003:00040d88       ?_Psave@?1??use_facet@std@@YAABV?$collate@G@2@ABVlocale@2@PBV32@_N@Z@4PBVfacet@42@B 004bad88     libcp:wlocale.obj
 0003:00040d8c       ?_Psave@?1??use_facet@std@@YAABV?$messages@G@2@ABVlocale@2@PBV32@_N@Z@4PBVfacet@42@B 004bad8c     libcp:wlocale.obj
 0003:00040d90       ?_Psave@?1??use_facet@std@@YAABV?$money_get@GV?$istreambuf_iterator@GU?$char_traits@G@std@@@std@@@2@ABVlocale@2@PBV32@_N@Z@4PBVfacet@42@B 004bad90     libcp:wlocale.obj
 0003:00040d94       ?_Psave@?1??use_facet@std@@YAABV?$money_put@GV?$ostreambuf_iterator@GU?$char_traits@G@std@@@std@@@2@ABVlocale@2@PBV32@_N@Z@4PBVfacet@42@B 004bad94     libcp:wlocale.obj
 0003:00040d98       ?_Psave@?1??use_facet@std@@YAABV?$moneypunct@G$0A@@2@ABVlocale@2@PBV32@_N@Z@4PBVfacet@42@B 004bad98     libcp:wlocale.obj
 0003:00040d9c       ?_Psave@?1??use_facet@std@@YAABV?$moneypunct@G$00@2@ABVlocale@2@PBV32@_N@Z@4PBVfacet@42@B 004bad9c     libcp:wlocale.obj
 0003:00040da0       ?_Psave@?1??use_facet@std@@YAABV?$time_get@GV?$istreambuf_iterator@GU?$char_traits@G@std@@@std@@@2@ABVlocale@2@PBV32@_N@Z@4PBVfacet@42@B 004bada0     libcp:wlocale.obj
 0003:00040da4       ?_Psave@?1??use_facet@std@@YAABV?$time_put@GV?$ostreambuf_iterator@GU?$char_traits@G@std@@@std@@@2@ABVlocale@2@PBV32@_N@Z@4PBVfacet@42@B 004bada4     libcp:wlocale.obj
 0003:00040da8       ?_Psave@?1??use_facet@std@@YAABV?$codecvt@GDH@2@ABVlocale@2@PBV32@_N@Z@4PBVfacet@42@B 004bada8     libcp:wlocale.obj
 0003:00040dac       ?_Facsav@?$_Tidyfac@V?$ctype@G@std@@@std@@0PAV?$ctype@G@2@A 004badac     libcp:wlocale.obj
 0003:00040db0       ?_Facsav@?$_Tidyfac@V?$num_get@GV?$istreambuf_iterator@GU?$char_traits@G@std@@@std@@@std@@@std@@0PAV?$num_get@GV?$istreambuf_iterator@GU?$char_traits@G@std@@@std@@@2@A 004badb0     libcp:wlocale.obj
 0003:00040db4       ?_Facsav@?$_Tidyfac@V?$num_put@GV?$ostreambuf_iterator@GU?$char_traits@G@std@@@std@@@std@@@std@@0PAV?$num_put@GV?$ostreambuf_iterator@GU?$char_traits@G@std@@@std@@@2@A 004badb4     libcp:wlocale.obj
 0003:00040db8       ?_Facsav@?$_Tidyfac@V?$numpunct@G@std@@@std@@0PAV?$numpunct@G@2@A 004badb8     libcp:wlocale.obj
 0003:00040dbc       ?_Facsav@?$_Tidyfac@V?$collate@G@std@@@std@@0PAV?$collate@G@2@A 004badbc     libcp:wlocale.obj
 0003:00040dc0       ?_Facsav@?$_Tidyfac@V?$messages@G@std@@@std@@0PAV?$messages@G@2@A 004badc0     libcp:wlocale.obj
 0003:00040dc4       ?_Facsav@?$_Tidyfac@V?$money_get@GV?$istreambuf_iterator@GU?$char_traits@G@std@@@std@@@std@@@std@@0PAV?$money_get@GV?$istreambuf_iterator@GU?$char_traits@G@std@@@std@@@2@A 004badc4     libcp:wlocale.obj
 0003:00040dc8       ?_Facsav@?$_Tidyfac@V?$money_put@GV?$ostreambuf_iterator@GU?$char_traits@G@std@@@std@@@std@@@std@@0PAV?$money_put@GV?$ostreambuf_iterator@GU?$char_traits@G@std@@@std@@@2@A 004badc8     libcp:wlocale.obj
 0003:00040dcc       ?_Facsav@?$_Tidyfac@V?$moneypunct@G$0A@@std@@@std@@0PAV?$moneypunct@G$0A@@2@A 004badcc     libcp:wlocale.obj
 0003:00040dd0       ?_Facsav@?$_Tidyfac@V?$moneypunct@G$00@std@@@std@@0PAV?$moneypunct@G$00@2@A 004badd0     libcp:wlocale.obj
 0003:00040dd4       ?_Facsav@?$_Tidyfac@V?$time_get@GV?$istreambuf_iterator@GU?$char_traits@G@std@@@std@@@std@@@std@@0PAV?$time_get@GV?$istreambuf_iterator@GU?$char_traits@G@std@@@std@@@2@A 004badd4     libcp:wlocale.obj
 0003:00040dd8       ?_Facsav@?$_Tidyfac@V?$time_put@GV?$ostreambuf_iterator@GU?$char_traits@G@std@@@std@@@std@@@std@@0PAV?$time_put@GV?$ostreambuf_iterator@GU?$char_traits@G@std@@@std@@@2@A 004badd8     libcp:wlocale.obj
 0003:00040ddc       ?_Facsav@?$_Tidyfac@V?$codecvt@GDH@std@@@std@@0PAV?$codecvt@GDH@2@A 004baddc     libcp:wlocale.obj
 0003:00040de0       ?id@?$money_put@DV?$ostreambuf_iterator@DU?$char_traits@D@std@@@std@@@std@@2V0locale@2@A 004bade0     libcp:xlocale.obj
 0003:00040de4       ?id@?$moneypunct@D$00@std@@2V0locale@2@A 004bade4     libcp:xlocale.obj
 0003:00040de8       ?id@?$time_get@DV?$istreambuf_iterator@DU?$char_traits@D@std@@@std@@@std@@2V0locale@2@A 004bade8     libcp:xlocale.obj
 0003:00040dec       ?id@?$time_put@DV?$ostreambuf_iterator@DU?$char_traits@D@std@@@std@@@std@@2V0locale@2@A 004badec     libcp:xlocale.obj
 0003:00040df0       ?id@?$messages@D@std@@2V0locale@2@A 004badf0     libcp:xlocale.obj
 0003:00040df4       ?id@?$moneypunct@D$0A@@std@@2V0locale@2@A 004badf4     libcp:xlocale.obj
 0003:00040df8       ?id@?$money_get@DV?$istreambuf_iterator@DU?$char_traits@D@std@@@std@@@std@@2V0locale@2@A 004badf8     libcp:xlocale.obj
 0003:00040dfc       ?id@?$collate@D@std@@2V0locale@2@A 004badfc     libcp:xlocale.obj
 0003:00040e00       ?_Psave@?1??use_facet@std@@YAABV?$collate@D@2@ABVlocale@2@PBV32@_N@Z@4PBVfacet@42@B 004bae00     libcp:xlocale.obj
 0003:00040e04       ?_Psave@?1??use_facet@std@@YAABV?$messages@D@2@ABVlocale@2@PBV32@_N@Z@4PBVfacet@42@B 004bae04     libcp:xlocale.obj
 0003:00040e08       ?_Psave@?1??use_facet@std@@YAABV?$money_get@DV?$istreambuf_iterator@DU?$char_traits@D@std@@@std@@@2@ABVlocale@2@PBV32@_N@Z@4PBVfacet@42@B 004bae08     libcp:xlocale.obj
 0003:00040e0c       ?_Psave@?1??use_facet@std@@YAABV?$money_put@DV?$ostreambuf_iterator@DU?$char_traits@D@std@@@std@@@2@ABVlocale@2@PBV32@_N@Z@4PBVfacet@42@B 004bae0c     libcp:xlocale.obj
 0003:00040e10       ?_Psave@?1??use_facet@std@@YAABV?$moneypunct@D$0A@@2@ABVlocale@2@PBV32@_N@Z@4PBVfacet@42@B 004bae10     libcp:xlocale.obj
 0003:00040e14       ?_Psave@?1??use_facet@std@@YAABV?$moneypunct@D$00@2@ABVlocale@2@PBV32@_N@Z@4PBVfacet@42@B 004bae14     libcp:xlocale.obj
 0003:00040e18       ?_Psave@?1??use_facet@std@@YAABV?$time_get@DV?$istreambuf_iterator@DU?$char_traits@D@std@@@std@@@2@ABVlocale@2@PBV32@_N@Z@4PBVfacet@42@B 004bae18     libcp:xlocale.obj
 0003:00040e1c       ?_Psave@?1??use_facet@std@@YAABV?$time_put@DV?$ostreambuf_iterator@DU?$char_traits@D@std@@@std@@@2@ABVlocale@2@PBV32@_N@Z@4PBVfacet@42@B 004bae1c     libcp:xlocale.obj
 0003:00040e20       ?_Facsav@?$_Tidyfac@V?$collate@D@std@@@std@@0PAV?$collate@D@2@A 004bae20     libcp:xlocale.obj
 0003:00040e24       ?_Facsav@?$_Tidyfac@V?$messages@D@std@@@std@@0PAV?$messages@D@2@A 004bae24     libcp:xlocale.obj
 0003:00040e28       ?_Facsav@?$_Tidyfac@V?$money_get@DV?$istreambuf_iterator@DU?$char_traits@D@std@@@std@@@std@@@std@@0PAV?$money_get@DV?$istreambuf_iterator@DU?$char_traits@D@std@@@std@@@2@A 004bae28     libcp:xlocale.obj
 0003:00040e2c       ?_Facsav@?$_Tidyfac@V?$money_put@DV?$ostreambuf_iterator@DU?$char_traits@D@std@@@std@@@std@@@std@@0PAV?$money_put@DV?$ostreambuf_iterator@DU?$char_traits@D@std@@@std@@@2@A 004bae2c     libcp:xlocale.obj
 0003:00040e30       ?_Facsav@?$_Tidyfac@V?$moneypunct@D$0A@@std@@@std@@0PAV?$moneypunct@D$0A@@2@A 004bae30     libcp:xlocale.obj
 0003:00040e34       ?_Facsav@?$_Tidyfac@V?$moneypunct@D$00@std@@@std@@0PAV?$moneypunct@D$00@2@A 004bae34     libcp:xlocale.obj
 0003:00040e38       ?_Facsav@?$_Tidyfac@V?$time_get@DV?$istreambuf_iterator@DU?$char_traits@D@std@@@std@@@std@@@std@@0PAV?$time_get@DV?$istreambuf_iterator@DU?$char_traits@D@std@@@std@@@2@A 004bae38     libcp:xlocale.obj
 0003:00040e3c       ?_Facsav@?$_Tidyfac@V?$time_put@DV?$ostreambuf_iterator@DU?$char_traits@D@std@@@std@@@std@@@std@@0PAV?$time_put@DV?$ostreambuf_iterator@DU?$char_traits@D@std@@@std@@@2@A 004bae3c     libcp:xlocale.obj
 0003:00040e40       ___fastflag                004bae40     LIBC:fpinit.obj
 0003:00040e44       __adjust_fdiv              004bae44     LIBC:fpinit.obj
 0003:00040e68       __aenvptr                  004bae68     LIBC:wincrt0.obj
 0003:00040e6c       __wenvptr                  004bae6c     LIBC:wincrt0.obj
 0003:00040e70       ___error_mode              004bae70     LIBC:wincrt0.obj
 0003:00040e74       _errno                     004bae74     LIBC:crt0dat.obj
 0003:00040e78       __doserrno                 004bae78     LIBC:crt0dat.obj
 0003:00040e7c       __umaskval                 004bae7c     LIBC:crt0dat.obj
 0003:00040e80       __osver                    004bae80     LIBC:crt0dat.obj
 0003:00040e84       __winver                   004bae84     LIBC:crt0dat.obj
 0003:00040e88       __winmajor                 004bae88     LIBC:crt0dat.obj
 0003:00040e8c       __winminor                 004bae8c     LIBC:crt0dat.obj
 0003:00040e90       ___argc                    004bae90     LIBC:crt0dat.obj
 0003:00040e94       ___argv                    004bae94     LIBC:crt0dat.obj
 0003:00040e98       ___wargv                   004bae98     LIBC:crt0dat.obj
 0003:00040e9c       __environ                  004bae9c     LIBC:crt0dat.obj
 0003:00040ea0       ___initenv                 004baea0     LIBC:crt0dat.obj
 0003:00040ea4       __wenviron                 004baea4     LIBC:crt0dat.obj
 0003:00040ea8       ___winitenv                004baea8     LIBC:crt0dat.obj
 0003:00040eac       __pgmptr                   004baeac     LIBC:crt0dat.obj
 0003:00040eb0       __wpgmptr                  004baeb0     LIBC:crt0dat.obj
 0003:00040eb4       __exitflag                 004baeb4     LIBC:crt0dat.obj
 0003:00040eb8       __C_Termination_Done       004baeb8     LIBC:crt0dat.obj
 0003:00040ebc       __C_Exit_Done              004baebc     LIBC:crt0dat.obj
 0003:00040ec0       __cflush                   004baec0     LIBC:_file.obj
 0003:00040ef0       ___lconv_static_null       004baef0     LIBC:lconv.obj
 0003:00040ef4       ___lc_handle               004baef4     LIBC:nlsdata2.obj
 0003:00040f0c       ___lc_codepage             004baf0c     LIBC:nlsdata2.obj
 0003:00040f10       ___lc_collate_cp           004baf10     LIBC:nlsdata2.obj
 0003:00040f2c       ?_pCurrentException@@3PAUEHExceptionRecord@@A 004baf2c     LIBC:frame.obj
 0003:00040f30       ?_pCurrentExContext@@3PAU_CONTEXT@@A 004baf30     LIBC:frame.obj
 0003:00040f34       ?__pSETranslator@@3P6AXIPAU_EXCEPTION_POINTERS@@@ZA 004baf34     LIBC:hooks.obj
 0003:00040f38       ?__pTerminate@@3P6AXXZA    004baf38     LIBC:hooks.obj
 0003:00040f44       __pxcptinfoptrs            004baf44     LIBC:winxfltr.obj
 0003:00041068       __adbgmsg                  004bb068     LIBC:crt0msg.obj
 0003:0004106c       __newmode                  004bb06c     LIBC:_newmode.obj
 0003:00041070       ?_pnhHeap@@3P6AHI@ZA       004bb070     LIBC:handler.obj
 0003:00041074       __stdbuf                   004bb074     LIBC:_sftbuf.obj
 0003:0004107c       __commode                  004bb07c     LIBC:ncommode.obj
 0003:00041080       __old_pfxlen               004bb080     LIBC:rmtmp.obj
 0003:00041084       ___lc_time_intl            004bb084     LIBC:inittime.obj
 0003:000410a0       ___lc_id                   004bb0a0     LIBC:nlsdata3.obj
 0003:000411f0       __fmode                    004bb1f0     LIBC:txtmode.obj
 0003:0004121c       ?x_statebuf@ios@@0PAJA     004bb21c     libci:_ios.obj
 0003:00041220       ??_B?1???id@?$codecvt@DDH@std@@$D@@9@51 004bb220     <common>
 0003:00041224       ?_Stinit@?1??_Init@?$basic_filebuf@DU?$char_traits@D@std@@@std@@IAEXPAU_iobuf@@W4_Initfl@23@@Z@4HA 004bb224     <common>
 0003:00041228       ?_Stz@?$fpos@H@std@@0HA    004bb228     <common>
 0003:0004122c       ??_B?1???id@?$ctype@G@std@@$D@@9@51 004bb22c     <common>
 0003:00041240       _gacrSave                  004bb240     <common>
 0003:000412c0       _tkOSVerInfo               004bb2c0     <common>
 0003:00041354       ?_Stinit@?1??_Init@?$basic_filebuf@GU?$char_traits@G@std@@@std@@IAEXPAU_iobuf@@W4_Initfl@23@@Z@4HA 004bb354     <common>
 0003:00041358       ??_B?1???id@?$collate@D@std@@$D@@9@51 004bb358     <common>
 0003:0004135c       ___mbcodepage              004bb35c     <common>
 0003:00041360       ___mbulinfo                004bb360     <common>
 0003:0004136c       ___ismbcodepage            004bb36c     <common>
 0003:00041380       __mbcasemap                004bb380     <common>
 0003:00041480       __mbctype                  004bb480     <common>
 0003:00041584       ___mblcid                  004bb584     <common>
 0003:000415a0       ___pioinfo                 004bb5a0     <common>
 0003:000416a0       __nhandle                  004bb6a0     <common>
 0003:000416a4       ___sbh_sizeHeaderList      004bb6a4     <common>
 0003:000416a8       ___sbh_indGroupDefer       004bb6a8     <common>
 0003:000416ac       ___sbh_pHeaderScan         004bb6ac     <common>
 0003:000416b0       ___sbh_initialized         004bb6b0     <common>
 0003:000416b4       ___sbh_pHeaderDefer        004bb6b4     <common>
 0003:000416b8       ___sbh_cntHeaderList       004bb6b8     <common>
 0003:000416bc       ___sbh_pHeaderList         004bb6bc     <common>
 0003:000416c0       ___sbh_threshold           004bb6c0     <common>
 0003:000416c4       __crtheap                  004bb6c4     <common>
 0003:000416c8       ___active_heap             004bb6c8     <common>
 0003:000416cc       ___alternate_form          004bb6cc     <common>
 0003:000416d0       ___no_lead_zeros           004bb6d0     <common>
 0003:000416d4       ___piob                    004bb6d4     <common>
 0003:000416e0       __bufin                    004bb6e0     <common>
 0003:000426e0       __nstream                  004bc6e0     <common>
 0003:000426e4       ___env_initialized         004bc6e4     <common>
 0003:000426e8       ___mbctype_initialized     004bc6e8     <common>
 0003:000426ec       ___onexitend               004bc6ec     <common>
 0003:000426f0       ___onexitbegin             004bc6f0     <common>
 0003:000426f4       __acmdln                   004bc6f4     <common>

 entry point at        0001:0005772d

 Static symbols

 0001:000364f0       _$E17                      004374f0 f   UnitDrawer.obj
 0001:00036510       _$E15                      00437510 f   UnitDrawer.obj
 0001:00036520       _$E23                      00437520 f   UnitDrawer.obj
 0001:00036540       _$E21                      00437540 f   UnitDrawer.obj
 0001:000374b0       _$E38                      004384b0 f   UnitDrawer.obj
 0001:000333d0       _$E17                      004343d0 f   TreeDrawer.obj
 0001:000333f0       _$E15                      004343f0 f   TreeDrawer.obj
 0001:00033400       _$E23                      00434400 f   TreeDrawer.obj
 0001:00033420       _$E21                      00434420 f   TreeDrawer.obj
 0001:000364d0       _$E44                      004374d0 f   TreeDrawer.obj
 0001:00031f80       _$E19                      00432f80 f   TimeProfiler.obj
 0001:00031fa0       _$E17                      00432fa0 f   TimeProfiler.obj
 0001:000333b0       _$E26                      004343b0 f   TimeProfiler.obj
 0001:0002ef20       ?CompareTatex2@@YAHPBX0@Z  0042ff20 f   TextureHandler.obj
 0001:00031f40       _$E29                      00432f40 f   TextureHandler.obj
 0001:0002de90       _$E18                      0042ee90 f   TAPalette.obj
 0001:0002deb0       _$E16                      0042eeb0 f   TAPalette.obj
 0001:0002c330       _$E17                      0042d330 f   Sky.obj
 0001:0002c350       _$E15                      0042d350 f   Sky.obj
 0001:0002c360       _$E23                      0042d360 f   Sky.obj
 0001:0002c380       _$E21                      0042d380 f   Sky.obj
 0001:0002de70       _$E33                      0042ee70 f   Sky.obj
 0001:0002bea0       _$E17                      0042cea0 f   RegHandler.obj
 0001:0002bec0       _$E14                      0042cec0 f   RegHandler.obj
 0001:0002bef0       _$E15                      0042cef0 f   RegHandler.obj
 0001:0002c310       _$E24                      0042d310 f   RegHandler.obj
 0001:0002aa00       _$E17                      0042ba00 f   ReadMap.obj
 0001:0002aa20       _$E15                      0042ba20 f   ReadMap.obj
 0001:0002aa30       _$E23                      0042ba30 f   ReadMap.obj
 0001:0002aa50       _$E21                      0042ba50 f   ReadMap.obj
 0001:0002be80       _$E37                      0042ce80 f   ReadMap.obj
 0001:000273f0       _$E19                      004283f0 f   ProjectileHandler.obj
 0001:00027410       _$E17                      00428410 f   ProjectileHandler.obj
 0001:00027420       _$E25                      00428420 f   ProjectileHandler.obj
 0001:00027440       _$E23                      00428440 f   ProjectileHandler.obj
 0001:000284f0       _$E42                      004294f0 f   ProjectileHandler.obj
 0001:00028510       _$E41                      00429510 f   ProjectileHandler.obj
 0001:00028530       _$E40                      00429530 f   ProjectileHandler.obj
 0001:00028550       _$E39                      00429550 f   ProjectileHandler.obj
 0001:00028570       _$E38                      00429570 f   ProjectileHandler.obj
 0001:0002a9e0       _$E48                      0042b9e0 f   ProjectileHandler.obj
 0001:00026ef0       _$E24                      00427ef0 f   myGL.obj
 0001:00025c80       _$E21                      00426c80 f   MouseHandler.obj
 0001:00023d60       _$E19                      00424d60 f   MiniMap.obj
 0001:00023d80       _$E17                      00424d80 f   MiniMap.obj
 0001:00023d90       _$E25                      00424d90 f   MiniMap.obj
 0001:00023db0       _$E23                      00424db0 f   MiniMap.obj
 0001:00025480       _$E33                      00426480 f   MiniMap.obj
 0001:00023c10       _$E4                       00424c10 f   MemPool.obj
 0001:00023c40       _$E2                       00424c40 f   MemPool.obj
 0001:00023bf0       _$E24                      00424bf0 f   Lesson2.obj
 0001:00022cc0       _$E19                      00423cc0 f   InfoConsole.obj
 0001:00021c20       _$E21                      00422c20 f   HpiHandler.obj
 0001:00019ea0       _$E21                      0041aea0 f   GuiKeyReader.obj
 0001:00019ec0       _$E19                      0041aec0 f   GuiKeyReader.obj
 0001:00019ed0       _$E27                      0041aed0 f   GuiKeyReader.obj
 0001:00019ef0       _$E25                      0041aef0 f   GuiKeyReader.obj
 0001:0001a570       ?GetWord@@YAHAAV?$basic_ifstream@DU?$char_traits@D@std@@@std@@AAV?$basic_string@DU?$char_traits@D@std@@V?$allocator@D@2@@2@@Z 0041b570 f   GuiKeyReader.obj
 0001:0001a710       ?MakeLow@@YAHAAV?$basic_string@DU?$char_traits@D@std@@V?$allocator@D@2@@std@@@Z 0041b710 f   GuiKeyReader.obj
 0001:0001f550       _$E39                      00420550 f   GuiKeyReader.obj
 0001:00013a20       _$E17                      00414a20 f   GroundDrawer.obj
 0001:00013a40       _$E15                      00414a40 f   GroundDrawer.obj
 0001:00013a50       _$E23                      00414a50 f   GroundDrawer.obj
 0001:00013a70       _$E21                      00414a70 f   GroundDrawer.obj
 0001:00018d30       ?DrawVertexA@@YAXHH@Z      00419d30 f   GroundDrawer.obj
 0001:00018e10       ?DrawVertexA@@YAXHHM@Z     00419e10 f   GroundDrawer.obj
 0001:00019e80       _$E35                      0041ae80 f   GroundDrawer.obj
 0001:00011a80       _$E17                      00412a80 f   Ground.obj
 0001:00011aa0       _$E15                      00412aa0 f   Ground.obj
 0001:00011ab0       _$E23                      00412ab0 f   Ground.obj
 0001:00011ad0       _$E21                      00412ad0 f   Ground.obj
 0001:00013a00       _$E33                      00414a00 f   Ground.obj
 0001:00011760       _$E7                       00412760 f   GlobalStuff.obj
 0001:00011780       _$E5                       00412780 f   GlobalStuff.obj
 0001:00011740       _$E19                      00412740 f   glList.obj
 0001:00010b40       _$E24                      00411b40 f   glFont.obj
 0001:0000cae0       _$E29                      0040dae0 f   Game.obj
 0001:0000cb00       _$E27                      0040db00 f   Game.obj
 0001:0000cb10       _$E35                      0040db10 f   Game.obj
 0001:0000cb30       _$E33                      0040db30 f   Game.obj
 0001:0000f9c0       _$E51                      004109c0 f   Game.obj
 0001:0000cac0       _$E21                      0040dac0 f   Gaf.obj
 0001:0000a970       _$E21                      0040b970 f   FeatureHandler.obj
 0001:0000a990       _$E19                      0040b990 f   FeatureHandler.obj
 0001:0000be70       _$E28                      0040ce70 f   FeatureHandler.obj
 0001:0000a390       _$E17                      0040b390 f   DrawWater.obj
 0001:0000a3b0       _$E15                      0040b3b0 f   DrawWater.obj
 0001:0000a3c0       _$E23                      0040b3c0 f   DrawWater.obj
 0001:0000a3e0       _$E21                      0040b3e0 f   DrawWater.obj
 0001:0000a950       _$E31                      0040b950 f   DrawWater.obj
 0001:0000a370       _$E19                      0040b370 f   DrawUI.obj
 0001:00009490       _$E17                      0040a490 f   Camera.obj
 0001:000094b0       _$E15                      0040a4b0 f   Camera.obj
 0001:000094c0       _$E22                      0040a4c0 f   Camera.obj
 0001:000094e0       _$E20                      0040a4e0 f   Camera.obj
 0001:00009e60       _$E29                      0040ae60 f   Camera.obj
 0001:00009440       _$E32                      0040a440 f   Bitmap.obj
 0001:00002e90       _$E17                      00403e90 f   3DOParser.obj
 0001:00002eb0       _$E15                      00403eb0 f   3DOParser.obj
 0001:00002ec0       _$E23                      00403ec0 f   3DOParser.obj
 0001:00002ee0       _$E21                      00403ee0 f   3DOParser.obj
 0001:00006d50       _$E41                      00407d50 f   3DOParser.obj
 0001:00044e50       _create_colormap           00445e50 f   jpeg:jquant1.obj
 0001:00044fb0       _select_ncolors            00445fb0 f   jpeg:jquant1.obj
 0001:000450a0       _output_value              004460a0 f   jpeg:jquant1.obj
 0001:000450c0       _create_colorindex         004460c0 f   jpeg:jquant1.obj
 0001:00045200       _largest_input_value       00446200 f   jpeg:jquant1.obj
 0001:00045220       _alloc_fs_workspace        00446220 f   jpeg:jquant1.obj
 0001:00045260       _start_pass_1_quant        00446260 f   jpeg:jquant1.obj
 0001:00045350       _create_odither_tables     00446350 f   jpeg:jquant1.obj
 0001:000453b0       _make_odither_array        004463b0 f   jpeg:jquant1.obj
 0001:00045420       _color_quantize            00446420 f   jpeg:jquant1.obj
 0001:000454e0       _color_quantize3           004464e0 f   jpeg:jquant1.obj
 0001:000455a0       _quantize_ord_dither       004465a0 f   jpeg:jquant1.obj
 0001:000456d0       _quantize3_ord_dither      004466d0 f   jpeg:jquant1.obj
 0001:00045800       _quantize_fs_dither        00446800 f   jpeg:jquant1.obj
 0001:000459c0       _finish_pass_1_quant       004469c0 f   jpeg:jquant1.obj
 0001:000459d0       _new_color_map_1_quant     004469d0 f   jpeg:jquant1.obj
 0001:00043b00       _init_error_limit          00444b00 f   jpeg:jquant2.obj
 0001:00043ba0       _start_pass_2_quant        00444ba0 f   jpeg:jquant2.obj
 0001:00043cc0       _prescan_quantize          00444cc0 f   jpeg:jquant2.obj
 0001:00043d40       _pass2_no_dither           00444d40 f   jpeg:jquant2.obj
 0001:00043e10       _fill_inverse_cmap         00444e10 f   jpeg:jquant2.obj
 0001:00043f30       _find_nearby_colors        00444f30 f   jpeg:jquant2.obj
 0001:00044120       _find_best_colors          00445120 f   jpeg:jquant2.obj
 0001:00044280       _pass2_fs_dither           00445280 f   jpeg:jquant2.obj
 0001:00044560       _finish_pass1              00445560 f   jpeg:jquant2.obj
 0001:00044590       _select_colors             00445590 f   jpeg:jquant2.obj
 0001:00044620       _update_box                00445620 f   jpeg:jquant2.obj
 0001:00044a50       _median_cut                00445a50 f   jpeg:jquant2.obj
 0001:00044b90       _find_biggest_color_pop    00445b90 f   jpeg:jquant2.obj
 0001:00044bd0       _find_biggest_volume       00445bd0 f   jpeg:jquant2.obj
 0001:00044c00       _compute_color             00445c00 f   jpeg:jquant2.obj
 0001:00044d90       _finish_pass2              00445d90 f   jpeg:jquant2.obj
 0001:00044da0       _new_color_map_2_quant     00445da0 f   jpeg:jquant2.obj
 0001:00043480       _build_ycc_rgb_table       00444480 f   jpeg:jdmerge.obj
 0001:00043540       _start_pass_merged_upsample 00444540 f   jpeg:jdmerge.obj
 0001:00043560       _merged_2v_upsample        00444560 f   jpeg:jdmerge.obj
 0001:00043630       _merged_1v_upsample        00444630 f   jpeg:jdmerge.obj
 0001:00043670       _h2v1_merged_upsample      00444670 f   jpeg:jdmerge.obj
 0001:000437c0       _h2v2_merged_upsample      004447c0 f   jpeg:jdmerge.obj
 0001:00042f70       _build_ycc_rgb_table       00443f70 f   jpeg:jdcolor.obj
 0001:00043030       _ycc_rgb_convert           00444030 f   jpeg:jdcolor.obj
 0001:00043160       _null_convert              00444160 f   jpeg:jdcolor.obj
 0001:000431f0       _grayscale_convert         004441f0 f   jpeg:jdcolor.obj
 0001:00043220       _gray_rgb_convert          00444220 f   jpeg:jdcolor.obj
 0001:00043280       _ycck_cmyk_convert         00444280 f   jpeg:jdcolor.obj
 0001:000433e0       _start_pass_dcolor         004443e0 f   jpeg:jdcolor.obj
 0001:00042830       _start_pass_upsample       00443830 f   jpeg:jdsample.obj
 0001:00042850       _sep_upsample              00443850 f   jpeg:jdsample.obj
 0001:00042940       _fullsize_upsample         00443940 f   jpeg:jdsample.obj
 0001:00042950       _noop_upsample             00443950 f   jpeg:jdsample.obj
 0001:00042960       _int_upsample              00443960 f   jpeg:jdsample.obj
 0001:00042a80       _h2v1_upsample             00443a80 f   jpeg:jdsample.obj
 0001:00042ae0       _h2v2_upsample             00443ae0 f   jpeg:jdsample.obj
 0001:00042b70       _h2v1_fancy_upsample       00443b70 f   jpeg:jdsample.obj
 0001:00042c40       _h2v2_fancy_upsample       00443c40 f   jpeg:jdsample.obj
 0001:00042370       _start_pass_dpost          00443370 f   jpeg:jdpostct.obj
 0001:00042470       _post_process_1pass        00443470 f   jpeg:jdpostct.obj
 0001:000424f0       _post_process_prepass      004434f0 f   jpeg:jdpostct.obj
 0001:00042590       _post_process_2pass        00443590 f   jpeg:jdpostct.obj
 0001:000420a0       _start_pass                004430a0 f   jpeg:jddctmgr.obj
 0001:00041340       _start_pass_phuff_decoder  00442340 f   jpeg:jdphuff.obj
 0001:000415b0       _decode_mcu_DC_first       004425b0 f   jpeg:jdphuff.obj
 0001:000417e0       _process_restart           004427e0 f   jpeg:jdphuff.obj
 0001:00041870       _decode_mcu_AC_first       00442870 f   jpeg:jdphuff.obj
 0001:00041ad0       _decode_mcu_DC_refine      00442ad0 f   jpeg:jdphuff.obj
 0001:00041bd0       _decode_mcu_AC_refine      00442bd0 f   jpeg:jdphuff.obj
 0001:00040cc0       _start_pass_huff_decoder   00441cc0 f   jpeg:jdhuff.obj
 0001:00040e10       _decode_mcu                00441e10 f   jpeg:jdhuff.obj
 0001:00041250       _process_restart           00442250 f   jpeg:jdhuff.obj
 0001:0003f910       _start_input_pass          00440910 f   jpeg:jdcoefct.obj
 0001:0003f930       _start_iMCU_row            00440930 f   jpeg:jdcoefct.obj
 0001:0003f990       _start_output_pass         00440990 f   jpeg:jdcoefct.obj
 0001:0003f9e0       _decompress_onepass        004409e0 f   jpeg:jdcoefct.obj
 0001:0003fc30       _dummy_consume_data        00440c30 f   jpeg:jdcoefct.obj
 0001:0003fc40       _consume_data              00440c40 f   jpeg:jdcoefct.obj
 0001:0003fe60       _decompress_data           00440e60 f   jpeg:jdcoefct.obj
 0001:00040010       _smoothing_ok              00441010 f   jpeg:jdcoefct.obj
 0001:00040130       _decompress_smooth_data    00441130 f   jpeg:jdcoefct.obj
 0001:0003f1f0       _alloc_funny_pointers      004401f0 f   jpeg:jdmainct.obj
 0001:0003f2a0       _start_pass_main           004402a0 f   jpeg:jdmainct.obj
 0001:0003f320       _make_funny_pointers       00440320 f   jpeg:jdmainct.obj
 0001:0003f470       _process_data_simple_main  00440470 f   jpeg:jdmainct.obj
 0001:0003f4e0       _process_data_context_main 004404e0 f   jpeg:jdmainct.obj
 0001:0003f620       _set_wraparound_pointers   00440620 f   jpeg:jdmainct.obj
 0001:0003f730       _set_bottom_pointers       00440730 f   jpeg:jdmainct.obj
 0001:0003f7d0       _process_data_crank_post   004407d0 f   jpeg:jdmainct.obj
 0001:0003f010       _read_backing_store        00440010 f   jpeg:jmemansi.obj
 0001:0003f080       _write_backing_store       00440080 f   jpeg:jmemansi.obj
 0001:0003f0f0       _close_backing_store       004400f0 f   jpeg:jmemansi.obj
 0001:0003e950       _use_merged_upsample       0043f950 f   jpeg:jdmaster.obj
 0001:0003ea90       _master_selection          0043fa90 f   jpeg:jdmaster.obj
 0001:0003ec90       _prepare_range_limit_table 0043fc90 f   jpeg:jdmaster.obj
 0001:0003ed10       _prepare_for_output_pass   0043fd10 f   jpeg:jdmaster.obj
 0001:0003ee70       _finish_output_pass        0043fe70 f   jpeg:jdmaster.obj
 0001:0003dba0       _alloc_small               0043eba0 f   jpeg:jmemmgr.obj
 0001:0003dcd0       _out_of_memory             0043ecd0 f   jpeg:jmemmgr.obj
 0001:0003dcf0       _alloc_large               0043ecf0 f   jpeg:jmemmgr.obj
 0001:0003dda0       _alloc_sarray              0043eda0 f   jpeg:jmemmgr.obj
 0001:0003de50       _alloc_barray              0043ee50 f   jpeg:jmemmgr.obj
 0001:0003df00       _request_virt_sarray       0043ef00 f   jpeg:jmemmgr.obj
 0001:0003df70       _request_virt_barray       0043ef70 f   jpeg:jmemmgr.obj
 0001:0003dfe0       _realize_virt_arrays       0043efe0 f   jpeg:jmemmgr.obj
 0001:0003e160       _access_virt_sarray        0043f160 f   jpeg:jmemmgr.obj
 0001:0003e2b0       _do_sarray_io              0043f2b0 f   jpeg:jmemmgr.obj
 0001:0003e350       _access_virt_barray        0043f350 f   jpeg:jmemmgr.obj
 0001:0003e4a0       _do_barray_io              0043f4a0 f   jpeg:jmemmgr.obj
 0001:0003e540       _free_pool                 0043f540 f   jpeg:jmemmgr.obj
 0001:0003e640       _self_destruct             0043f640 f   jpeg:jmemmgr.obj
 0001:0003bd10       _next_marker               0043cd10 f   jpeg:jdmarker.obj
 0001:0003be90       _get_interesting_appn      0043ce90 f   jpeg:jdmarker.obj
 0001:0003bfd0       _examine_app0              0043cfd0 f   jpeg:jdmarker.obj
 0001:0003c260       _examine_app14             0043d260 f   jpeg:jdmarker.obj
 0001:0003c340       _skip_variable             0043d340 f   jpeg:jdmarker.obj
 0001:0003c3f0       _read_markers              0043d3f0 f   jpeg:jdmarker.obj
 0001:0003c740       _get_soi                   0043d740 f   jpeg:jdmarker.obj
 0001:0003c800       _get_sof                   0043d800 f   jpeg:jdmarker.obj
 0001:0003cb20       _get_sos                   0043db20 f   jpeg:jdmarker.obj
 0001:0003ce40       _get_dht                   0043de40 f   jpeg:jdmarker.obj
 0001:0003d1b0       _get_dqt                   0043e1b0 f   jpeg:jdmarker.obj
 0001:0003d440       _get_dri                   0043e440 f   jpeg:jdmarker.obj
 0001:0003d540       _first_marker              0043e540 f   jpeg:jdmarker.obj
 0001:0003d5e0       _read_restart_marker       0043e5e0 f   jpeg:jdmarker.obj
 0001:0003d670       _reset_marker_reader       0043e670 f   jpeg:jdmarker.obj
 0001:0003d780       _save_marker               0043e780 f   jpeg:jdmarker.obj
 0001:0003b660       _start_input_pass          0043c660 f   jpeg:jdinput.obj
 0001:0003b6a0       _per_scan_setup            0043c6a0 f   jpeg:jdinput.obj
 0001:0003b850       _latch_quant_tables        0043c850 f   jpeg:jdinput.obj
 0001:0003b900       _finish_input_pass         0043c900 f   jpeg:jdinput.obj
 0001:0003b920       _consume_markers           0043c920 f   jpeg:jdinput.obj
 0001:0003b9e0       _initial_setup             0043c9e0 f   jpeg:jdinput.obj
 0001:0003bbd0       _reset_input_controller    0043cbd0 f   jpeg:jdinput.obj
 0001:0003b4b0       _error_exit                0043c4b0 f   jpeg:jerror.obj
 0001:0003b4d0       _output_message            0043c4d0 f   jpeg:jerror.obj
 0001:0003b500       _emit_message              0043c500 f   jpeg:jerror.obj
 0001:0003b540       _format_message            0043c540 f   jpeg:jerror.obj
 0001:0003b5f0       _reset_error_mgr           0043c5f0 f   jpeg:jerror.obj
 0001:0003b370       _init_source               0043c370 f   jpeg:jdatasrc.obj
 0001:0003b380       _fill_input_buffer         0043c380 f   jpeg:jdatasrc.obj
 0001:0003b410       _skip_input_data           0043c410 f   jpeg:jdatasrc.obj
 0001:0003b450       _term_source               0043c450 f   jpeg:jdatasrc.obj
 0001:0003afe0       _output_pass_setup         0043bfe0 f   jpeg:jdapistd.obj
 0001:00055525       _$E37                      00456525 f   libcp:xlocale.obj
 0001:0005553a       _$E36                      0045653a f   libcp:xlocale.obj
